
F16.elf:     file format elf32-littlearm

Sections:
Idx Name          Size      VMA       LMA       File off  Algn
  0 .isr_vector   0000010c  08000000  08000000  00010000  2**0
                  CONTENTS, ALLOC, LOAD, READONLY, DATA
  1 .text         0000973c  08000110  08000110  00010110  2**3
                  CONTENTS, ALLOC, LOAD, READONLY, CODE
  2 .rodata       00000658  0800984c  0800984c  0001984c  2**2
                  CONTENTS, ALLOC, LOAD, READONLY, DATA
  3 .init_array   00000004  08009ea4  08009ea4  00019ea4  2**2
                  CONTENTS, ALLOC, LOAD, DATA
  4 .fini_array   00000004  08009ea8  08009ea8  00019ea8  2**2
                  CONTENTS, ALLOC, LOAD, DATA
  5 .data         00000074  20000000  08009eac  00020000  2**2
                  CONTENTS, ALLOC, LOAD, DATA
  6 .bss          00004030  20000078  08009f20  00020078  2**3
                  ALLOC
  7 ._user_heap_stack 00000600  200040a8  08009f20  000240a8  2**0
                  ALLOC
  8 .ARM.attributes 00000029  00000000  00000000  00020074  2**0
                  CONTENTS, READONLY
  9 .comment      0000007c  00000000  00000000  0002009d  2**0
                  CONTENTS, READONLY
 10 .debug_frame  00000c64  00000000  00000000  0002011c  2**2
                  CONTENTS, READONLY, DEBUGGING

Disassembly of section .text:

08000110 <__do_global_dtors_aux>:
 8000110:	b510      	push	{r4, lr}
 8000112:	4c05      	ldr	r4, [pc, #20]	; (8000128 <__do_global_dtors_aux+0x18>)
 8000114:	7823      	ldrb	r3, [r4, #0]
 8000116:	b933      	cbnz	r3, 8000126 <__do_global_dtors_aux+0x16>
 8000118:	4b04      	ldr	r3, [pc, #16]	; (800012c <__do_global_dtors_aux+0x1c>)
 800011a:	b113      	cbz	r3, 8000122 <__do_global_dtors_aux+0x12>
 800011c:	4804      	ldr	r0, [pc, #16]	; (8000130 <__do_global_dtors_aux+0x20>)
 800011e:	f3af 8000 	nop.w
 8000122:	2301      	movs	r3, #1
 8000124:	7023      	strb	r3, [r4, #0]
 8000126:	bd10      	pop	{r4, pc}
 8000128:	20000078 	.word	0x20000078
 800012c:	00000000 	.word	0x00000000
 8000130:	08009834 	.word	0x08009834

08000134 <frame_dummy>:
 8000134:	b508      	push	{r3, lr}
 8000136:	4b03      	ldr	r3, [pc, #12]	; (8000144 <frame_dummy+0x10>)
 8000138:	b11b      	cbz	r3, 8000142 <frame_dummy+0xe>
 800013a:	4903      	ldr	r1, [pc, #12]	; (8000148 <frame_dummy+0x14>)
 800013c:	4803      	ldr	r0, [pc, #12]	; (800014c <frame_dummy+0x18>)
 800013e:	f3af 8000 	nop.w
 8000142:	bd08      	pop	{r3, pc}
 8000144:	00000000 	.word	0x00000000
 8000148:	2000007c 	.word	0x2000007c
 800014c:	08009834 	.word	0x08009834

08000150 <__aeabi_llsr>:
 8000150:	40d0      	lsrs	r0, r2
 8000152:	1c0b      	adds	r3, r1, #0
 8000154:	40d1      	lsrs	r1, r2
 8000156:	469c      	mov	ip, r3
 8000158:	3a20      	subs	r2, #32
 800015a:	40d3      	lsrs	r3, r2
 800015c:	4318      	orrs	r0, r3
 800015e:	4252      	negs	r2, r2
 8000160:	4663      	mov	r3, ip
 8000162:	4093      	lsls	r3, r2
 8000164:	4318      	orrs	r0, r3
 8000166:	4770      	bx	lr

08000168 <__aeabi_drsub>:
 8000168:	f081 4100 	eor.w	r1, r1, #2147483648	; 0x80000000
 800016c:	e002      	b.n	8000174 <__adddf3>
 800016e:	bf00      	nop

08000170 <__aeabi_dsub>:
 8000170:	f083 4300 	eor.w	r3, r3, #2147483648	; 0x80000000

08000174 <__adddf3>:
 8000174:	b530      	push	{r4, r5, lr}
 8000176:	ea4f 0441 	mov.w	r4, r1, lsl #1
 800017a:	ea4f 0543 	mov.w	r5, r3, lsl #1
 800017e:	ea94 0f05 	teq	r4, r5
 8000182:	bf08      	it	eq
 8000184:	ea90 0f02 	teqeq	r0, r2
 8000188:	bf1f      	itttt	ne
 800018a:	ea54 0c00 	orrsne.w	ip, r4, r0
 800018e:	ea55 0c02 	orrsne.w	ip, r5, r2
 8000192:	ea7f 5c64 	mvnsne.w	ip, r4, asr #21
 8000196:	ea7f 5c65 	mvnsne.w	ip, r5, asr #21
 800019a:	f000 80e2 	beq.w	8000362 <__adddf3+0x1ee>
 800019e:	ea4f 5454 	mov.w	r4, r4, lsr #21
 80001a2:	ebd4 5555 	rsbs	r5, r4, r5, lsr #21
 80001a6:	bfb8      	it	lt
 80001a8:	426d      	neglt	r5, r5
 80001aa:	dd0c      	ble.n	80001c6 <__adddf3+0x52>
 80001ac:	442c      	add	r4, r5
 80001ae:	ea80 0202 	eor.w	r2, r0, r2
 80001b2:	ea81 0303 	eor.w	r3, r1, r3
 80001b6:	ea82 0000 	eor.w	r0, r2, r0
 80001ba:	ea83 0101 	eor.w	r1, r3, r1
 80001be:	ea80 0202 	eor.w	r2, r0, r2
 80001c2:	ea81 0303 	eor.w	r3, r1, r3
 80001c6:	2d36      	cmp	r5, #54	; 0x36
 80001c8:	bf88      	it	hi
 80001ca:	bd30      	pophi	{r4, r5, pc}
 80001cc:	f011 4f00 	tst.w	r1, #2147483648	; 0x80000000
 80001d0:	ea4f 3101 	mov.w	r1, r1, lsl #12
 80001d4:	f44f 1c80 	mov.w	ip, #1048576	; 0x100000
 80001d8:	ea4c 3111 	orr.w	r1, ip, r1, lsr #12
 80001dc:	d002      	beq.n	80001e4 <__adddf3+0x70>
 80001de:	4240      	negs	r0, r0
 80001e0:	eb61 0141 	sbc.w	r1, r1, r1, lsl #1
 80001e4:	f013 4f00 	tst.w	r3, #2147483648	; 0x80000000
 80001e8:	ea4f 3303 	mov.w	r3, r3, lsl #12
 80001ec:	ea4c 3313 	orr.w	r3, ip, r3, lsr #12
 80001f0:	d002      	beq.n	80001f8 <__adddf3+0x84>
 80001f2:	4252      	negs	r2, r2
 80001f4:	eb63 0343 	sbc.w	r3, r3, r3, lsl #1
 80001f8:	ea94 0f05 	teq	r4, r5
 80001fc:	f000 80a7 	beq.w	800034e <__adddf3+0x1da>
 8000200:	f1a4 0401 	sub.w	r4, r4, #1
 8000204:	f1d5 0e20 	rsbs	lr, r5, #32
 8000208:	db0d      	blt.n	8000226 <__adddf3+0xb2>
 800020a:	fa02 fc0e 	lsl.w	ip, r2, lr
 800020e:	fa22 f205 	lsr.w	r2, r2, r5
 8000212:	1880      	adds	r0, r0, r2
 8000214:	f141 0100 	adc.w	r1, r1, #0
 8000218:	fa03 f20e 	lsl.w	r2, r3, lr
 800021c:	1880      	adds	r0, r0, r2
 800021e:	fa43 f305 	asr.w	r3, r3, r5
 8000222:	4159      	adcs	r1, r3
 8000224:	e00e      	b.n	8000244 <__adddf3+0xd0>
 8000226:	f1a5 0520 	sub.w	r5, r5, #32
 800022a:	f10e 0e20 	add.w	lr, lr, #32
 800022e:	2a01      	cmp	r2, #1
 8000230:	fa03 fc0e 	lsl.w	ip, r3, lr
 8000234:	bf28      	it	cs
 8000236:	f04c 0c02 	orrcs.w	ip, ip, #2
 800023a:	fa43 f305 	asr.w	r3, r3, r5
 800023e:	18c0      	adds	r0, r0, r3
 8000240:	eb51 71e3 	adcs.w	r1, r1, r3, asr #31
 8000244:	f001 4500 	and.w	r5, r1, #2147483648	; 0x80000000
 8000248:	d507      	bpl.n	800025a <__adddf3+0xe6>
 800024a:	f04f 0e00 	mov.w	lr, #0
 800024e:	f1dc 0c00 	rsbs	ip, ip, #0
 8000252:	eb7e 0000 	sbcs.w	r0, lr, r0
 8000256:	eb6e 0101 	sbc.w	r1, lr, r1
 800025a:	f5b1 1f80 	cmp.w	r1, #1048576	; 0x100000
 800025e:	d31b      	bcc.n	8000298 <__adddf3+0x124>
 8000260:	f5b1 1f00 	cmp.w	r1, #2097152	; 0x200000
 8000264:	d30c      	bcc.n	8000280 <__adddf3+0x10c>
 8000266:	0849      	lsrs	r1, r1, #1
 8000268:	ea5f 0030 	movs.w	r0, r0, rrx
 800026c:	ea4f 0c3c 	mov.w	ip, ip, rrx
 8000270:	f104 0401 	add.w	r4, r4, #1
 8000274:	ea4f 5244 	mov.w	r2, r4, lsl #21
 8000278:	f512 0f80 	cmn.w	r2, #4194304	; 0x400000
 800027c:	f080 809a 	bcs.w	80003b4 <__adddf3+0x240>
 8000280:	f1bc 4f00 	cmp.w	ip, #2147483648	; 0x80000000
 8000284:	bf08      	it	eq
 8000286:	ea5f 0c50 	movseq.w	ip, r0, lsr #1
 800028a:	f150 0000 	adcs.w	r0, r0, #0
 800028e:	eb41 5104 	adc.w	r1, r1, r4, lsl #20
 8000292:	ea41 0105 	orr.w	r1, r1, r5
 8000296:	bd30      	pop	{r4, r5, pc}
 8000298:	ea5f 0c4c 	movs.w	ip, ip, lsl #1
 800029c:	4140      	adcs	r0, r0
 800029e:	eb41 0101 	adc.w	r1, r1, r1
 80002a2:	f411 1f80 	tst.w	r1, #1048576	; 0x100000
 80002a6:	f1a4 0401 	sub.w	r4, r4, #1
 80002aa:	d1e9      	bne.n	8000280 <__adddf3+0x10c>
 80002ac:	f091 0f00 	teq	r1, #0
 80002b0:	bf04      	itt	eq
 80002b2:	4601      	moveq	r1, r0
 80002b4:	2000      	moveq	r0, #0
 80002b6:	fab1 f381 	clz	r3, r1
 80002ba:	bf08      	it	eq
 80002bc:	3320      	addeq	r3, #32
 80002be:	f1a3 030b 	sub.w	r3, r3, #11
 80002c2:	f1b3 0220 	subs.w	r2, r3, #32
 80002c6:	da0c      	bge.n	80002e2 <__adddf3+0x16e>
 80002c8:	320c      	adds	r2, #12
 80002ca:	dd08      	ble.n	80002de <__adddf3+0x16a>
 80002cc:	f102 0c14 	add.w	ip, r2, #20
 80002d0:	f1c2 020c 	rsb	r2, r2, #12
 80002d4:	fa01 f00c 	lsl.w	r0, r1, ip
 80002d8:	fa21 f102 	lsr.w	r1, r1, r2
 80002dc:	e00c      	b.n	80002f8 <__adddf3+0x184>
 80002de:	f102 0214 	add.w	r2, r2, #20
 80002e2:	bfd8      	it	le
 80002e4:	f1c2 0c20 	rsble	ip, r2, #32
 80002e8:	fa01 f102 	lsl.w	r1, r1, r2
 80002ec:	fa20 fc0c 	lsr.w	ip, r0, ip
 80002f0:	bfdc      	itt	le
 80002f2:	ea41 010c 	orrle.w	r1, r1, ip
 80002f6:	4090      	lslle	r0, r2
 80002f8:	1ae4      	subs	r4, r4, r3
 80002fa:	bfa2      	ittt	ge
 80002fc:	eb01 5104 	addge.w	r1, r1, r4, lsl #20
 8000300:	4329      	orrge	r1, r5
 8000302:	bd30      	popge	{r4, r5, pc}
 8000304:	ea6f 0404 	mvn.w	r4, r4
 8000308:	3c1f      	subs	r4, #31
 800030a:	da1c      	bge.n	8000346 <__adddf3+0x1d2>
 800030c:	340c      	adds	r4, #12
 800030e:	dc0e      	bgt.n	800032e <__adddf3+0x1ba>
 8000310:	f104 0414 	add.w	r4, r4, #20
 8000314:	f1c4 0220 	rsb	r2, r4, #32
 8000318:	fa20 f004 	lsr.w	r0, r0, r4
 800031c:	fa01 f302 	lsl.w	r3, r1, r2
 8000320:	ea40 0003 	orr.w	r0, r0, r3
 8000324:	fa21 f304 	lsr.w	r3, r1, r4
 8000328:	ea45 0103 	orr.w	r1, r5, r3
 800032c:	bd30      	pop	{r4, r5, pc}
 800032e:	f1c4 040c 	rsb	r4, r4, #12
 8000332:	f1c4 0220 	rsb	r2, r4, #32
 8000336:	fa20 f002 	lsr.w	r0, r0, r2
 800033a:	fa01 f304 	lsl.w	r3, r1, r4
 800033e:	ea40 0003 	orr.w	r0, r0, r3
 8000342:	4629      	mov	r1, r5
 8000344:	bd30      	pop	{r4, r5, pc}
 8000346:	fa21 f004 	lsr.w	r0, r1, r4
 800034a:	4629      	mov	r1, r5
 800034c:	bd30      	pop	{r4, r5, pc}
 800034e:	f094 0f00 	teq	r4, #0
 8000352:	f483 1380 	eor.w	r3, r3, #1048576	; 0x100000
 8000356:	bf06      	itte	eq
 8000358:	f481 1180 	eoreq.w	r1, r1, #1048576	; 0x100000
 800035c:	3401      	addeq	r4, #1
 800035e:	3d01      	subne	r5, #1
 8000360:	e74e      	b.n	8000200 <__adddf3+0x8c>
 8000362:	ea7f 5c64 	mvns.w	ip, r4, asr #21
 8000366:	bf18      	it	ne
 8000368:	ea7f 5c65 	mvnsne.w	ip, r5, asr #21
 800036c:	d029      	beq.n	80003c2 <__adddf3+0x24e>
 800036e:	ea94 0f05 	teq	r4, r5
 8000372:	bf08      	it	eq
 8000374:	ea90 0f02 	teqeq	r0, r2
 8000378:	d005      	beq.n	8000386 <__adddf3+0x212>
 800037a:	ea54 0c00 	orrs.w	ip, r4, r0
 800037e:	bf04      	itt	eq
 8000380:	4619      	moveq	r1, r3
 8000382:	4610      	moveq	r0, r2
 8000384:	bd30      	pop	{r4, r5, pc}
 8000386:	ea91 0f03 	teq	r1, r3
 800038a:	bf1e      	ittt	ne
 800038c:	2100      	movne	r1, #0
 800038e:	2000      	movne	r0, #0
 8000390:	bd30      	popne	{r4, r5, pc}
 8000392:	ea5f 5c54 	movs.w	ip, r4, lsr #21
 8000396:	d105      	bne.n	80003a4 <__adddf3+0x230>
 8000398:	0040      	lsls	r0, r0, #1
 800039a:	4149      	adcs	r1, r1
 800039c:	bf28      	it	cs
 800039e:	f041 4100 	orrcs.w	r1, r1, #2147483648	; 0x80000000
 80003a2:	bd30      	pop	{r4, r5, pc}
 80003a4:	f514 0480 	adds.w	r4, r4, #4194304	; 0x400000
 80003a8:	bf3c      	itt	cc
 80003aa:	f501 1180 	addcc.w	r1, r1, #1048576	; 0x100000
 80003ae:	bd30      	popcc	{r4, r5, pc}
 80003b0:	f001 4500 	and.w	r5, r1, #2147483648	; 0x80000000
 80003b4:	f045 41fe 	orr.w	r1, r5, #2130706432	; 0x7f000000
 80003b8:	f441 0170 	orr.w	r1, r1, #15728640	; 0xf00000
 80003bc:	f04f 0000 	mov.w	r0, #0
 80003c0:	bd30      	pop	{r4, r5, pc}
 80003c2:	ea7f 5c64 	mvns.w	ip, r4, asr #21
 80003c6:	bf1a      	itte	ne
 80003c8:	4619      	movne	r1, r3
 80003ca:	4610      	movne	r0, r2
 80003cc:	ea7f 5c65 	mvnseq.w	ip, r5, asr #21
 80003d0:	bf1c      	itt	ne
 80003d2:	460b      	movne	r3, r1
 80003d4:	4602      	movne	r2, r0
 80003d6:	ea50 3401 	orrs.w	r4, r0, r1, lsl #12
 80003da:	bf06      	itte	eq
 80003dc:	ea52 3503 	orrseq.w	r5, r2, r3, lsl #12
 80003e0:	ea91 0f03 	teqeq	r1, r3
 80003e4:	f441 2100 	orrne.w	r1, r1, #524288	; 0x80000
 80003e8:	bd30      	pop	{r4, r5, pc}
 80003ea:	bf00      	nop

080003ec <__aeabi_ui2d>:
 80003ec:	f090 0f00 	teq	r0, #0
 80003f0:	bf04      	itt	eq
 80003f2:	2100      	moveq	r1, #0
 80003f4:	4770      	bxeq	lr
 80003f6:	b530      	push	{r4, r5, lr}
 80003f8:	f44f 6480 	mov.w	r4, #1024	; 0x400
 80003fc:	f104 0432 	add.w	r4, r4, #50	; 0x32
 8000400:	f04f 0500 	mov.w	r5, #0
 8000404:	f04f 0100 	mov.w	r1, #0
 8000408:	e750      	b.n	80002ac <__adddf3+0x138>
 800040a:	bf00      	nop

0800040c <__aeabi_i2d>:
 800040c:	f090 0f00 	teq	r0, #0
 8000410:	bf04      	itt	eq
 8000412:	2100      	moveq	r1, #0
 8000414:	4770      	bxeq	lr
 8000416:	b530      	push	{r4, r5, lr}
 8000418:	f44f 6480 	mov.w	r4, #1024	; 0x400
 800041c:	f104 0432 	add.w	r4, r4, #50	; 0x32
 8000420:	f010 4500 	ands.w	r5, r0, #2147483648	; 0x80000000
 8000424:	bf48      	it	mi
 8000426:	4240      	negmi	r0, r0
 8000428:	f04f 0100 	mov.w	r1, #0
 800042c:	e73e      	b.n	80002ac <__adddf3+0x138>
 800042e:	bf00      	nop

08000430 <__aeabi_f2d>:
 8000430:	0042      	lsls	r2, r0, #1
 8000432:	ea4f 01e2 	mov.w	r1, r2, asr #3
 8000436:	ea4f 0131 	mov.w	r1, r1, rrx
 800043a:	ea4f 7002 	mov.w	r0, r2, lsl #28
 800043e:	bf1f      	itttt	ne
 8000440:	f012 437f 	andsne.w	r3, r2, #4278190080	; 0xff000000
 8000444:	f093 4f7f 	teqne	r3, #4278190080	; 0xff000000
 8000448:	f081 5160 	eorne.w	r1, r1, #939524096	; 0x38000000
 800044c:	4770      	bxne	lr
 800044e:	f092 0f00 	teq	r2, #0
 8000452:	bf14      	ite	ne
 8000454:	f093 4f7f 	teqne	r3, #4278190080	; 0xff000000
 8000458:	4770      	bxeq	lr
 800045a:	b530      	push	{r4, r5, lr}
 800045c:	f44f 7460 	mov.w	r4, #896	; 0x380
 8000460:	f001 4500 	and.w	r5, r1, #2147483648	; 0x80000000
 8000464:	f021 4100 	bic.w	r1, r1, #2147483648	; 0x80000000
 8000468:	e720      	b.n	80002ac <__adddf3+0x138>
 800046a:	bf00      	nop

0800046c <__aeabi_ul2d>:
 800046c:	ea50 0201 	orrs.w	r2, r0, r1
 8000470:	bf08      	it	eq
 8000472:	4770      	bxeq	lr
 8000474:	b530      	push	{r4, r5, lr}
 8000476:	f04f 0500 	mov.w	r5, #0
 800047a:	e00a      	b.n	8000492 <__aeabi_l2d+0x16>

0800047c <__aeabi_l2d>:
 800047c:	ea50 0201 	orrs.w	r2, r0, r1
 8000480:	bf08      	it	eq
 8000482:	4770      	bxeq	lr
 8000484:	b530      	push	{r4, r5, lr}
 8000486:	f011 4500 	ands.w	r5, r1, #2147483648	; 0x80000000
 800048a:	d502      	bpl.n	8000492 <__aeabi_l2d+0x16>
 800048c:	4240      	negs	r0, r0
 800048e:	eb61 0141 	sbc.w	r1, r1, r1, lsl #1
 8000492:	f44f 6480 	mov.w	r4, #1024	; 0x400
 8000496:	f104 0432 	add.w	r4, r4, #50	; 0x32
 800049a:	ea5f 5c91 	movs.w	ip, r1, lsr #22
 800049e:	f43f aedc 	beq.w	800025a <__adddf3+0xe6>
 80004a2:	f04f 0203 	mov.w	r2, #3
 80004a6:	ea5f 0cdc 	movs.w	ip, ip, lsr #3
 80004aa:	bf18      	it	ne
 80004ac:	3203      	addne	r2, #3
 80004ae:	ea5f 0cdc 	movs.w	ip, ip, lsr #3
 80004b2:	bf18      	it	ne
 80004b4:	3203      	addne	r2, #3
 80004b6:	eb02 02dc 	add.w	r2, r2, ip, lsr #3
 80004ba:	f1c2 0320 	rsb	r3, r2, #32
 80004be:	fa00 fc03 	lsl.w	ip, r0, r3
 80004c2:	fa20 f002 	lsr.w	r0, r0, r2
 80004c6:	fa01 fe03 	lsl.w	lr, r1, r3
 80004ca:	ea40 000e 	orr.w	r0, r0, lr
 80004ce:	fa21 f102 	lsr.w	r1, r1, r2
 80004d2:	4414      	add	r4, r2
 80004d4:	e6c1      	b.n	800025a <__adddf3+0xe6>
 80004d6:	bf00      	nop

080004d8 <__aeabi_dmul>:
 80004d8:	b570      	push	{r4, r5, r6, lr}
 80004da:	f04f 0cff 	mov.w	ip, #255	; 0xff
 80004de:	f44c 6ce0 	orr.w	ip, ip, #1792	; 0x700
 80004e2:	ea1c 5411 	ands.w	r4, ip, r1, lsr #20
 80004e6:	bf1d      	ittte	ne
 80004e8:	ea1c 5513 	andsne.w	r5, ip, r3, lsr #20
 80004ec:	ea94 0f0c 	teqne	r4, ip
 80004f0:	ea95 0f0c 	teqne	r5, ip
 80004f4:	f000 f8de 	bleq	80006b4 <__aeabi_dmul+0x1dc>
 80004f8:	442c      	add	r4, r5
 80004fa:	ea81 0603 	eor.w	r6, r1, r3
 80004fe:	ea21 514c 	bic.w	r1, r1, ip, lsl #21
 8000502:	ea23 534c 	bic.w	r3, r3, ip, lsl #21
 8000506:	ea50 3501 	orrs.w	r5, r0, r1, lsl #12
 800050a:	bf18      	it	ne
 800050c:	ea52 3503 	orrsne.w	r5, r2, r3, lsl #12
 8000510:	f441 1180 	orr.w	r1, r1, #1048576	; 0x100000
 8000514:	f443 1380 	orr.w	r3, r3, #1048576	; 0x100000
 8000518:	d038      	beq.n	800058c <__aeabi_dmul+0xb4>
 800051a:	fba0 ce02 	umull	ip, lr, r0, r2
 800051e:	f04f 0500 	mov.w	r5, #0
 8000522:	fbe1 e502 	umlal	lr, r5, r1, r2
 8000526:	f006 4200 	and.w	r2, r6, #2147483648	; 0x80000000
 800052a:	fbe0 e503 	umlal	lr, r5, r0, r3
 800052e:	f04f 0600 	mov.w	r6, #0
 8000532:	fbe1 5603 	umlal	r5, r6, r1, r3
 8000536:	f09c 0f00 	teq	ip, #0
 800053a:	bf18      	it	ne
 800053c:	f04e 0e01 	orrne.w	lr, lr, #1
 8000540:	f1a4 04ff 	sub.w	r4, r4, #255	; 0xff
 8000544:	f5b6 7f00 	cmp.w	r6, #512	; 0x200
 8000548:	f564 7440 	sbc.w	r4, r4, #768	; 0x300
 800054c:	d204      	bcs.n	8000558 <__aeabi_dmul+0x80>
 800054e:	ea5f 0e4e 	movs.w	lr, lr, lsl #1
 8000552:	416d      	adcs	r5, r5
 8000554:	eb46 0606 	adc.w	r6, r6, r6
 8000558:	ea42 21c6 	orr.w	r1, r2, r6, lsl #11
 800055c:	ea41 5155 	orr.w	r1, r1, r5, lsr #21
 8000560:	ea4f 20c5 	mov.w	r0, r5, lsl #11
 8000564:	ea40 505e 	orr.w	r0, r0, lr, lsr #21
 8000568:	ea4f 2ece 	mov.w	lr, lr, lsl #11
 800056c:	f1b4 0cfd 	subs.w	ip, r4, #253	; 0xfd
 8000570:	bf88      	it	hi
 8000572:	f5bc 6fe0 	cmphi.w	ip, #1792	; 0x700
 8000576:	d81e      	bhi.n	80005b6 <__aeabi_dmul+0xde>
 8000578:	f1be 4f00 	cmp.w	lr, #2147483648	; 0x80000000
 800057c:	bf08      	it	eq
 800057e:	ea5f 0e50 	movseq.w	lr, r0, lsr #1
 8000582:	f150 0000 	adcs.w	r0, r0, #0
 8000586:	eb41 5104 	adc.w	r1, r1, r4, lsl #20
 800058a:	bd70      	pop	{r4, r5, r6, pc}
 800058c:	f006 4600 	and.w	r6, r6, #2147483648	; 0x80000000
 8000590:	ea46 0101 	orr.w	r1, r6, r1
 8000594:	ea40 0002 	orr.w	r0, r0, r2
 8000598:	ea81 0103 	eor.w	r1, r1, r3
 800059c:	ebb4 045c 	subs.w	r4, r4, ip, lsr #1
 80005a0:	bfc2      	ittt	gt
 80005a2:	ebd4 050c 	rsbsgt	r5, r4, ip
 80005a6:	ea41 5104 	orrgt.w	r1, r1, r4, lsl #20
 80005aa:	bd70      	popgt	{r4, r5, r6, pc}
 80005ac:	f441 1180 	orr.w	r1, r1, #1048576	; 0x100000
 80005b0:	f04f 0e00 	mov.w	lr, #0
 80005b4:	3c01      	subs	r4, #1
 80005b6:	f300 80ab 	bgt.w	8000710 <__aeabi_dmul+0x238>
 80005ba:	f114 0f36 	cmn.w	r4, #54	; 0x36
 80005be:	bfde      	ittt	le
 80005c0:	2000      	movle	r0, #0
 80005c2:	f001 4100 	andle.w	r1, r1, #2147483648	; 0x80000000
 80005c6:	bd70      	pople	{r4, r5, r6, pc}
 80005c8:	f1c4 0400 	rsb	r4, r4, #0
 80005cc:	3c20      	subs	r4, #32
 80005ce:	da35      	bge.n	800063c <__aeabi_dmul+0x164>
 80005d0:	340c      	adds	r4, #12
 80005d2:	dc1b      	bgt.n	800060c <__aeabi_dmul+0x134>
 80005d4:	f104 0414 	add.w	r4, r4, #20
 80005d8:	f1c4 0520 	rsb	r5, r4, #32
 80005dc:	fa00 f305 	lsl.w	r3, r0, r5
 80005e0:	fa20 f004 	lsr.w	r0, r0, r4
 80005e4:	fa01 f205 	lsl.w	r2, r1, r5
 80005e8:	ea40 0002 	orr.w	r0, r0, r2
 80005ec:	f001 4200 	and.w	r2, r1, #2147483648	; 0x80000000
 80005f0:	f021 4100 	bic.w	r1, r1, #2147483648	; 0x80000000
 80005f4:	eb10 70d3 	adds.w	r0, r0, r3, lsr #31
 80005f8:	fa21 f604 	lsr.w	r6, r1, r4
 80005fc:	eb42 0106 	adc.w	r1, r2, r6
 8000600:	ea5e 0e43 	orrs.w	lr, lr, r3, lsl #1
 8000604:	bf08      	it	eq
 8000606:	ea20 70d3 	biceq.w	r0, r0, r3, lsr #31
 800060a:	bd70      	pop	{r4, r5, r6, pc}
 800060c:	f1c4 040c 	rsb	r4, r4, #12
 8000610:	f1c4 0520 	rsb	r5, r4, #32
 8000614:	fa00 f304 	lsl.w	r3, r0, r4
 8000618:	fa20 f005 	lsr.w	r0, r0, r5
 800061c:	fa01 f204 	lsl.w	r2, r1, r4
 8000620:	ea40 0002 	orr.w	r0, r0, r2
 8000624:	f001 4100 	and.w	r1, r1, #2147483648	; 0x80000000
 8000628:	eb10 70d3 	adds.w	r0, r0, r3, lsr #31
 800062c:	f141 0100 	adc.w	r1, r1, #0
 8000630:	ea5e 0e43 	orrs.w	lr, lr, r3, lsl #1
 8000634:	bf08      	it	eq
 8000636:	ea20 70d3 	biceq.w	r0, r0, r3, lsr #31
 800063a:	bd70      	pop	{r4, r5, r6, pc}
 800063c:	f1c4 0520 	rsb	r5, r4, #32
 8000640:	fa00 f205 	lsl.w	r2, r0, r5
 8000644:	ea4e 0e02 	orr.w	lr, lr, r2
 8000648:	fa20 f304 	lsr.w	r3, r0, r4
 800064c:	fa01 f205 	lsl.w	r2, r1, r5
 8000650:	ea43 0302 	orr.w	r3, r3, r2
 8000654:	fa21 f004 	lsr.w	r0, r1, r4
 8000658:	f001 4100 	and.w	r1, r1, #2147483648	; 0x80000000
 800065c:	fa21 f204 	lsr.w	r2, r1, r4
 8000660:	ea20 0002 	bic.w	r0, r0, r2
 8000664:	eb00 70d3 	add.w	r0, r0, r3, lsr #31
 8000668:	ea5e 0e43 	orrs.w	lr, lr, r3, lsl #1
 800066c:	bf08      	it	eq
 800066e:	ea20 70d3 	biceq.w	r0, r0, r3, lsr #31
 8000672:	bd70      	pop	{r4, r5, r6, pc}
 8000674:	f094 0f00 	teq	r4, #0
 8000678:	d10f      	bne.n	800069a <__aeabi_dmul+0x1c2>
 800067a:	f001 4600 	and.w	r6, r1, #2147483648	; 0x80000000
 800067e:	0040      	lsls	r0, r0, #1
 8000680:	eb41 0101 	adc.w	r1, r1, r1
 8000684:	f411 1f80 	tst.w	r1, #1048576	; 0x100000
 8000688:	bf08      	it	eq
 800068a:	3c01      	subeq	r4, #1
 800068c:	d0f7      	beq.n	800067e <__aeabi_dmul+0x1a6>
 800068e:	ea41 0106 	orr.w	r1, r1, r6
 8000692:	f095 0f00 	teq	r5, #0
 8000696:	bf18      	it	ne
 8000698:	4770      	bxne	lr
 800069a:	f003 4600 	and.w	r6, r3, #2147483648	; 0x80000000
 800069e:	0052      	lsls	r2, r2, #1
 80006a0:	eb43 0303 	adc.w	r3, r3, r3
 80006a4:	f413 1f80 	tst.w	r3, #1048576	; 0x100000
 80006a8:	bf08      	it	eq
 80006aa:	3d01      	subeq	r5, #1
 80006ac:	d0f7      	beq.n	800069e <__aeabi_dmul+0x1c6>
 80006ae:	ea43 0306 	orr.w	r3, r3, r6
 80006b2:	4770      	bx	lr
 80006b4:	ea94 0f0c 	teq	r4, ip
 80006b8:	ea0c 5513 	and.w	r5, ip, r3, lsr #20
 80006bc:	bf18      	it	ne
 80006be:	ea95 0f0c 	teqne	r5, ip
 80006c2:	d00c      	beq.n	80006de <__aeabi_dmul+0x206>
 80006c4:	ea50 0641 	orrs.w	r6, r0, r1, lsl #1
 80006c8:	bf18      	it	ne
 80006ca:	ea52 0643 	orrsne.w	r6, r2, r3, lsl #1
 80006ce:	d1d1      	bne.n	8000674 <__aeabi_dmul+0x19c>
 80006d0:	ea81 0103 	eor.w	r1, r1, r3
 80006d4:	f001 4100 	and.w	r1, r1, #2147483648	; 0x80000000
 80006d8:	f04f 0000 	mov.w	r0, #0
 80006dc:	bd70      	pop	{r4, r5, r6, pc}
 80006de:	ea50 0641 	orrs.w	r6, r0, r1, lsl #1
 80006e2:	bf06      	itte	eq
 80006e4:	4610      	moveq	r0, r2
 80006e6:	4619      	moveq	r1, r3
 80006e8:	ea52 0643 	orrsne.w	r6, r2, r3, lsl #1
 80006ec:	d019      	beq.n	8000722 <__aeabi_dmul+0x24a>
 80006ee:	ea94 0f0c 	teq	r4, ip
 80006f2:	d102      	bne.n	80006fa <__aeabi_dmul+0x222>
 80006f4:	ea50 3601 	orrs.w	r6, r0, r1, lsl #12
 80006f8:	d113      	bne.n	8000722 <__aeabi_dmul+0x24a>
 80006fa:	ea95 0f0c 	teq	r5, ip
 80006fe:	d105      	bne.n	800070c <__aeabi_dmul+0x234>
 8000700:	ea52 3603 	orrs.w	r6, r2, r3, lsl #12
 8000704:	bf1c      	itt	ne
 8000706:	4610      	movne	r0, r2
 8000708:	4619      	movne	r1, r3
 800070a:	d10a      	bne.n	8000722 <__aeabi_dmul+0x24a>
 800070c:	ea81 0103 	eor.w	r1, r1, r3
 8000710:	f001 4100 	and.w	r1, r1, #2147483648	; 0x80000000
 8000714:	f041 41fe 	orr.w	r1, r1, #2130706432	; 0x7f000000
 8000718:	f441 0170 	orr.w	r1, r1, #15728640	; 0xf00000
 800071c:	f04f 0000 	mov.w	r0, #0
 8000720:	bd70      	pop	{r4, r5, r6, pc}
 8000722:	f041 41fe 	orr.w	r1, r1, #2130706432	; 0x7f000000
 8000726:	f441 0178 	orr.w	r1, r1, #16252928	; 0xf80000
 800072a:	bd70      	pop	{r4, r5, r6, pc}

0800072c <__aeabi_ddiv>:
 800072c:	b570      	push	{r4, r5, r6, lr}
 800072e:	f04f 0cff 	mov.w	ip, #255	; 0xff
 8000732:	f44c 6ce0 	orr.w	ip, ip, #1792	; 0x700
 8000736:	ea1c 5411 	ands.w	r4, ip, r1, lsr #20
 800073a:	bf1d      	ittte	ne
 800073c:	ea1c 5513 	andsne.w	r5, ip, r3, lsr #20
 8000740:	ea94 0f0c 	teqne	r4, ip
 8000744:	ea95 0f0c 	teqne	r5, ip
 8000748:	f000 f8a7 	bleq	800089a <__aeabi_ddiv+0x16e>
 800074c:	eba4 0405 	sub.w	r4, r4, r5
 8000750:	ea81 0e03 	eor.w	lr, r1, r3
 8000754:	ea52 3503 	orrs.w	r5, r2, r3, lsl #12
 8000758:	ea4f 3101 	mov.w	r1, r1, lsl #12
 800075c:	f000 8088 	beq.w	8000870 <__aeabi_ddiv+0x144>
 8000760:	ea4f 3303 	mov.w	r3, r3, lsl #12
 8000764:	f04f 5580 	mov.w	r5, #268435456	; 0x10000000
 8000768:	ea45 1313 	orr.w	r3, r5, r3, lsr #4
 800076c:	ea43 6312 	orr.w	r3, r3, r2, lsr #24
 8000770:	ea4f 2202 	mov.w	r2, r2, lsl #8
 8000774:	ea45 1511 	orr.w	r5, r5, r1, lsr #4
 8000778:	ea45 6510 	orr.w	r5, r5, r0, lsr #24
 800077c:	ea4f 2600 	mov.w	r6, r0, lsl #8
 8000780:	f00e 4100 	and.w	r1, lr, #2147483648	; 0x80000000
 8000784:	429d      	cmp	r5, r3
 8000786:	bf08      	it	eq
 8000788:	4296      	cmpeq	r6, r2
 800078a:	f144 04fd 	adc.w	r4, r4, #253	; 0xfd
 800078e:	f504 7440 	add.w	r4, r4, #768	; 0x300
 8000792:	d202      	bcs.n	800079a <__aeabi_ddiv+0x6e>
 8000794:	085b      	lsrs	r3, r3, #1
 8000796:	ea4f 0232 	mov.w	r2, r2, rrx
 800079a:	1ab6      	subs	r6, r6, r2
 800079c:	eb65 0503 	sbc.w	r5, r5, r3
 80007a0:	085b      	lsrs	r3, r3, #1
 80007a2:	ea4f 0232 	mov.w	r2, r2, rrx
 80007a6:	f44f 1080 	mov.w	r0, #1048576	; 0x100000
 80007aa:	f44f 2c00 	mov.w	ip, #524288	; 0x80000
 80007ae:	ebb6 0e02 	subs.w	lr, r6, r2
 80007b2:	eb75 0e03 	sbcs.w	lr, r5, r3
 80007b6:	bf22      	ittt	cs
 80007b8:	1ab6      	subcs	r6, r6, r2
 80007ba:	4675      	movcs	r5, lr
 80007bc:	ea40 000c 	orrcs.w	r0, r0, ip
 80007c0:	085b      	lsrs	r3, r3, #1
 80007c2:	ea4f 0232 	mov.w	r2, r2, rrx
 80007c6:	ebb6 0e02 	subs.w	lr, r6, r2
 80007ca:	eb75 0e03 	sbcs.w	lr, r5, r3
 80007ce:	bf22      	ittt	cs
 80007d0:	1ab6      	subcs	r6, r6, r2
 80007d2:	4675      	movcs	r5, lr
 80007d4:	ea40 005c 	orrcs.w	r0, r0, ip, lsr #1
 80007d8:	085b      	lsrs	r3, r3, #1
 80007da:	ea4f 0232 	mov.w	r2, r2, rrx
 80007de:	ebb6 0e02 	subs.w	lr, r6, r2
 80007e2:	eb75 0e03 	sbcs.w	lr, r5, r3
 80007e6:	bf22      	ittt	cs
 80007e8:	1ab6      	subcs	r6, r6, r2
 80007ea:	4675      	movcs	r5, lr
 80007ec:	ea40 009c 	orrcs.w	r0, r0, ip, lsr #2
 80007f0:	085b      	lsrs	r3, r3, #1
 80007f2:	ea4f 0232 	mov.w	r2, r2, rrx
 80007f6:	ebb6 0e02 	subs.w	lr, r6, r2
 80007fa:	eb75 0e03 	sbcs.w	lr, r5, r3
 80007fe:	bf22      	ittt	cs
 8000800:	1ab6      	subcs	r6, r6, r2
 8000802:	4675      	movcs	r5, lr
 8000804:	ea40 00dc 	orrcs.w	r0, r0, ip, lsr #3
 8000808:	ea55 0e06 	orrs.w	lr, r5, r6
 800080c:	d018      	beq.n	8000840 <__aeabi_ddiv+0x114>
 800080e:	ea4f 1505 	mov.w	r5, r5, lsl #4
 8000812:	ea45 7516 	orr.w	r5, r5, r6, lsr #28
 8000816:	ea4f 1606 	mov.w	r6, r6, lsl #4
 800081a:	ea4f 03c3 	mov.w	r3, r3, lsl #3
 800081e:	ea43 7352 	orr.w	r3, r3, r2, lsr #29
 8000822:	ea4f 02c2 	mov.w	r2, r2, lsl #3
 8000826:	ea5f 1c1c 	movs.w	ip, ip, lsr #4
 800082a:	d1c0      	bne.n	80007ae <__aeabi_ddiv+0x82>
 800082c:	f411 1f80 	tst.w	r1, #1048576	; 0x100000
 8000830:	d10b      	bne.n	800084a <__aeabi_ddiv+0x11e>
 8000832:	ea41 0100 	orr.w	r1, r1, r0
 8000836:	f04f 0000 	mov.w	r0, #0
 800083a:	f04f 4c00 	mov.w	ip, #2147483648	; 0x80000000
 800083e:	e7b6      	b.n	80007ae <__aeabi_ddiv+0x82>
 8000840:	f411 1f80 	tst.w	r1, #1048576	; 0x100000
 8000844:	bf04      	itt	eq
 8000846:	4301      	orreq	r1, r0
 8000848:	2000      	moveq	r0, #0
 800084a:	f1b4 0cfd 	subs.w	ip, r4, #253	; 0xfd
 800084e:	bf88      	it	hi
 8000850:	f5bc 6fe0 	cmphi.w	ip, #1792	; 0x700
 8000854:	f63f aeaf 	bhi.w	80005b6 <__aeabi_dmul+0xde>
 8000858:	ebb5 0c03 	subs.w	ip, r5, r3
 800085c:	bf04      	itt	eq
 800085e:	ebb6 0c02 	subseq.w	ip, r6, r2
 8000862:	ea5f 0c50 	movseq.w	ip, r0, lsr #1
 8000866:	f150 0000 	adcs.w	r0, r0, #0
 800086a:	eb41 5104 	adc.w	r1, r1, r4, lsl #20
 800086e:	bd70      	pop	{r4, r5, r6, pc}
 8000870:	f00e 4e00 	and.w	lr, lr, #2147483648	; 0x80000000
 8000874:	ea4e 3111 	orr.w	r1, lr, r1, lsr #12
 8000878:	eb14 045c 	adds.w	r4, r4, ip, lsr #1
 800087c:	bfc2      	ittt	gt
 800087e:	ebd4 050c 	rsbsgt	r5, r4, ip
 8000882:	ea41 5104 	orrgt.w	r1, r1, r4, lsl #20
 8000886:	bd70      	popgt	{r4, r5, r6, pc}
 8000888:	f441 1180 	orr.w	r1, r1, #1048576	; 0x100000
 800088c:	f04f 0e00 	mov.w	lr, #0
 8000890:	3c01      	subs	r4, #1
 8000892:	e690      	b.n	80005b6 <__aeabi_dmul+0xde>
 8000894:	ea45 0e06 	orr.w	lr, r5, r6
 8000898:	e68d      	b.n	80005b6 <__aeabi_dmul+0xde>
 800089a:	ea0c 5513 	and.w	r5, ip, r3, lsr #20
 800089e:	ea94 0f0c 	teq	r4, ip
 80008a2:	bf08      	it	eq
 80008a4:	ea95 0f0c 	teqeq	r5, ip
 80008a8:	f43f af3b 	beq.w	8000722 <__aeabi_dmul+0x24a>
 80008ac:	ea94 0f0c 	teq	r4, ip
 80008b0:	d10a      	bne.n	80008c8 <__aeabi_ddiv+0x19c>
 80008b2:	ea50 3401 	orrs.w	r4, r0, r1, lsl #12
 80008b6:	f47f af34 	bne.w	8000722 <__aeabi_dmul+0x24a>
 80008ba:	ea95 0f0c 	teq	r5, ip
 80008be:	f47f af25 	bne.w	800070c <__aeabi_dmul+0x234>
 80008c2:	4610      	mov	r0, r2
 80008c4:	4619      	mov	r1, r3
 80008c6:	e72c      	b.n	8000722 <__aeabi_dmul+0x24a>
 80008c8:	ea95 0f0c 	teq	r5, ip
 80008cc:	d106      	bne.n	80008dc <__aeabi_ddiv+0x1b0>
 80008ce:	ea52 3503 	orrs.w	r5, r2, r3, lsl #12
 80008d2:	f43f aefd 	beq.w	80006d0 <__aeabi_dmul+0x1f8>
 80008d6:	4610      	mov	r0, r2
 80008d8:	4619      	mov	r1, r3
 80008da:	e722      	b.n	8000722 <__aeabi_dmul+0x24a>
 80008dc:	ea50 0641 	orrs.w	r6, r0, r1, lsl #1
 80008e0:	bf18      	it	ne
 80008e2:	ea52 0643 	orrsne.w	r6, r2, r3, lsl #1
 80008e6:	f47f aec5 	bne.w	8000674 <__aeabi_dmul+0x19c>
 80008ea:	ea50 0441 	orrs.w	r4, r0, r1, lsl #1
 80008ee:	f47f af0d 	bne.w	800070c <__aeabi_dmul+0x234>
 80008f2:	ea52 0543 	orrs.w	r5, r2, r3, lsl #1
 80008f6:	f47f aeeb 	bne.w	80006d0 <__aeabi_dmul+0x1f8>
 80008fa:	e712      	b.n	8000722 <__aeabi_dmul+0x24a>

080008fc <__gedf2>:
 80008fc:	f04f 3cff 	mov.w	ip, #4294967295
 8000900:	e006      	b.n	8000910 <__cmpdf2+0x4>
 8000902:	bf00      	nop

08000904 <__ledf2>:
 8000904:	f04f 0c01 	mov.w	ip, #1
 8000908:	e002      	b.n	8000910 <__cmpdf2+0x4>
 800090a:	bf00      	nop

0800090c <__cmpdf2>:
 800090c:	f04f 0c01 	mov.w	ip, #1
 8000910:	f84d cd04 	str.w	ip, [sp, #-4]!
 8000914:	ea4f 0c41 	mov.w	ip, r1, lsl #1
 8000918:	ea7f 5c6c 	mvns.w	ip, ip, asr #21
 800091c:	ea4f 0c43 	mov.w	ip, r3, lsl #1
 8000920:	bf18      	it	ne
 8000922:	ea7f 5c6c 	mvnsne.w	ip, ip, asr #21
 8000926:	d01b      	beq.n	8000960 <__cmpdf2+0x54>
 8000928:	b001      	add	sp, #4
 800092a:	ea50 0c41 	orrs.w	ip, r0, r1, lsl #1
 800092e:	bf0c      	ite	eq
 8000930:	ea52 0c43 	orrseq.w	ip, r2, r3, lsl #1
 8000934:	ea91 0f03 	teqne	r1, r3
 8000938:	bf02      	ittt	eq
 800093a:	ea90 0f02 	teqeq	r0, r2
 800093e:	2000      	moveq	r0, #0
 8000940:	4770      	bxeq	lr
 8000942:	f110 0f00 	cmn.w	r0, #0
 8000946:	ea91 0f03 	teq	r1, r3
 800094a:	bf58      	it	pl
 800094c:	4299      	cmppl	r1, r3
 800094e:	bf08      	it	eq
 8000950:	4290      	cmpeq	r0, r2
 8000952:	bf2c      	ite	cs
 8000954:	17d8      	asrcs	r0, r3, #31
 8000956:	ea6f 70e3 	mvncc.w	r0, r3, asr #31
 800095a:	f040 0001 	orr.w	r0, r0, #1
 800095e:	4770      	bx	lr
 8000960:	ea4f 0c41 	mov.w	ip, r1, lsl #1
 8000964:	ea7f 5c6c 	mvns.w	ip, ip, asr #21
 8000968:	d102      	bne.n	8000970 <__cmpdf2+0x64>
 800096a:	ea50 3c01 	orrs.w	ip, r0, r1, lsl #12
 800096e:	d107      	bne.n	8000980 <__cmpdf2+0x74>
 8000970:	ea4f 0c43 	mov.w	ip, r3, lsl #1
 8000974:	ea7f 5c6c 	mvns.w	ip, ip, asr #21
 8000978:	d1d6      	bne.n	8000928 <__cmpdf2+0x1c>
 800097a:	ea52 3c03 	orrs.w	ip, r2, r3, lsl #12
 800097e:	d0d3      	beq.n	8000928 <__cmpdf2+0x1c>
 8000980:	f85d 0b04 	ldr.w	r0, [sp], #4
 8000984:	4770      	bx	lr
 8000986:	bf00      	nop

08000988 <__aeabi_cdrcmple>:
 8000988:	4684      	mov	ip, r0
 800098a:	4610      	mov	r0, r2
 800098c:	4662      	mov	r2, ip
 800098e:	468c      	mov	ip, r1
 8000990:	4619      	mov	r1, r3
 8000992:	4663      	mov	r3, ip
 8000994:	e000      	b.n	8000998 <__aeabi_cdcmpeq>
 8000996:	bf00      	nop

08000998 <__aeabi_cdcmpeq>:
 8000998:	b501      	push	{r0, lr}
 800099a:	f7ff ffb7 	bl	800090c <__cmpdf2>
 800099e:	2800      	cmp	r0, #0
 80009a0:	bf48      	it	mi
 80009a2:	f110 0f00 	cmnmi.w	r0, #0
 80009a6:	bd01      	pop	{r0, pc}

080009a8 <__aeabi_dcmpeq>:
 80009a8:	f84d ed08 	str.w	lr, [sp, #-8]!
 80009ac:	f7ff fff4 	bl	8000998 <__aeabi_cdcmpeq>
 80009b0:	bf0c      	ite	eq
 80009b2:	2001      	moveq	r0, #1
 80009b4:	2000      	movne	r0, #0
 80009b6:	f85d fb08 	ldr.w	pc, [sp], #8
 80009ba:	bf00      	nop

080009bc <__aeabi_dcmplt>:
 80009bc:	f84d ed08 	str.w	lr, [sp, #-8]!
 80009c0:	f7ff ffea 	bl	8000998 <__aeabi_cdcmpeq>
 80009c4:	bf34      	ite	cc
 80009c6:	2001      	movcc	r0, #1
 80009c8:	2000      	movcs	r0, #0
 80009ca:	f85d fb08 	ldr.w	pc, [sp], #8
 80009ce:	bf00      	nop

080009d0 <__aeabi_dcmple>:
 80009d0:	f84d ed08 	str.w	lr, [sp, #-8]!
 80009d4:	f7ff ffe0 	bl	8000998 <__aeabi_cdcmpeq>
 80009d8:	bf94      	ite	ls
 80009da:	2001      	movls	r0, #1
 80009dc:	2000      	movhi	r0, #0
 80009de:	f85d fb08 	ldr.w	pc, [sp], #8
 80009e2:	bf00      	nop

080009e4 <__aeabi_dcmpge>:
 80009e4:	f84d ed08 	str.w	lr, [sp, #-8]!
 80009e8:	f7ff ffce 	bl	8000988 <__aeabi_cdrcmple>
 80009ec:	bf94      	ite	ls
 80009ee:	2001      	movls	r0, #1
 80009f0:	2000      	movhi	r0, #0
 80009f2:	f85d fb08 	ldr.w	pc, [sp], #8
 80009f6:	bf00      	nop

080009f8 <__aeabi_dcmpgt>:
 80009f8:	f84d ed08 	str.w	lr, [sp, #-8]!
 80009fc:	f7ff ffc4 	bl	8000988 <__aeabi_cdrcmple>
 8000a00:	bf34      	ite	cc
 8000a02:	2001      	movcc	r0, #1
 8000a04:	2000      	movcs	r0, #0
 8000a06:	f85d fb08 	ldr.w	pc, [sp], #8
 8000a0a:	bf00      	nop

08000a0c <__aeabi_dcmpun>:
 8000a0c:	ea4f 0c41 	mov.w	ip, r1, lsl #1
 8000a10:	ea7f 5c6c 	mvns.w	ip, ip, asr #21
 8000a14:	d102      	bne.n	8000a1c <__aeabi_dcmpun+0x10>
 8000a16:	ea50 3c01 	orrs.w	ip, r0, r1, lsl #12
 8000a1a:	d10a      	bne.n	8000a32 <__aeabi_dcmpun+0x26>
 8000a1c:	ea4f 0c43 	mov.w	ip, r3, lsl #1
 8000a20:	ea7f 5c6c 	mvns.w	ip, ip, asr #21
 8000a24:	d102      	bne.n	8000a2c <__aeabi_dcmpun+0x20>
 8000a26:	ea52 3c03 	orrs.w	ip, r2, r3, lsl #12
 8000a2a:	d102      	bne.n	8000a32 <__aeabi_dcmpun+0x26>
 8000a2c:	f04f 0000 	mov.w	r0, #0
 8000a30:	4770      	bx	lr
 8000a32:	f04f 0001 	mov.w	r0, #1
 8000a36:	4770      	bx	lr

08000a38 <__aeabi_d2iz>:
 8000a38:	ea4f 0241 	mov.w	r2, r1, lsl #1
 8000a3c:	f512 1200 	adds.w	r2, r2, #2097152	; 0x200000
 8000a40:	d215      	bcs.n	8000a6e <__aeabi_d2iz+0x36>
 8000a42:	d511      	bpl.n	8000a68 <__aeabi_d2iz+0x30>
 8000a44:	f46f 7378 	mvn.w	r3, #992	; 0x3e0
 8000a48:	ebb3 5262 	subs.w	r2, r3, r2, asr #21
 8000a4c:	d912      	bls.n	8000a74 <__aeabi_d2iz+0x3c>
 8000a4e:	ea4f 23c1 	mov.w	r3, r1, lsl #11
 8000a52:	f043 4300 	orr.w	r3, r3, #2147483648	; 0x80000000
 8000a56:	ea43 5350 	orr.w	r3, r3, r0, lsr #21
 8000a5a:	f011 4f00 	tst.w	r1, #2147483648	; 0x80000000
 8000a5e:	fa23 f002 	lsr.w	r0, r3, r2
 8000a62:	bf18      	it	ne
 8000a64:	4240      	negne	r0, r0
 8000a66:	4770      	bx	lr
 8000a68:	f04f 0000 	mov.w	r0, #0
 8000a6c:	4770      	bx	lr
 8000a6e:	ea50 3001 	orrs.w	r0, r0, r1, lsl #12
 8000a72:	d105      	bne.n	8000a80 <__aeabi_d2iz+0x48>
 8000a74:	f011 4000 	ands.w	r0, r1, #2147483648	; 0x80000000
 8000a78:	bf08      	it	eq
 8000a7a:	f06f 4000 	mvneq.w	r0, #2147483648	; 0x80000000
 8000a7e:	4770      	bx	lr
 8000a80:	f04f 0000 	mov.w	r0, #0
 8000a84:	4770      	bx	lr
 8000a86:	bf00      	nop

08000a88 <__aeabi_d2uiz>:
 8000a88:	004a      	lsls	r2, r1, #1
 8000a8a:	d211      	bcs.n	8000ab0 <__aeabi_d2uiz+0x28>
 8000a8c:	f512 1200 	adds.w	r2, r2, #2097152	; 0x200000
 8000a90:	d211      	bcs.n	8000ab6 <__aeabi_d2uiz+0x2e>
 8000a92:	d50d      	bpl.n	8000ab0 <__aeabi_d2uiz+0x28>
 8000a94:	f46f 7378 	mvn.w	r3, #992	; 0x3e0
 8000a98:	ebb3 5262 	subs.w	r2, r3, r2, asr #21
 8000a9c:	d40e      	bmi.n	8000abc <__aeabi_d2uiz+0x34>
 8000a9e:	ea4f 23c1 	mov.w	r3, r1, lsl #11
 8000aa2:	f043 4300 	orr.w	r3, r3, #2147483648	; 0x80000000
 8000aa6:	ea43 5350 	orr.w	r3, r3, r0, lsr #21
 8000aaa:	fa23 f002 	lsr.w	r0, r3, r2
 8000aae:	4770      	bx	lr
 8000ab0:	f04f 0000 	mov.w	r0, #0
 8000ab4:	4770      	bx	lr
 8000ab6:	ea50 3001 	orrs.w	r0, r0, r1, lsl #12
 8000aba:	d102      	bne.n	8000ac2 <__aeabi_d2uiz+0x3a>
 8000abc:	f04f 30ff 	mov.w	r0, #4294967295
 8000ac0:	4770      	bx	lr
 8000ac2:	f04f 0000 	mov.w	r0, #0
 8000ac6:	4770      	bx	lr

08000ac8 <__aeabi_d2f>:
 8000ac8:	ea4f 0241 	mov.w	r2, r1, lsl #1
 8000acc:	f1b2 43e0 	subs.w	r3, r2, #1879048192	; 0x70000000
 8000ad0:	bf24      	itt	cs
 8000ad2:	f5b3 1c00 	subscs.w	ip, r3, #2097152	; 0x200000
 8000ad6:	f1dc 5cfe 	rsbscs	ip, ip, #532676608	; 0x1fc00000
 8000ada:	d90d      	bls.n	8000af8 <__aeabi_d2f+0x30>
 8000adc:	f001 4c00 	and.w	ip, r1, #2147483648	; 0x80000000
 8000ae0:	ea4f 02c0 	mov.w	r2, r0, lsl #3
 8000ae4:	ea4c 7050 	orr.w	r0, ip, r0, lsr #29
 8000ae8:	f1b2 4f00 	cmp.w	r2, #2147483648	; 0x80000000
 8000aec:	eb40 0083 	adc.w	r0, r0, r3, lsl #2
 8000af0:	bf08      	it	eq
 8000af2:	f020 0001 	biceq.w	r0, r0, #1
 8000af6:	4770      	bx	lr
 8000af8:	f011 4f80 	tst.w	r1, #1073741824	; 0x40000000
 8000afc:	d121      	bne.n	8000b42 <__aeabi_d2f+0x7a>
 8000afe:	f113 7238 	adds.w	r2, r3, #48234496	; 0x2e00000
 8000b02:	bfbc      	itt	lt
 8000b04:	f001 4000 	andlt.w	r0, r1, #2147483648	; 0x80000000
 8000b08:	4770      	bxlt	lr
 8000b0a:	f441 1180 	orr.w	r1, r1, #1048576	; 0x100000
 8000b0e:	ea4f 5252 	mov.w	r2, r2, lsr #21
 8000b12:	f1c2 0218 	rsb	r2, r2, #24
 8000b16:	f1c2 0c20 	rsb	ip, r2, #32
 8000b1a:	fa10 f30c 	lsls.w	r3, r0, ip
 8000b1e:	fa20 f002 	lsr.w	r0, r0, r2
 8000b22:	bf18      	it	ne
 8000b24:	f040 0001 	orrne.w	r0, r0, #1
 8000b28:	ea4f 23c1 	mov.w	r3, r1, lsl #11
 8000b2c:	ea4f 23d3 	mov.w	r3, r3, lsr #11
 8000b30:	fa03 fc0c 	lsl.w	ip, r3, ip
 8000b34:	ea40 000c 	orr.w	r0, r0, ip
 8000b38:	fa23 f302 	lsr.w	r3, r3, r2
 8000b3c:	ea4f 0343 	mov.w	r3, r3, lsl #1
 8000b40:	e7cc      	b.n	8000adc <__aeabi_d2f+0x14>
 8000b42:	ea7f 5362 	mvns.w	r3, r2, asr #21
 8000b46:	d107      	bne.n	8000b58 <__aeabi_d2f+0x90>
 8000b48:	ea50 3301 	orrs.w	r3, r0, r1, lsl #12
 8000b4c:	bf1e      	ittt	ne
 8000b4e:	f04f 40fe 	movne.w	r0, #2130706432	; 0x7f000000
 8000b52:	f440 0040 	orrne.w	r0, r0, #12582912	; 0xc00000
 8000b56:	4770      	bxne	lr
 8000b58:	f001 4000 	and.w	r0, r1, #2147483648	; 0x80000000
 8000b5c:	f040 40fe 	orr.w	r0, r0, #2130706432	; 0x7f000000
 8000b60:	f440 0000 	orr.w	r0, r0, #8388608	; 0x800000
 8000b64:	4770      	bx	lr
 8000b66:	bf00      	nop

08000b68 <__aeabi_frsub>:
 8000b68:	f080 4000 	eor.w	r0, r0, #2147483648	; 0x80000000
 8000b6c:	e002      	b.n	8000b74 <__addsf3>
 8000b6e:	bf00      	nop

08000b70 <__aeabi_fsub>:
 8000b70:	f081 4100 	eor.w	r1, r1, #2147483648	; 0x80000000

08000b74 <__addsf3>:
 8000b74:	0042      	lsls	r2, r0, #1
 8000b76:	bf1f      	itttt	ne
 8000b78:	ea5f 0341 	movsne.w	r3, r1, lsl #1
 8000b7c:	ea92 0f03 	teqne	r2, r3
 8000b80:	ea7f 6c22 	mvnsne.w	ip, r2, asr #24
 8000b84:	ea7f 6c23 	mvnsne.w	ip, r3, asr #24
 8000b88:	d06a      	beq.n	8000c60 <__addsf3+0xec>
 8000b8a:	ea4f 6212 	mov.w	r2, r2, lsr #24
 8000b8e:	ebd2 6313 	rsbs	r3, r2, r3, lsr #24
 8000b92:	bfc1      	itttt	gt
 8000b94:	18d2      	addgt	r2, r2, r3
 8000b96:	4041      	eorgt	r1, r0
 8000b98:	4048      	eorgt	r0, r1
 8000b9a:	4041      	eorgt	r1, r0
 8000b9c:	bfb8      	it	lt
 8000b9e:	425b      	neglt	r3, r3
 8000ba0:	2b19      	cmp	r3, #25
 8000ba2:	bf88      	it	hi
 8000ba4:	4770      	bxhi	lr
 8000ba6:	f010 4f00 	tst.w	r0, #2147483648	; 0x80000000
 8000baa:	f440 0000 	orr.w	r0, r0, #8388608	; 0x800000
 8000bae:	f020 407f 	bic.w	r0, r0, #4278190080	; 0xff000000
 8000bb2:	bf18      	it	ne
 8000bb4:	4240      	negne	r0, r0
 8000bb6:	f011 4f00 	tst.w	r1, #2147483648	; 0x80000000
 8000bba:	f441 0100 	orr.w	r1, r1, #8388608	; 0x800000
 8000bbe:	f021 417f 	bic.w	r1, r1, #4278190080	; 0xff000000
 8000bc2:	bf18      	it	ne
 8000bc4:	4249      	negne	r1, r1
 8000bc6:	ea92 0f03 	teq	r2, r3
 8000bca:	d03f      	beq.n	8000c4c <__addsf3+0xd8>
 8000bcc:	f1a2 0201 	sub.w	r2, r2, #1
 8000bd0:	fa41 fc03 	asr.w	ip, r1, r3
 8000bd4:	eb10 000c 	adds.w	r0, r0, ip
 8000bd8:	f1c3 0320 	rsb	r3, r3, #32
 8000bdc:	fa01 f103 	lsl.w	r1, r1, r3
 8000be0:	f000 4300 	and.w	r3, r0, #2147483648	; 0x80000000
 8000be4:	d502      	bpl.n	8000bec <__addsf3+0x78>
 8000be6:	4249      	negs	r1, r1
 8000be8:	eb60 0040 	sbc.w	r0, r0, r0, lsl #1
 8000bec:	f5b0 0f00 	cmp.w	r0, #8388608	; 0x800000
 8000bf0:	d313      	bcc.n	8000c1a <__addsf3+0xa6>
 8000bf2:	f1b0 7f80 	cmp.w	r0, #16777216	; 0x1000000
 8000bf6:	d306      	bcc.n	8000c06 <__addsf3+0x92>
 8000bf8:	0840      	lsrs	r0, r0, #1
 8000bfa:	ea4f 0131 	mov.w	r1, r1, rrx
 8000bfe:	f102 0201 	add.w	r2, r2, #1
 8000c02:	2afe      	cmp	r2, #254	; 0xfe
 8000c04:	d251      	bcs.n	8000caa <__addsf3+0x136>
 8000c06:	f1b1 4f00 	cmp.w	r1, #2147483648	; 0x80000000
 8000c0a:	eb40 50c2 	adc.w	r0, r0, r2, lsl #23
 8000c0e:	bf08      	it	eq
 8000c10:	f020 0001 	biceq.w	r0, r0, #1
 8000c14:	ea40 0003 	orr.w	r0, r0, r3
 8000c18:	4770      	bx	lr
 8000c1a:	0049      	lsls	r1, r1, #1
 8000c1c:	eb40 0000 	adc.w	r0, r0, r0
 8000c20:	f410 0f00 	tst.w	r0, #8388608	; 0x800000
 8000c24:	f1a2 0201 	sub.w	r2, r2, #1
 8000c28:	d1ed      	bne.n	8000c06 <__addsf3+0x92>
 8000c2a:	fab0 fc80 	clz	ip, r0
 8000c2e:	f1ac 0c08 	sub.w	ip, ip, #8
 8000c32:	ebb2 020c 	subs.w	r2, r2, ip
 8000c36:	fa00 f00c 	lsl.w	r0, r0, ip
 8000c3a:	bfaa      	itet	ge
 8000c3c:	eb00 50c2 	addge.w	r0, r0, r2, lsl #23
 8000c40:	4252      	neglt	r2, r2
 8000c42:	4318      	orrge	r0, r3
 8000c44:	bfbc      	itt	lt
 8000c46:	40d0      	lsrlt	r0, r2
 8000c48:	4318      	orrlt	r0, r3
 8000c4a:	4770      	bx	lr
 8000c4c:	f092 0f00 	teq	r2, #0
 8000c50:	f481 0100 	eor.w	r1, r1, #8388608	; 0x800000
 8000c54:	bf06      	itte	eq
 8000c56:	f480 0000 	eoreq.w	r0, r0, #8388608	; 0x800000
 8000c5a:	3201      	addeq	r2, #1
 8000c5c:	3b01      	subne	r3, #1
 8000c5e:	e7b5      	b.n	8000bcc <__addsf3+0x58>
 8000c60:	ea4f 0341 	mov.w	r3, r1, lsl #1
 8000c64:	ea7f 6c22 	mvns.w	ip, r2, asr #24
 8000c68:	bf18      	it	ne
 8000c6a:	ea7f 6c23 	mvnsne.w	ip, r3, asr #24
 8000c6e:	d021      	beq.n	8000cb4 <__addsf3+0x140>
 8000c70:	ea92 0f03 	teq	r2, r3
 8000c74:	d004      	beq.n	8000c80 <__addsf3+0x10c>
 8000c76:	f092 0f00 	teq	r2, #0
 8000c7a:	bf08      	it	eq
 8000c7c:	4608      	moveq	r0, r1
 8000c7e:	4770      	bx	lr
 8000c80:	ea90 0f01 	teq	r0, r1
 8000c84:	bf1c      	itt	ne
 8000c86:	2000      	movne	r0, #0
 8000c88:	4770      	bxne	lr
 8000c8a:	f012 4f7f 	tst.w	r2, #4278190080	; 0xff000000
 8000c8e:	d104      	bne.n	8000c9a <__addsf3+0x126>
 8000c90:	0040      	lsls	r0, r0, #1
 8000c92:	bf28      	it	cs
 8000c94:	f040 4000 	orrcs.w	r0, r0, #2147483648	; 0x80000000
 8000c98:	4770      	bx	lr
 8000c9a:	f112 7200 	adds.w	r2, r2, #33554432	; 0x2000000
 8000c9e:	bf3c      	itt	cc
 8000ca0:	f500 0000 	addcc.w	r0, r0, #8388608	; 0x800000
 8000ca4:	4770      	bxcc	lr
 8000ca6:	f000 4300 	and.w	r3, r0, #2147483648	; 0x80000000
 8000caa:	f043 40fe 	orr.w	r0, r3, #2130706432	; 0x7f000000
 8000cae:	f440 0000 	orr.w	r0, r0, #8388608	; 0x800000
 8000cb2:	4770      	bx	lr
 8000cb4:	ea7f 6222 	mvns.w	r2, r2, asr #24
 8000cb8:	bf16      	itet	ne
 8000cba:	4608      	movne	r0, r1
 8000cbc:	ea7f 6323 	mvnseq.w	r3, r3, asr #24
 8000cc0:	4601      	movne	r1, r0
 8000cc2:	0242      	lsls	r2, r0, #9
 8000cc4:	bf06      	itte	eq
 8000cc6:	ea5f 2341 	movseq.w	r3, r1, lsl #9
 8000cca:	ea90 0f01 	teqeq	r0, r1
 8000cce:	f440 0080 	orrne.w	r0, r0, #4194304	; 0x400000
 8000cd2:	4770      	bx	lr

08000cd4 <__aeabi_ui2f>:
 8000cd4:	f04f 0300 	mov.w	r3, #0
 8000cd8:	e004      	b.n	8000ce4 <__aeabi_i2f+0x8>
 8000cda:	bf00      	nop

08000cdc <__aeabi_i2f>:
 8000cdc:	f010 4300 	ands.w	r3, r0, #2147483648	; 0x80000000
 8000ce0:	bf48      	it	mi
 8000ce2:	4240      	negmi	r0, r0
 8000ce4:	ea5f 0c00 	movs.w	ip, r0
 8000ce8:	bf08      	it	eq
 8000cea:	4770      	bxeq	lr
 8000cec:	f043 4396 	orr.w	r3, r3, #1258291200	; 0x4b000000
 8000cf0:	4601      	mov	r1, r0
 8000cf2:	f04f 0000 	mov.w	r0, #0
 8000cf6:	e01c      	b.n	8000d32 <__aeabi_l2f+0x2a>

08000cf8 <__aeabi_ul2f>:
 8000cf8:	ea50 0201 	orrs.w	r2, r0, r1
 8000cfc:	bf08      	it	eq
 8000cfe:	4770      	bxeq	lr
 8000d00:	f04f 0300 	mov.w	r3, #0
 8000d04:	e00a      	b.n	8000d1c <__aeabi_l2f+0x14>
 8000d06:	bf00      	nop

08000d08 <__aeabi_l2f>:
 8000d08:	ea50 0201 	orrs.w	r2, r0, r1
 8000d0c:	bf08      	it	eq
 8000d0e:	4770      	bxeq	lr
 8000d10:	f011 4300 	ands.w	r3, r1, #2147483648	; 0x80000000
 8000d14:	d502      	bpl.n	8000d1c <__aeabi_l2f+0x14>
 8000d16:	4240      	negs	r0, r0
 8000d18:	eb61 0141 	sbc.w	r1, r1, r1, lsl #1
 8000d1c:	ea5f 0c01 	movs.w	ip, r1
 8000d20:	bf02      	ittt	eq
 8000d22:	4684      	moveq	ip, r0
 8000d24:	4601      	moveq	r1, r0
 8000d26:	2000      	moveq	r0, #0
 8000d28:	f043 43b6 	orr.w	r3, r3, #1526726656	; 0x5b000000
 8000d2c:	bf08      	it	eq
 8000d2e:	f1a3 5380 	subeq.w	r3, r3, #268435456	; 0x10000000
 8000d32:	f5a3 0300 	sub.w	r3, r3, #8388608	; 0x800000
 8000d36:	fabc f28c 	clz	r2, ip
 8000d3a:	3a08      	subs	r2, #8
 8000d3c:	eba3 53c2 	sub.w	r3, r3, r2, lsl #23
 8000d40:	db10      	blt.n	8000d64 <__aeabi_l2f+0x5c>
 8000d42:	fa01 fc02 	lsl.w	ip, r1, r2
 8000d46:	4463      	add	r3, ip
 8000d48:	fa00 fc02 	lsl.w	ip, r0, r2
 8000d4c:	f1c2 0220 	rsb	r2, r2, #32
 8000d50:	f1bc 4f00 	cmp.w	ip, #2147483648	; 0x80000000
 8000d54:	fa20 f202 	lsr.w	r2, r0, r2
 8000d58:	eb43 0002 	adc.w	r0, r3, r2
 8000d5c:	bf08      	it	eq
 8000d5e:	f020 0001 	biceq.w	r0, r0, #1
 8000d62:	4770      	bx	lr
 8000d64:	f102 0220 	add.w	r2, r2, #32
 8000d68:	fa01 fc02 	lsl.w	ip, r1, r2
 8000d6c:	f1c2 0220 	rsb	r2, r2, #32
 8000d70:	ea50 004c 	orrs.w	r0, r0, ip, lsl #1
 8000d74:	fa21 f202 	lsr.w	r2, r1, r2
 8000d78:	eb43 0002 	adc.w	r0, r3, r2
 8000d7c:	bf08      	it	eq
 8000d7e:	ea20 70dc 	biceq.w	r0, r0, ip, lsr #31
 8000d82:	4770      	bx	lr

08000d84 <__aeabi_fmul>:
 8000d84:	f04f 0cff 	mov.w	ip, #255	; 0xff
 8000d88:	ea1c 52d0 	ands.w	r2, ip, r0, lsr #23
 8000d8c:	bf1e      	ittt	ne
 8000d8e:	ea1c 53d1 	andsne.w	r3, ip, r1, lsr #23
 8000d92:	ea92 0f0c 	teqne	r2, ip
 8000d96:	ea93 0f0c 	teqne	r3, ip
 8000d9a:	d06f      	beq.n	8000e7c <__aeabi_fmul+0xf8>
 8000d9c:	441a      	add	r2, r3
 8000d9e:	ea80 0c01 	eor.w	ip, r0, r1
 8000da2:	0240      	lsls	r0, r0, #9
 8000da4:	bf18      	it	ne
 8000da6:	ea5f 2141 	movsne.w	r1, r1, lsl #9
 8000daa:	d01e      	beq.n	8000dea <__aeabi_fmul+0x66>
 8000dac:	f04f 6300 	mov.w	r3, #134217728	; 0x8000000
 8000db0:	ea43 1050 	orr.w	r0, r3, r0, lsr #5
 8000db4:	ea43 1151 	orr.w	r1, r3, r1, lsr #5
 8000db8:	fba0 3101 	umull	r3, r1, r0, r1
 8000dbc:	f00c 4000 	and.w	r0, ip, #2147483648	; 0x80000000
 8000dc0:	f5b1 0f00 	cmp.w	r1, #8388608	; 0x800000
 8000dc4:	bf3e      	ittt	cc
 8000dc6:	0049      	lslcc	r1, r1, #1
 8000dc8:	ea41 71d3 	orrcc.w	r1, r1, r3, lsr #31
 8000dcc:	005b      	lslcc	r3, r3, #1
 8000dce:	ea40 0001 	orr.w	r0, r0, r1
 8000dd2:	f162 027f 	sbc.w	r2, r2, #127	; 0x7f
 8000dd6:	2afd      	cmp	r2, #253	; 0xfd
 8000dd8:	d81d      	bhi.n	8000e16 <__aeabi_fmul+0x92>
 8000dda:	f1b3 4f00 	cmp.w	r3, #2147483648	; 0x80000000
 8000dde:	eb40 50c2 	adc.w	r0, r0, r2, lsl #23
 8000de2:	bf08      	it	eq
 8000de4:	f020 0001 	biceq.w	r0, r0, #1
 8000de8:	4770      	bx	lr
 8000dea:	f090 0f00 	teq	r0, #0
 8000dee:	f00c 4c00 	and.w	ip, ip, #2147483648	; 0x80000000
 8000df2:	bf08      	it	eq
 8000df4:	0249      	lsleq	r1, r1, #9
 8000df6:	ea4c 2050 	orr.w	r0, ip, r0, lsr #9
 8000dfa:	ea40 2051 	orr.w	r0, r0, r1, lsr #9
 8000dfe:	3a7f      	subs	r2, #127	; 0x7f
 8000e00:	bfc2      	ittt	gt
 8000e02:	f1d2 03ff 	rsbsgt	r3, r2, #255	; 0xff
 8000e06:	ea40 50c2 	orrgt.w	r0, r0, r2, lsl #23
 8000e0a:	4770      	bxgt	lr
 8000e0c:	f440 0000 	orr.w	r0, r0, #8388608	; 0x800000
 8000e10:	f04f 0300 	mov.w	r3, #0
 8000e14:	3a01      	subs	r2, #1
 8000e16:	dc5d      	bgt.n	8000ed4 <__aeabi_fmul+0x150>
 8000e18:	f112 0f19 	cmn.w	r2, #25
 8000e1c:	bfdc      	itt	le
 8000e1e:	f000 4000 	andle.w	r0, r0, #2147483648	; 0x80000000
 8000e22:	4770      	bxle	lr
 8000e24:	f1c2 0200 	rsb	r2, r2, #0
 8000e28:	0041      	lsls	r1, r0, #1
 8000e2a:	fa21 f102 	lsr.w	r1, r1, r2
 8000e2e:	f1c2 0220 	rsb	r2, r2, #32
 8000e32:	fa00 fc02 	lsl.w	ip, r0, r2
 8000e36:	ea5f 0031 	movs.w	r0, r1, rrx
 8000e3a:	f140 0000 	adc.w	r0, r0, #0
 8000e3e:	ea53 034c 	orrs.w	r3, r3, ip, lsl #1
 8000e42:	bf08      	it	eq
 8000e44:	ea20 70dc 	biceq.w	r0, r0, ip, lsr #31
 8000e48:	4770      	bx	lr
 8000e4a:	f092 0f00 	teq	r2, #0
 8000e4e:	f000 4c00 	and.w	ip, r0, #2147483648	; 0x80000000
 8000e52:	bf02      	ittt	eq
 8000e54:	0040      	lsleq	r0, r0, #1
 8000e56:	f410 0f00 	tsteq.w	r0, #8388608	; 0x800000
 8000e5a:	3a01      	subeq	r2, #1
 8000e5c:	d0f9      	beq.n	8000e52 <__aeabi_fmul+0xce>
 8000e5e:	ea40 000c 	orr.w	r0, r0, ip
 8000e62:	f093 0f00 	teq	r3, #0
 8000e66:	f001 4c00 	and.w	ip, r1, #2147483648	; 0x80000000
 8000e6a:	bf02      	ittt	eq
 8000e6c:	0049      	lsleq	r1, r1, #1
 8000e6e:	f411 0f00 	tsteq.w	r1, #8388608	; 0x800000
 8000e72:	3b01      	subeq	r3, #1
 8000e74:	d0f9      	beq.n	8000e6a <__aeabi_fmul+0xe6>
 8000e76:	ea41 010c 	orr.w	r1, r1, ip
 8000e7a:	e78f      	b.n	8000d9c <__aeabi_fmul+0x18>
 8000e7c:	ea0c 53d1 	and.w	r3, ip, r1, lsr #23
 8000e80:	ea92 0f0c 	teq	r2, ip
 8000e84:	bf18      	it	ne
 8000e86:	ea93 0f0c 	teqne	r3, ip
 8000e8a:	d00a      	beq.n	8000ea2 <__aeabi_fmul+0x11e>
 8000e8c:	f030 4c00 	bics.w	ip, r0, #2147483648	; 0x80000000
 8000e90:	bf18      	it	ne
 8000e92:	f031 4c00 	bicsne.w	ip, r1, #2147483648	; 0x80000000
 8000e96:	d1d8      	bne.n	8000e4a <__aeabi_fmul+0xc6>
 8000e98:	ea80 0001 	eor.w	r0, r0, r1
 8000e9c:	f000 4000 	and.w	r0, r0, #2147483648	; 0x80000000
 8000ea0:	4770      	bx	lr
 8000ea2:	f090 0f00 	teq	r0, #0
 8000ea6:	bf17      	itett	ne
 8000ea8:	f090 4f00 	teqne	r0, #2147483648	; 0x80000000
 8000eac:	4608      	moveq	r0, r1
 8000eae:	f091 0f00 	teqne	r1, #0
 8000eb2:	f091 4f00 	teqne	r1, #2147483648	; 0x80000000
 8000eb6:	d014      	beq.n	8000ee2 <__aeabi_fmul+0x15e>
 8000eb8:	ea92 0f0c 	teq	r2, ip
 8000ebc:	d101      	bne.n	8000ec2 <__aeabi_fmul+0x13e>
 8000ebe:	0242      	lsls	r2, r0, #9
 8000ec0:	d10f      	bne.n	8000ee2 <__aeabi_fmul+0x15e>
 8000ec2:	ea93 0f0c 	teq	r3, ip
 8000ec6:	d103      	bne.n	8000ed0 <__aeabi_fmul+0x14c>
 8000ec8:	024b      	lsls	r3, r1, #9
 8000eca:	bf18      	it	ne
 8000ecc:	4608      	movne	r0, r1
 8000ece:	d108      	bne.n	8000ee2 <__aeabi_fmul+0x15e>
 8000ed0:	ea80 0001 	eor.w	r0, r0, r1
 8000ed4:	f000 4000 	and.w	r0, r0, #2147483648	; 0x80000000
 8000ed8:	f040 40fe 	orr.w	r0, r0, #2130706432	; 0x7f000000
 8000edc:	f440 0000 	orr.w	r0, r0, #8388608	; 0x800000
 8000ee0:	4770      	bx	lr
 8000ee2:	f040 40fe 	orr.w	r0, r0, #2130706432	; 0x7f000000
 8000ee6:	f440 0040 	orr.w	r0, r0, #12582912	; 0xc00000
 8000eea:	4770      	bx	lr

08000eec <__aeabi_fdiv>:
 8000eec:	f04f 0cff 	mov.w	ip, #255	; 0xff
 8000ef0:	ea1c 52d0 	ands.w	r2, ip, r0, lsr #23
 8000ef4:	bf1e      	ittt	ne
 8000ef6:	ea1c 53d1 	andsne.w	r3, ip, r1, lsr #23
 8000efa:	ea92 0f0c 	teqne	r2, ip
 8000efe:	ea93 0f0c 	teqne	r3, ip
 8000f02:	d069      	beq.n	8000fd8 <__aeabi_fdiv+0xec>
 8000f04:	eba2 0203 	sub.w	r2, r2, r3
 8000f08:	ea80 0c01 	eor.w	ip, r0, r1
 8000f0c:	0249      	lsls	r1, r1, #9
 8000f0e:	ea4f 2040 	mov.w	r0, r0, lsl #9
 8000f12:	d037      	beq.n	8000f84 <__aeabi_fdiv+0x98>
 8000f14:	f04f 5380 	mov.w	r3, #268435456	; 0x10000000
 8000f18:	ea43 1111 	orr.w	r1, r3, r1, lsr #4
 8000f1c:	ea43 1310 	orr.w	r3, r3, r0, lsr #4
 8000f20:	f00c 4000 	and.w	r0, ip, #2147483648	; 0x80000000
 8000f24:	428b      	cmp	r3, r1
 8000f26:	bf38      	it	cc
 8000f28:	005b      	lslcc	r3, r3, #1
 8000f2a:	f142 027d 	adc.w	r2, r2, #125	; 0x7d
 8000f2e:	f44f 0c00 	mov.w	ip, #8388608	; 0x800000
 8000f32:	428b      	cmp	r3, r1
 8000f34:	bf24      	itt	cs
 8000f36:	1a5b      	subcs	r3, r3, r1
 8000f38:	ea40 000c 	orrcs.w	r0, r0, ip
 8000f3c:	ebb3 0f51 	cmp.w	r3, r1, lsr #1
 8000f40:	bf24      	itt	cs
 8000f42:	eba3 0351 	subcs.w	r3, r3, r1, lsr #1
 8000f46:	ea40 005c 	orrcs.w	r0, r0, ip, lsr #1
 8000f4a:	ebb3 0f91 	cmp.w	r3, r1, lsr #2
 8000f4e:	bf24      	itt	cs
 8000f50:	eba3 0391 	subcs.w	r3, r3, r1, lsr #2
 8000f54:	ea40 009c 	orrcs.w	r0, r0, ip, lsr #2
 8000f58:	ebb3 0fd1 	cmp.w	r3, r1, lsr #3
 8000f5c:	bf24      	itt	cs
 8000f5e:	eba3 03d1 	subcs.w	r3, r3, r1, lsr #3
 8000f62:	ea40 00dc 	orrcs.w	r0, r0, ip, lsr #3
 8000f66:	011b      	lsls	r3, r3, #4
 8000f68:	bf18      	it	ne
 8000f6a:	ea5f 1c1c 	movsne.w	ip, ip, lsr #4
 8000f6e:	d1e0      	bne.n	8000f32 <__aeabi_fdiv+0x46>
 8000f70:	2afd      	cmp	r2, #253	; 0xfd
 8000f72:	f63f af50 	bhi.w	8000e16 <__aeabi_fmul+0x92>
 8000f76:	428b      	cmp	r3, r1
 8000f78:	eb40 50c2 	adc.w	r0, r0, r2, lsl #23
 8000f7c:	bf08      	it	eq
 8000f7e:	f020 0001 	biceq.w	r0, r0, #1
 8000f82:	4770      	bx	lr
 8000f84:	f00c 4c00 	and.w	ip, ip, #2147483648	; 0x80000000
 8000f88:	ea4c 2050 	orr.w	r0, ip, r0, lsr #9
 8000f8c:	327f      	adds	r2, #127	; 0x7f
 8000f8e:	bfc2      	ittt	gt
 8000f90:	f1d2 03ff 	rsbsgt	r3, r2, #255	; 0xff
 8000f94:	ea40 50c2 	orrgt.w	r0, r0, r2, lsl #23
 8000f98:	4770      	bxgt	lr
 8000f9a:	f440 0000 	orr.w	r0, r0, #8388608	; 0x800000
 8000f9e:	f04f 0300 	mov.w	r3, #0
 8000fa2:	3a01      	subs	r2, #1
 8000fa4:	e737      	b.n	8000e16 <__aeabi_fmul+0x92>
 8000fa6:	f092 0f00 	teq	r2, #0
 8000faa:	f000 4c00 	and.w	ip, r0, #2147483648	; 0x80000000
 8000fae:	bf02      	ittt	eq
 8000fb0:	0040      	lsleq	r0, r0, #1
 8000fb2:	f410 0f00 	tsteq.w	r0, #8388608	; 0x800000
 8000fb6:	3a01      	subeq	r2, #1
 8000fb8:	d0f9      	beq.n	8000fae <__aeabi_fdiv+0xc2>
 8000fba:	ea40 000c 	orr.w	r0, r0, ip
 8000fbe:	f093 0f00 	teq	r3, #0
 8000fc2:	f001 4c00 	and.w	ip, r1, #2147483648	; 0x80000000
 8000fc6:	bf02      	ittt	eq
 8000fc8:	0049      	lsleq	r1, r1, #1
 8000fca:	f411 0f00 	tsteq.w	r1, #8388608	; 0x800000
 8000fce:	3b01      	subeq	r3, #1
 8000fd0:	d0f9      	beq.n	8000fc6 <__aeabi_fdiv+0xda>
 8000fd2:	ea41 010c 	orr.w	r1, r1, ip
 8000fd6:	e795      	b.n	8000f04 <__aeabi_fdiv+0x18>
 8000fd8:	ea0c 53d1 	and.w	r3, ip, r1, lsr #23
 8000fdc:	ea92 0f0c 	teq	r2, ip
 8000fe0:	d108      	bne.n	8000ff4 <__aeabi_fdiv+0x108>
 8000fe2:	0242      	lsls	r2, r0, #9
 8000fe4:	f47f af7d 	bne.w	8000ee2 <__aeabi_fmul+0x15e>
 8000fe8:	ea93 0f0c 	teq	r3, ip
 8000fec:	f47f af70 	bne.w	8000ed0 <__aeabi_fmul+0x14c>
 8000ff0:	4608      	mov	r0, r1
 8000ff2:	e776      	b.n	8000ee2 <__aeabi_fmul+0x15e>
 8000ff4:	ea93 0f0c 	teq	r3, ip
 8000ff8:	d104      	bne.n	8001004 <__aeabi_fdiv+0x118>
 8000ffa:	024b      	lsls	r3, r1, #9
 8000ffc:	f43f af4c 	beq.w	8000e98 <__aeabi_fmul+0x114>
 8001000:	4608      	mov	r0, r1
 8001002:	e76e      	b.n	8000ee2 <__aeabi_fmul+0x15e>
 8001004:	f030 4c00 	bics.w	ip, r0, #2147483648	; 0x80000000
 8001008:	bf18      	it	ne
 800100a:	f031 4c00 	bicsne.w	ip, r1, #2147483648	; 0x80000000
 800100e:	d1ca      	bne.n	8000fa6 <__aeabi_fdiv+0xba>
 8001010:	f030 4200 	bics.w	r2, r0, #2147483648	; 0x80000000
 8001014:	f47f af5c 	bne.w	8000ed0 <__aeabi_fmul+0x14c>
 8001018:	f031 4300 	bics.w	r3, r1, #2147483648	; 0x80000000
 800101c:	f47f af3c 	bne.w	8000e98 <__aeabi_fmul+0x114>
 8001020:	e75f      	b.n	8000ee2 <__aeabi_fmul+0x15e>
 8001022:	bf00      	nop

08001024 <__gesf2>:
 8001024:	f04f 3cff 	mov.w	ip, #4294967295
 8001028:	e006      	b.n	8001038 <__cmpsf2+0x4>
 800102a:	bf00      	nop

0800102c <__lesf2>:
 800102c:	f04f 0c01 	mov.w	ip, #1
 8001030:	e002      	b.n	8001038 <__cmpsf2+0x4>
 8001032:	bf00      	nop

08001034 <__cmpsf2>:
 8001034:	f04f 0c01 	mov.w	ip, #1
 8001038:	f84d cd04 	str.w	ip, [sp, #-4]!
 800103c:	ea4f 0240 	mov.w	r2, r0, lsl #1
 8001040:	ea4f 0341 	mov.w	r3, r1, lsl #1
 8001044:	ea7f 6c22 	mvns.w	ip, r2, asr #24
 8001048:	bf18      	it	ne
 800104a:	ea7f 6c23 	mvnsne.w	ip, r3, asr #24
 800104e:	d011      	beq.n	8001074 <__cmpsf2+0x40>
 8001050:	b001      	add	sp, #4
 8001052:	ea52 0c53 	orrs.w	ip, r2, r3, lsr #1
 8001056:	bf18      	it	ne
 8001058:	ea90 0f01 	teqne	r0, r1
 800105c:	bf58      	it	pl
 800105e:	ebb2 0003 	subspl.w	r0, r2, r3
 8001062:	bf88      	it	hi
 8001064:	17c8      	asrhi	r0, r1, #31
 8001066:	bf38      	it	cc
 8001068:	ea6f 70e1 	mvncc.w	r0, r1, asr #31
 800106c:	bf18      	it	ne
 800106e:	f040 0001 	orrne.w	r0, r0, #1
 8001072:	4770      	bx	lr
 8001074:	ea7f 6c22 	mvns.w	ip, r2, asr #24
 8001078:	d102      	bne.n	8001080 <__cmpsf2+0x4c>
 800107a:	ea5f 2c40 	movs.w	ip, r0, lsl #9
 800107e:	d105      	bne.n	800108c <__cmpsf2+0x58>
 8001080:	ea7f 6c23 	mvns.w	ip, r3, asr #24
 8001084:	d1e4      	bne.n	8001050 <__cmpsf2+0x1c>
 8001086:	ea5f 2c41 	movs.w	ip, r1, lsl #9
 800108a:	d0e1      	beq.n	8001050 <__cmpsf2+0x1c>
 800108c:	f85d 0b04 	ldr.w	r0, [sp], #4
 8001090:	4770      	bx	lr
 8001092:	bf00      	nop

08001094 <__aeabi_cfrcmple>:
 8001094:	4684      	mov	ip, r0
 8001096:	4608      	mov	r0, r1
 8001098:	4661      	mov	r1, ip
 800109a:	e7ff      	b.n	800109c <__aeabi_cfcmpeq>

0800109c <__aeabi_cfcmpeq>:
 800109c:	b50f      	push	{r0, r1, r2, r3, lr}
 800109e:	f7ff ffc9 	bl	8001034 <__cmpsf2>
 80010a2:	2800      	cmp	r0, #0
 80010a4:	bf48      	it	mi
 80010a6:	f110 0f00 	cmnmi.w	r0, #0
 80010aa:	bd0f      	pop	{r0, r1, r2, r3, pc}

080010ac <__aeabi_fcmpeq>:
 80010ac:	f84d ed08 	str.w	lr, [sp, #-8]!
 80010b0:	f7ff fff4 	bl	800109c <__aeabi_cfcmpeq>
 80010b4:	bf0c      	ite	eq
 80010b6:	2001      	moveq	r0, #1
 80010b8:	2000      	movne	r0, #0
 80010ba:	f85d fb08 	ldr.w	pc, [sp], #8
 80010be:	bf00      	nop

080010c0 <__aeabi_fcmplt>:
 80010c0:	f84d ed08 	str.w	lr, [sp, #-8]!
 80010c4:	f7ff ffea 	bl	800109c <__aeabi_cfcmpeq>
 80010c8:	bf34      	ite	cc
 80010ca:	2001      	movcc	r0, #1
 80010cc:	2000      	movcs	r0, #0
 80010ce:	f85d fb08 	ldr.w	pc, [sp], #8
 80010d2:	bf00      	nop

080010d4 <__aeabi_fcmple>:
 80010d4:	f84d ed08 	str.w	lr, [sp, #-8]!
 80010d8:	f7ff ffe0 	bl	800109c <__aeabi_cfcmpeq>
 80010dc:	bf94      	ite	ls
 80010de:	2001      	movls	r0, #1
 80010e0:	2000      	movhi	r0, #0
 80010e2:	f85d fb08 	ldr.w	pc, [sp], #8
 80010e6:	bf00      	nop

080010e8 <__aeabi_fcmpge>:
 80010e8:	f84d ed08 	str.w	lr, [sp, #-8]!
 80010ec:	f7ff ffd2 	bl	8001094 <__aeabi_cfrcmple>
 80010f0:	bf94      	ite	ls
 80010f2:	2001      	movls	r0, #1
 80010f4:	2000      	movhi	r0, #0
 80010f6:	f85d fb08 	ldr.w	pc, [sp], #8
 80010fa:	bf00      	nop

080010fc <__aeabi_fcmpgt>:
 80010fc:	f84d ed08 	str.w	lr, [sp, #-8]!
 8001100:	f7ff ffc8 	bl	8001094 <__aeabi_cfrcmple>
 8001104:	bf34      	ite	cc
 8001106:	2001      	movcc	r0, #1
 8001108:	2000      	movcs	r0, #0
 800110a:	f85d fb08 	ldr.w	pc, [sp], #8
 800110e:	bf00      	nop

08001110 <__aeabi_fcmpun>:
 8001110:	ea4f 0240 	mov.w	r2, r0, lsl #1
 8001114:	ea4f 0341 	mov.w	r3, r1, lsl #1
 8001118:	ea7f 6c22 	mvns.w	ip, r2, asr #24
 800111c:	d102      	bne.n	8001124 <__aeabi_fcmpun+0x14>
 800111e:	ea5f 2c40 	movs.w	ip, r0, lsl #9
 8001122:	d108      	bne.n	8001136 <__aeabi_fcmpun+0x26>
 8001124:	ea7f 6c23 	mvns.w	ip, r3, asr #24
 8001128:	d102      	bne.n	8001130 <__aeabi_fcmpun+0x20>
 800112a:	ea5f 2c41 	movs.w	ip, r1, lsl #9
 800112e:	d102      	bne.n	8001136 <__aeabi_fcmpun+0x26>
 8001130:	f04f 0000 	mov.w	r0, #0
 8001134:	4770      	bx	lr
 8001136:	f04f 0001 	mov.w	r0, #1
 800113a:	4770      	bx	lr

0800113c <__aeabi_f2iz>:
 800113c:	ea4f 0240 	mov.w	r2, r0, lsl #1
 8001140:	f1b2 4ffe 	cmp.w	r2, #2130706432	; 0x7f000000
 8001144:	d30f      	bcc.n	8001166 <__aeabi_f2iz+0x2a>
 8001146:	f04f 039e 	mov.w	r3, #158	; 0x9e
 800114a:	ebb3 6212 	subs.w	r2, r3, r2, lsr #24
 800114e:	d90d      	bls.n	800116c <__aeabi_f2iz+0x30>
 8001150:	ea4f 2300 	mov.w	r3, r0, lsl #8
 8001154:	f043 4300 	orr.w	r3, r3, #2147483648	; 0x80000000
 8001158:	f010 4f00 	tst.w	r0, #2147483648	; 0x80000000
 800115c:	fa23 f002 	lsr.w	r0, r3, r2
 8001160:	bf18      	it	ne
 8001162:	4240      	negne	r0, r0
 8001164:	4770      	bx	lr
 8001166:	f04f 0000 	mov.w	r0, #0
 800116a:	4770      	bx	lr
 800116c:	f112 0f61 	cmn.w	r2, #97	; 0x61
 8001170:	d101      	bne.n	8001176 <__aeabi_f2iz+0x3a>
 8001172:	0242      	lsls	r2, r0, #9
 8001174:	d105      	bne.n	8001182 <__aeabi_f2iz+0x46>
 8001176:	f010 4000 	ands.w	r0, r0, #2147483648	; 0x80000000
 800117a:	bf08      	it	eq
 800117c:	f06f 4000 	mvneq.w	r0, #2147483648	; 0x80000000
 8001180:	4770      	bx	lr
 8001182:	f04f 0000 	mov.w	r0, #0
 8001186:	4770      	bx	lr

08001188 <__aeabi_f2uiz>:
 8001188:	0042      	lsls	r2, r0, #1
 800118a:	d20e      	bcs.n	80011aa <__aeabi_f2uiz+0x22>
 800118c:	f1b2 4ffe 	cmp.w	r2, #2130706432	; 0x7f000000
 8001190:	d30b      	bcc.n	80011aa <__aeabi_f2uiz+0x22>
 8001192:	f04f 039e 	mov.w	r3, #158	; 0x9e
 8001196:	ebb3 6212 	subs.w	r2, r3, r2, lsr #24
 800119a:	d409      	bmi.n	80011b0 <__aeabi_f2uiz+0x28>
 800119c:	ea4f 2300 	mov.w	r3, r0, lsl #8
 80011a0:	f043 4300 	orr.w	r3, r3, #2147483648	; 0x80000000
 80011a4:	fa23 f002 	lsr.w	r0, r3, r2
 80011a8:	4770      	bx	lr
 80011aa:	f04f 0000 	mov.w	r0, #0
 80011ae:	4770      	bx	lr
 80011b0:	f112 0f61 	cmn.w	r2, #97	; 0x61
 80011b4:	d101      	bne.n	80011ba <__aeabi_f2uiz+0x32>
 80011b6:	0242      	lsls	r2, r0, #9
 80011b8:	d102      	bne.n	80011c0 <__aeabi_f2uiz+0x38>
 80011ba:	f04f 30ff 	mov.w	r0, #4294967295
 80011be:	4770      	bx	lr
 80011c0:	f04f 0000 	mov.w	r0, #0
 80011c4:	4770      	bx	lr
 80011c6:	bf00      	nop

080011c8 <HAL_InitTick>:
 80011c8:	b538      	push	{r3, r4, r5, lr}
 80011ca:	4b0e      	ldr	r3, [pc, #56]	; (8001204 <HAL_InitTick+0x3c>)
 80011cc:	4605      	mov	r5, r0
 80011ce:	7818      	ldrb	r0, [r3, #0]
 80011d0:	f44f 737a 	mov.w	r3, #1000	; 0x3e8
 80011d4:	fbb3 f3f0 	udiv	r3, r3, r0
 80011d8:	4a0b      	ldr	r2, [pc, #44]	; (8001208 <HAL_InitTick+0x40>)
 80011da:	6810      	ldr	r0, [r2, #0]
 80011dc:	fbb0 f0f3 	udiv	r0, r0, r3
 80011e0:	f000 f89e 	bl	8001320 <HAL_SYSTICK_Config>
 80011e4:	4604      	mov	r4, r0
 80011e6:	b958      	cbnz	r0, 8001200 <HAL_InitTick+0x38>
 80011e8:	2d0f      	cmp	r5, #15
 80011ea:	d809      	bhi.n	8001200 <HAL_InitTick+0x38>
 80011ec:	4602      	mov	r2, r0
 80011ee:	4629      	mov	r1, r5
 80011f0:	f04f 30ff 	mov.w	r0, #4294967295
 80011f4:	f000 f854 	bl	80012a0 <HAL_NVIC_SetPriority>
 80011f8:	4b04      	ldr	r3, [pc, #16]	; (800120c <HAL_InitTick+0x44>)
 80011fa:	4620      	mov	r0, r4
 80011fc:	601d      	str	r5, [r3, #0]
 80011fe:	bd38      	pop	{r3, r4, r5, pc}
 8001200:	2001      	movs	r0, #1
 8001202:	bd38      	pop	{r3, r4, r5, pc}
 8001204:	20000000 	.word	0x20000000
 8001208:	20000008 	.word	0x20000008
 800120c:	20000004 	.word	0x20000004

08001210 <HAL_Init>:
 8001210:	4a07      	ldr	r2, [pc, #28]	; (8001230 <HAL_Init+0x20>)
 8001212:	b508      	push	{r3, lr}
 8001214:	6813      	ldr	r3, [r2, #0]
 8001216:	2003      	movs	r0, #3
 8001218:	f043 0310 	orr.w	r3, r3, #16
 800121c:	6013      	str	r3, [r2, #0]
 800121e:	f000 f82d 	bl	800127c <HAL_NVIC_SetPriorityGrouping>
 8001222:	2000      	movs	r0, #0
 8001224:	f7ff ffd0 	bl	80011c8 <HAL_InitTick>
 8001228:	f001 f888 	bl	800233c <HAL_MspInit>
 800122c:	2000      	movs	r0, #0
 800122e:	bd08      	pop	{r3, pc}
 8001230:	40022000 	.word	0x40022000

08001234 <HAL_IncTick>:
 8001234:	4a03      	ldr	r2, [pc, #12]	; (8001244 <HAL_IncTick+0x10>)
 8001236:	4b04      	ldr	r3, [pc, #16]	; (8001248 <HAL_IncTick+0x14>)
 8001238:	6811      	ldr	r1, [r2, #0]
 800123a:	781b      	ldrb	r3, [r3, #0]
 800123c:	440b      	add	r3, r1
 800123e:	6013      	str	r3, [r2, #0]
 8001240:	4770      	bx	lr
 8001242:	bf00      	nop
 8001244:	200038a8 	.word	0x200038a8
 8001248:	20000000 	.word	0x20000000

0800124c <HAL_GetTick>:
 800124c:	4b01      	ldr	r3, [pc, #4]	; (8001254 <HAL_GetTick+0x8>)
 800124e:	6818      	ldr	r0, [r3, #0]
 8001250:	4770      	bx	lr
 8001252:	bf00      	nop
 8001254:	200038a8 	.word	0x200038a8

08001258 <HAL_Delay>:
 8001258:	b538      	push	{r3, r4, r5, lr}
 800125a:	4604      	mov	r4, r0
 800125c:	f7ff fff6 	bl	800124c <HAL_GetTick>
 8001260:	4605      	mov	r5, r0
 8001262:	1c63      	adds	r3, r4, #1
 8001264:	bf1e      	ittt	ne
 8001266:	4b04      	ldrne	r3, [pc, #16]	; (8001278 <HAL_Delay+0x20>)
 8001268:	781b      	ldrbne	r3, [r3, #0]
 800126a:	18e4      	addne	r4, r4, r3
 800126c:	f7ff ffee 	bl	800124c <HAL_GetTick>
 8001270:	1b40      	subs	r0, r0, r5
 8001272:	4284      	cmp	r4, r0
 8001274:	d8fa      	bhi.n	800126c <HAL_Delay+0x14>
 8001276:	bd38      	pop	{r3, r4, r5, pc}
 8001278:	20000000 	.word	0x20000000

0800127c <HAL_NVIC_SetPriorityGrouping>:
 800127c:	4a07      	ldr	r2, [pc, #28]	; (800129c <HAL_NVIC_SetPriorityGrouping+0x20>)
 800127e:	0200      	lsls	r0, r0, #8
 8001280:	68d3      	ldr	r3, [r2, #12]
 8001282:	f400 60e0 	and.w	r0, r0, #1792	; 0x700
 8001286:	f423 63e0 	bic.w	r3, r3, #1792	; 0x700
 800128a:	041b      	lsls	r3, r3, #16
 800128c:	0c1b      	lsrs	r3, r3, #16
 800128e:	f043 63bf 	orr.w	r3, r3, #100139008	; 0x5f80000
 8001292:	f443 3300 	orr.w	r3, r3, #131072	; 0x20000
 8001296:	4303      	orrs	r3, r0
 8001298:	60d3      	str	r3, [r2, #12]
 800129a:	4770      	bx	lr
 800129c:	e000ed00 	.word	0xe000ed00

080012a0 <HAL_NVIC_SetPriority>:
 80012a0:	4b17      	ldr	r3, [pc, #92]	; (8001300 <HAL_NVIC_SetPriority+0x60>)
 80012a2:	b530      	push	{r4, r5, lr}
 80012a4:	68dc      	ldr	r4, [r3, #12]
 80012a6:	f3c4 2402 	ubfx	r4, r4, #8, #3
 80012aa:	f1c4 0307 	rsb	r3, r4, #7
 80012ae:	1d25      	adds	r5, r4, #4
 80012b0:	2b04      	cmp	r3, #4
 80012b2:	bf28      	it	cs
 80012b4:	2304      	movcs	r3, #4
 80012b6:	2d06      	cmp	r5, #6
 80012b8:	f04f 0501 	mov.w	r5, #1
 80012bc:	bf98      	it	ls
 80012be:	2400      	movls	r4, #0
 80012c0:	fa05 f303 	lsl.w	r3, r5, r3
 80012c4:	f103 33ff 	add.w	r3, r3, #4294967295
 80012c8:	bf88      	it	hi
 80012ca:	3c03      	subhi	r4, #3
 80012cc:	4019      	ands	r1, r3
 80012ce:	40a1      	lsls	r1, r4
 80012d0:	fa05 f404 	lsl.w	r4, r5, r4
 80012d4:	3c01      	subs	r4, #1
 80012d6:	4022      	ands	r2, r4
 80012d8:	2800      	cmp	r0, #0
 80012da:	ea42 0201 	orr.w	r2, r2, r1
 80012de:	ea4f 1202 	mov.w	r2, r2, lsl #4
 80012e2:	bfaf      	iteee	ge
 80012e4:	f100 4060 	addge.w	r0, r0, #3758096384	; 0xe0000000
 80012e8:	4b06      	ldrlt	r3, [pc, #24]	; (8001304 <HAL_NVIC_SetPriority+0x64>)
 80012ea:	f000 000f 	andlt.w	r0, r0, #15
 80012ee:	b2d2      	uxtblt	r2, r2
 80012f0:	bfa5      	ittet	ge
 80012f2:	b2d2      	uxtbge	r2, r2
 80012f4:	f500 4061 	addge.w	r0, r0, #57600	; 0xe100
 80012f8:	541a      	strblt	r2, [r3, r0]
 80012fa:	f880 2300 	strbge.w	r2, [r0, #768]	; 0x300
 80012fe:	bd30      	pop	{r4, r5, pc}
 8001300:	e000ed00 	.word	0xe000ed00
 8001304:	e000ed14 	.word	0xe000ed14

08001308 <HAL_NVIC_EnableIRQ>:
 8001308:	2301      	movs	r3, #1
 800130a:	0942      	lsrs	r2, r0, #5
 800130c:	f000 001f 	and.w	r0, r0, #31
 8001310:	fa03 f000 	lsl.w	r0, r3, r0
 8001314:	4b01      	ldr	r3, [pc, #4]	; (800131c <HAL_NVIC_EnableIRQ+0x14>)
 8001316:	f843 0022 	str.w	r0, [r3, r2, lsl #2]
 800131a:	4770      	bx	lr
 800131c:	e000e100 	.word	0xe000e100

08001320 <HAL_SYSTICK_Config>:
 8001320:	3801      	subs	r0, #1
 8001322:	f1b0 7f80 	cmp.w	r0, #16777216	; 0x1000000
 8001326:	d20a      	bcs.n	800133e <HAL_SYSTICK_Config+0x1e>
 8001328:	21f0      	movs	r1, #240	; 0xf0
 800132a:	4b06      	ldr	r3, [pc, #24]	; (8001344 <HAL_SYSTICK_Config+0x24>)
 800132c:	4a06      	ldr	r2, [pc, #24]	; (8001348 <HAL_SYSTICK_Config+0x28>)
 800132e:	6058      	str	r0, [r3, #4]
 8001330:	f882 1023 	strb.w	r1, [r2, #35]	; 0x23
 8001334:	2000      	movs	r0, #0
 8001336:	2207      	movs	r2, #7
 8001338:	6098      	str	r0, [r3, #8]
 800133a:	601a      	str	r2, [r3, #0]
 800133c:	4770      	bx	lr
 800133e:	2001      	movs	r0, #1
 8001340:	4770      	bx	lr
 8001342:	bf00      	nop
 8001344:	e000e010 	.word	0xe000e010
 8001348:	e000ed00 	.word	0xe000ed00

0800134c <HAL_NVIC_ClearPendingIRQ>:
 800134c:	2201      	movs	r2, #1
 800134e:	0943      	lsrs	r3, r0, #5
 8001350:	f000 001f 	and.w	r0, r0, #31
 8001354:	fa02 f000 	lsl.w	r0, r2, r0
 8001358:	4a02      	ldr	r2, [pc, #8]	; (8001364 <HAL_NVIC_ClearPendingIRQ+0x18>)
 800135a:	3360      	adds	r3, #96	; 0x60
 800135c:	f842 0023 	str.w	r0, [r2, r3, lsl #2]
 8001360:	4770      	bx	lr
 8001362:	bf00      	nop
 8001364:	e000e100 	.word	0xe000e100

08001368 <FLASH_SetErrorCode>:
 8001368:	4a11      	ldr	r2, [pc, #68]	; (80013b0 <FLASH_SetErrorCode+0x48>)
 800136a:	68d3      	ldr	r3, [r2, #12]
 800136c:	f013 0310 	ands.w	r3, r3, #16
 8001370:	d005      	beq.n	800137e <FLASH_SetErrorCode+0x16>
 8001372:	4910      	ldr	r1, [pc, #64]	; (80013b4 <FLASH_SetErrorCode+0x4c>)
 8001374:	69cb      	ldr	r3, [r1, #28]
 8001376:	f043 0302 	orr.w	r3, r3, #2
 800137a:	61cb      	str	r3, [r1, #28]
 800137c:	2310      	movs	r3, #16
 800137e:	68d2      	ldr	r2, [r2, #12]
 8001380:	0750      	lsls	r0, r2, #29
 8001382:	d506      	bpl.n	8001392 <FLASH_SetErrorCode+0x2a>
 8001384:	490b      	ldr	r1, [pc, #44]	; (80013b4 <FLASH_SetErrorCode+0x4c>)
 8001386:	f043 0304 	orr.w	r3, r3, #4
 800138a:	69ca      	ldr	r2, [r1, #28]
 800138c:	f042 0201 	orr.w	r2, r2, #1
 8001390:	61ca      	str	r2, [r1, #28]
 8001392:	4a07      	ldr	r2, [pc, #28]	; (80013b0 <FLASH_SetErrorCode+0x48>)
 8001394:	69d1      	ldr	r1, [r2, #28]
 8001396:	07c9      	lsls	r1, r1, #31
 8001398:	d508      	bpl.n	80013ac <FLASH_SetErrorCode+0x44>
 800139a:	4806      	ldr	r0, [pc, #24]	; (80013b4 <FLASH_SetErrorCode+0x4c>)
 800139c:	69c1      	ldr	r1, [r0, #28]
 800139e:	f041 0104 	orr.w	r1, r1, #4
 80013a2:	61c1      	str	r1, [r0, #28]
 80013a4:	69d1      	ldr	r1, [r2, #28]
 80013a6:	f021 0101 	bic.w	r1, r1, #1
 80013aa:	61d1      	str	r1, [r2, #28]
 80013ac:	60d3      	str	r3, [r2, #12]
 80013ae:	4770      	bx	lr
 80013b0:	40022000 	.word	0x40022000
 80013b4:	200038b0 	.word	0x200038b0

080013b8 <HAL_FLASH_Unlock>:
 80013b8:	4b06      	ldr	r3, [pc, #24]	; (80013d4 <HAL_FLASH_Unlock+0x1c>)
 80013ba:	6918      	ldr	r0, [r3, #16]
 80013bc:	f010 0080 	ands.w	r0, r0, #128	; 0x80
 80013c0:	d007      	beq.n	80013d2 <HAL_FLASH_Unlock+0x1a>
 80013c2:	4a05      	ldr	r2, [pc, #20]	; (80013d8 <HAL_FLASH_Unlock+0x20>)
 80013c4:	605a      	str	r2, [r3, #4]
 80013c6:	f102 3288 	add.w	r2, r2, #2290649224	; 0x88888888
 80013ca:	605a      	str	r2, [r3, #4]
 80013cc:	6918      	ldr	r0, [r3, #16]
 80013ce:	f3c0 10c0 	ubfx	r0, r0, #7, #1
 80013d2:	4770      	bx	lr
 80013d4:	40022000 	.word	0x40022000
 80013d8:	45670123 	.word	0x45670123

080013dc <HAL_FLASH_Lock>:
 80013dc:	4a03      	ldr	r2, [pc, #12]	; (80013ec <HAL_FLASH_Lock+0x10>)
 80013de:	2000      	movs	r0, #0
 80013e0:	6913      	ldr	r3, [r2, #16]
 80013e2:	f043 0380 	orr.w	r3, r3, #128	; 0x80
 80013e6:	6113      	str	r3, [r2, #16]
 80013e8:	4770      	bx	lr
 80013ea:	bf00      	nop
 80013ec:	40022000 	.word	0x40022000

080013f0 <FLASH_WaitForLastOperation>:
 80013f0:	b5f8      	push	{r3, r4, r5, r6, r7, lr}
 80013f2:	4606      	mov	r6, r0
 80013f4:	f7ff ff2a 	bl	800124c <HAL_GetTick>
 80013f8:	4c11      	ldr	r4, [pc, #68]	; (8001440 <FLASH_WaitForLastOperation+0x50>)
 80013fa:	4607      	mov	r7, r0
 80013fc:	4625      	mov	r5, r4
 80013fe:	68e3      	ldr	r3, [r4, #12]
 8001400:	07d8      	lsls	r0, r3, #31
 8001402:	d412      	bmi.n	800142a <FLASH_WaitForLastOperation+0x3a>
 8001404:	68e3      	ldr	r3, [r4, #12]
 8001406:	0699      	lsls	r1, r3, #26
 8001408:	bf44      	itt	mi
 800140a:	2320      	movmi	r3, #32
 800140c:	60e3      	strmi	r3, [r4, #12]
 800140e:	68eb      	ldr	r3, [r5, #12]
 8001410:	06da      	lsls	r2, r3, #27
 8001412:	d406      	bmi.n	8001422 <FLASH_WaitForLastOperation+0x32>
 8001414:	69eb      	ldr	r3, [r5, #28]
 8001416:	07db      	lsls	r3, r3, #31
 8001418:	d403      	bmi.n	8001422 <FLASH_WaitForLastOperation+0x32>
 800141a:	68e8      	ldr	r0, [r5, #12]
 800141c:	f010 0004 	ands.w	r0, r0, #4
 8001420:	d002      	beq.n	8001428 <FLASH_WaitForLastOperation+0x38>
 8001422:	f7ff ffa1 	bl	8001368 <FLASH_SetErrorCode>
 8001426:	2001      	movs	r0, #1
 8001428:	bdf8      	pop	{r3, r4, r5, r6, r7, pc}
 800142a:	1c73      	adds	r3, r6, #1
 800142c:	d0e7      	beq.n	80013fe <FLASH_WaitForLastOperation+0xe>
 800142e:	b90e      	cbnz	r6, 8001434 <FLASH_WaitForLastOperation+0x44>
 8001430:	2003      	movs	r0, #3
 8001432:	bdf8      	pop	{r3, r4, r5, r6, r7, pc}
 8001434:	f7ff ff0a 	bl	800124c <HAL_GetTick>
 8001438:	1bc0      	subs	r0, r0, r7
 800143a:	4286      	cmp	r6, r0
 800143c:	d2df      	bcs.n	80013fe <FLASH_WaitForLastOperation+0xe>
 800143e:	e7f7      	b.n	8001430 <FLASH_WaitForLastOperation+0x40>
 8001440:	40022000 	.word	0x40022000

08001444 <HAL_FLASH_Program>:
 8001444:	e92d 4ff8 	stmdb	sp!, {r3, r4, r5, r6, r7, r8, r9, sl, fp, lr}
 8001448:	4c1f      	ldr	r4, [pc, #124]	; (80014c8 <HAL_FLASH_Program+0x84>)
 800144a:	4699      	mov	r9, r3
 800144c:	7e23      	ldrb	r3, [r4, #24]
 800144e:	4605      	mov	r5, r0
 8001450:	2b01      	cmp	r3, #1
 8001452:	460f      	mov	r7, r1
 8001454:	4690      	mov	r8, r2
 8001456:	d033      	beq.n	80014c0 <HAL_FLASH_Program+0x7c>
 8001458:	2301      	movs	r3, #1
 800145a:	f24c 3050 	movw	r0, #50000	; 0xc350
 800145e:	7623      	strb	r3, [r4, #24]
 8001460:	f7ff ffc6 	bl	80013f0 <FLASH_WaitForLastOperation>
 8001464:	bb40      	cbnz	r0, 80014b8 <HAL_FLASH_Program+0x74>
 8001466:	2d01      	cmp	r5, #1
 8001468:	d003      	beq.n	8001472 <HAL_FLASH_Program+0x2e>
 800146a:	2d02      	cmp	r5, #2
 800146c:	bf0c      	ite	eq
 800146e:	2502      	moveq	r5, #2
 8001470:	2504      	movne	r5, #4
 8001472:	2600      	movs	r6, #0
 8001474:	46b2      	mov	sl, r6
 8001476:	f8df b054 	ldr.w	fp, [pc, #84]	; 80014cc <HAL_FLASH_Program+0x88>
 800147a:	0132      	lsls	r2, r6, #4
 800147c:	4640      	mov	r0, r8
 800147e:	4649      	mov	r1, r9
 8001480:	f7fe fe66 	bl	8000150 <__aeabi_llsr>
 8001484:	f8c4 a01c 	str.w	sl, [r4, #28]
 8001488:	f8db 3010 	ldr.w	r3, [fp, #16]
 800148c:	b280      	uxth	r0, r0
 800148e:	f043 0301 	orr.w	r3, r3, #1
 8001492:	f8cb 3010 	str.w	r3, [fp, #16]
 8001496:	f827 0016 	strh.w	r0, [r7, r6, lsl #1]
 800149a:	f24c 3050 	movw	r0, #50000	; 0xc350
 800149e:	f7ff ffa7 	bl	80013f0 <FLASH_WaitForLastOperation>
 80014a2:	f8db 3010 	ldr.w	r3, [fp, #16]
 80014a6:	f023 0301 	bic.w	r3, r3, #1
 80014aa:	f8cb 3010 	str.w	r3, [fp, #16]
 80014ae:	b918      	cbnz	r0, 80014b8 <HAL_FLASH_Program+0x74>
 80014b0:	3601      	adds	r6, #1
 80014b2:	b2f3      	uxtb	r3, r6
 80014b4:	429d      	cmp	r5, r3
 80014b6:	d8e0      	bhi.n	800147a <HAL_FLASH_Program+0x36>
 80014b8:	2300      	movs	r3, #0
 80014ba:	7623      	strb	r3, [r4, #24]
 80014bc:	e8bd 8ff8 	ldmia.w	sp!, {r3, r4, r5, r6, r7, r8, r9, sl, fp, pc}
 80014c0:	2002      	movs	r0, #2
 80014c2:	e8bd 8ff8 	ldmia.w	sp!, {r3, r4, r5, r6, r7, r8, r9, sl, fp, pc}
 80014c6:	bf00      	nop
 80014c8:	200038b0 	.word	0x200038b0
 80014cc:	40022000 	.word	0x40022000

080014d0 <FLASH_PageErase>:
 80014d0:	2200      	movs	r2, #0
 80014d2:	4b06      	ldr	r3, [pc, #24]	; (80014ec <FLASH_PageErase+0x1c>)
 80014d4:	61da      	str	r2, [r3, #28]
 80014d6:	4b06      	ldr	r3, [pc, #24]	; (80014f0 <FLASH_PageErase+0x20>)
 80014d8:	691a      	ldr	r2, [r3, #16]
 80014da:	f042 0202 	orr.w	r2, r2, #2
 80014de:	611a      	str	r2, [r3, #16]
 80014e0:	6158      	str	r0, [r3, #20]
 80014e2:	691a      	ldr	r2, [r3, #16]
 80014e4:	f042 0240 	orr.w	r2, r2, #64	; 0x40
 80014e8:	611a      	str	r2, [r3, #16]
 80014ea:	4770      	bx	lr
 80014ec:	200038b0 	.word	0x200038b0
 80014f0:	40022000 	.word	0x40022000

080014f4 <HAL_GPIO_Init>:
 80014f4:	e92d 4ff7 	stmdb	sp!, {r0, r1, r2, r4, r5, r6, r7, r8, r9, sl, fp, lr}
 80014f8:	2200      	movs	r2, #0
 80014fa:	4616      	mov	r6, r2
 80014fc:	4b65      	ldr	r3, [pc, #404]	; (8001694 <HAL_GPIO_Init+0x1a0>)
 80014fe:	f8df e1a4 	ldr.w	lr, [pc, #420]	; 80016a4 <HAL_GPIO_Init+0x1b0>
 8001502:	f8df c1a4 	ldr.w	ip, [pc, #420]	; 80016a8 <HAL_GPIO_Init+0x1b4>
 8001506:	f04f 0801 	mov.w	r8, #1
 800150a:	680c      	ldr	r4, [r1, #0]
 800150c:	fa08 f806 	lsl.w	r8, r8, r6
 8001510:	ea08 0404 	and.w	r4, r8, r4
 8001514:	45a0      	cmp	r8, r4
 8001516:	d17f      	bne.n	8001618 <HAL_GPIO_Init+0x124>
 8001518:	684d      	ldr	r5, [r1, #4]
 800151a:	2d12      	cmp	r5, #18
 800151c:	f000 80af 	beq.w	800167e <HAL_GPIO_Init+0x18a>
 8001520:	f200 8088 	bhi.w	8001634 <HAL_GPIO_Init+0x140>
 8001524:	2d02      	cmp	r5, #2
 8001526:	f000 80a7 	beq.w	8001678 <HAL_GPIO_Init+0x184>
 800152a:	d87c      	bhi.n	8001626 <HAL_GPIO_Init+0x132>
 800152c:	2d00      	cmp	r5, #0
 800152e:	f000 808e 	beq.w	800164e <HAL_GPIO_Init+0x15a>
 8001532:	2d01      	cmp	r5, #1
 8001534:	f000 809e 	beq.w	8001674 <HAL_GPIO_Init+0x180>
 8001538:	f04f 090f 	mov.w	r9, #15
 800153c:	2cff      	cmp	r4, #255	; 0xff
 800153e:	bf93      	iteet	ls
 8001540:	4682      	movls	sl, r0
 8001542:	f106 4580 	addhi.w	r5, r6, #1073741824	; 0x40000000
 8001546:	3d08      	subhi	r5, #8
 8001548:	f8d0 b000 	ldrls.w	fp, [r0]
 800154c:	bf92      	itee	ls
 800154e:	00b5      	lslls	r5, r6, #2
 8001550:	f8d0 b004 	ldrhi.w	fp, [r0, #4]
 8001554:	00ad      	lslhi	r5, r5, #2
 8001556:	fa09 f805 	lsl.w	r8, r9, r5
 800155a:	ea2b 0808 	bic.w	r8, fp, r8
 800155e:	fa02 f505 	lsl.w	r5, r2, r5
 8001562:	bf88      	it	hi
 8001564:	f100 0a04 	addhi.w	sl, r0, #4
 8001568:	ea48 0505 	orr.w	r5, r8, r5
 800156c:	f8ca 5000 	str.w	r5, [sl]
 8001570:	f8d1 a004 	ldr.w	sl, [r1, #4]
 8001574:	f01a 5f80 	tst.w	sl, #268435456	; 0x10000000
 8001578:	d04e      	beq.n	8001618 <HAL_GPIO_Init+0x124>
 800157a:	4d47      	ldr	r5, [pc, #284]	; (8001698 <HAL_GPIO_Init+0x1a4>)
 800157c:	4f46      	ldr	r7, [pc, #280]	; (8001698 <HAL_GPIO_Init+0x1a4>)
 800157e:	69ad      	ldr	r5, [r5, #24]
 8001580:	f026 0803 	bic.w	r8, r6, #3
 8001584:	f045 0501 	orr.w	r5, r5, #1
 8001588:	61bd      	str	r5, [r7, #24]
 800158a:	69bd      	ldr	r5, [r7, #24]
 800158c:	f108 4880 	add.w	r8, r8, #1073741824	; 0x40000000
 8001590:	f005 0501 	and.w	r5, r5, #1
 8001594:	9501      	str	r5, [sp, #4]
 8001596:	f508 3880 	add.w	r8, r8, #65536	; 0x10000
 800159a:	f006 0b03 	and.w	fp, r6, #3
 800159e:	9d01      	ldr	r5, [sp, #4]
 80015a0:	ea4f 0b8b 	mov.w	fp, fp, lsl #2
 80015a4:	f8d8 5008 	ldr.w	r5, [r8, #8]
 80015a8:	fa09 f90b 	lsl.w	r9, r9, fp
 80015ac:	ea25 0909 	bic.w	r9, r5, r9
 80015b0:	4d3a      	ldr	r5, [pc, #232]	; (800169c <HAL_GPIO_Init+0x1a8>)
 80015b2:	42a8      	cmp	r0, r5
 80015b4:	d068      	beq.n	8001688 <HAL_GPIO_Init+0x194>
 80015b6:	f505 6580 	add.w	r5, r5, #1024	; 0x400
 80015ba:	42a8      	cmp	r0, r5
 80015bc:	d066      	beq.n	800168c <HAL_GPIO_Init+0x198>
 80015be:	f505 6580 	add.w	r5, r5, #1024	; 0x400
 80015c2:	42a8      	cmp	r0, r5
 80015c4:	d064      	beq.n	8001690 <HAL_GPIO_Init+0x19c>
 80015c6:	f505 6580 	add.w	r5, r5, #1024	; 0x400
 80015ca:	42a8      	cmp	r0, r5
 80015cc:	bf0c      	ite	eq
 80015ce:	2503      	moveq	r5, #3
 80015d0:	2504      	movne	r5, #4
 80015d2:	fa05 f50b 	lsl.w	r5, r5, fp
 80015d6:	ea45 0509 	orr.w	r5, r5, r9
 80015da:	f8c8 5008 	str.w	r5, [r8, #8]
 80015de:	681d      	ldr	r5, [r3, #0]
 80015e0:	f41a 3f80 	tst.w	sl, #65536	; 0x10000
 80015e4:	bf14      	ite	ne
 80015e6:	4325      	orrne	r5, r4
 80015e8:	43a5      	biceq	r5, r4
 80015ea:	601d      	str	r5, [r3, #0]
 80015ec:	685d      	ldr	r5, [r3, #4]
 80015ee:	f41a 3f00 	tst.w	sl, #131072	; 0x20000
 80015f2:	bf14      	ite	ne
 80015f4:	4325      	orrne	r5, r4
 80015f6:	43a5      	biceq	r5, r4
 80015f8:	605d      	str	r5, [r3, #4]
 80015fa:	689d      	ldr	r5, [r3, #8]
 80015fc:	f41a 1f80 	tst.w	sl, #1048576	; 0x100000
 8001600:	bf14      	ite	ne
 8001602:	4325      	orrne	r5, r4
 8001604:	43a5      	biceq	r5, r4
 8001606:	609d      	str	r5, [r3, #8]
 8001608:	68dd      	ldr	r5, [r3, #12]
 800160a:	f41a 1f00 	tst.w	sl, #2097152	; 0x200000
 800160e:	bf14      	ite	ne
 8001610:	432c      	orrne	r4, r5
 8001612:	ea25 0404 	biceq.w	r4, r5, r4
 8001616:	60dc      	str	r4, [r3, #12]
 8001618:	3601      	adds	r6, #1
 800161a:	2e10      	cmp	r6, #16
 800161c:	f47f af73 	bne.w	8001506 <HAL_GPIO_Init+0x12>
 8001620:	b003      	add	sp, #12
 8001622:	e8bd 8ff0 	ldmia.w	sp!, {r4, r5, r6, r7, r8, r9, sl, fp, pc}
 8001626:	2d03      	cmp	r5, #3
 8001628:	d022      	beq.n	8001670 <HAL_GPIO_Init+0x17c>
 800162a:	2d11      	cmp	r5, #17
 800162c:	d184      	bne.n	8001538 <HAL_GPIO_Init+0x44>
 800162e:	68ca      	ldr	r2, [r1, #12]
 8001630:	3204      	adds	r2, #4
 8001632:	e781      	b.n	8001538 <HAL_GPIO_Init+0x44>
 8001634:	4f1a      	ldr	r7, [pc, #104]	; (80016a0 <HAL_GPIO_Init+0x1ac>)
 8001636:	42bd      	cmp	r5, r7
 8001638:	d009      	beq.n	800164e <HAL_GPIO_Init+0x15a>
 800163a:	d812      	bhi.n	8001662 <HAL_GPIO_Init+0x16e>
 800163c:	f8df 906c 	ldr.w	r9, [pc, #108]	; 80016ac <HAL_GPIO_Init+0x1b8>
 8001640:	454d      	cmp	r5, r9
 8001642:	d004      	beq.n	800164e <HAL_GPIO_Init+0x15a>
 8001644:	f509 3980 	add.w	r9, r9, #65536	; 0x10000
 8001648:	454d      	cmp	r5, r9
 800164a:	f47f af75 	bne.w	8001538 <HAL_GPIO_Init+0x44>
 800164e:	688a      	ldr	r2, [r1, #8]
 8001650:	b1c2      	cbz	r2, 8001684 <HAL_GPIO_Init+0x190>
 8001652:	2a01      	cmp	r2, #1
 8001654:	bf0c      	ite	eq
 8001656:	f8c0 8010 	streq.w	r8, [r0, #16]
 800165a:	f8c0 8014 	strne.w	r8, [r0, #20]
 800165e:	2208      	movs	r2, #8
 8001660:	e76a      	b.n	8001538 <HAL_GPIO_Init+0x44>
 8001662:	4575      	cmp	r5, lr
 8001664:	d0f3      	beq.n	800164e <HAL_GPIO_Init+0x15a>
 8001666:	4565      	cmp	r5, ip
 8001668:	d0f1      	beq.n	800164e <HAL_GPIO_Init+0x15a>
 800166a:	f8df 9044 	ldr.w	r9, [pc, #68]	; 80016b0 <HAL_GPIO_Init+0x1bc>
 800166e:	e7eb      	b.n	8001648 <HAL_GPIO_Init+0x154>
 8001670:	2200      	movs	r2, #0
 8001672:	e761      	b.n	8001538 <HAL_GPIO_Init+0x44>
 8001674:	68ca      	ldr	r2, [r1, #12]
 8001676:	e75f      	b.n	8001538 <HAL_GPIO_Init+0x44>
 8001678:	68ca      	ldr	r2, [r1, #12]
 800167a:	3208      	adds	r2, #8
 800167c:	e75c      	b.n	8001538 <HAL_GPIO_Init+0x44>
 800167e:	68ca      	ldr	r2, [r1, #12]
 8001680:	320c      	adds	r2, #12
 8001682:	e759      	b.n	8001538 <HAL_GPIO_Init+0x44>
 8001684:	2204      	movs	r2, #4
 8001686:	e757      	b.n	8001538 <HAL_GPIO_Init+0x44>
 8001688:	2500      	movs	r5, #0
 800168a:	e7a2      	b.n	80015d2 <HAL_GPIO_Init+0xde>
 800168c:	2501      	movs	r5, #1
 800168e:	e7a0      	b.n	80015d2 <HAL_GPIO_Init+0xde>
 8001690:	2502      	movs	r5, #2
 8001692:	e79e      	b.n	80015d2 <HAL_GPIO_Init+0xde>
 8001694:	40010400 	.word	0x40010400
 8001698:	40021000 	.word	0x40021000
 800169c:	40010800 	.word	0x40010800
 80016a0:	10210000 	.word	0x10210000
 80016a4:	10310000 	.word	0x10310000
 80016a8:	10320000 	.word	0x10320000
 80016ac:	10110000 	.word	0x10110000
 80016b0:	10220000 	.word	0x10220000

080016b4 <HAL_GPIO_WritePin>:
 80016b4:	b10a      	cbz	r2, 80016ba <HAL_GPIO_WritePin+0x6>
 80016b6:	6101      	str	r1, [r0, #16]
 80016b8:	4770      	bx	lr
 80016ba:	0409      	lsls	r1, r1, #16
 80016bc:	e7fb      	b.n	80016b6 <HAL_GPIO_WritePin+0x2>

080016be <HAL_GPIO_EXTI_Callback>:
 80016be:	4770      	bx	lr

080016c0 <HAL_GPIO_EXTI_IRQHandler>:
 80016c0:	b508      	push	{r3, lr}
 80016c2:	4b04      	ldr	r3, [pc, #16]	; (80016d4 <HAL_GPIO_EXTI_IRQHandler+0x14>)
 80016c4:	6959      	ldr	r1, [r3, #20]
 80016c6:	4201      	tst	r1, r0
 80016c8:	d002      	beq.n	80016d0 <HAL_GPIO_EXTI_IRQHandler+0x10>
 80016ca:	6158      	str	r0, [r3, #20]
 80016cc:	f7ff fff7 	bl	80016be <HAL_GPIO_EXTI_Callback>
 80016d0:	bd08      	pop	{r3, pc}
 80016d2:	bf00      	nop
 80016d4:	40010400 	.word	0x40010400

080016d8 <HAL_RCC_OscConfig>:
 80016d8:	6803      	ldr	r3, [r0, #0]
 80016da:	e92d 41f3 	stmdb	sp!, {r0, r1, r4, r5, r6, r7, r8, lr}
 80016de:	07db      	lsls	r3, r3, #31
 80016e0:	4605      	mov	r5, r0
 80016e2:	d410      	bmi.n	8001706 <HAL_RCC_OscConfig+0x2e>
 80016e4:	682b      	ldr	r3, [r5, #0]
 80016e6:	079f      	lsls	r7, r3, #30
 80016e8:	d45e      	bmi.n	80017a8 <HAL_RCC_OscConfig+0xd0>
 80016ea:	682b      	ldr	r3, [r5, #0]
 80016ec:	0719      	lsls	r1, r3, #28
 80016ee:	f100 8095 	bmi.w	800181c <HAL_RCC_OscConfig+0x144>
 80016f2:	682b      	ldr	r3, [r5, #0]
 80016f4:	075a      	lsls	r2, r3, #29
 80016f6:	f100 80bf 	bmi.w	8001878 <HAL_RCC_OscConfig+0x1a0>
 80016fa:	69ea      	ldr	r2, [r5, #28]
 80016fc:	2a00      	cmp	r2, #0
 80016fe:	f040 812d 	bne.w	800195c <HAL_RCC_OscConfig+0x284>
 8001702:	2000      	movs	r0, #0
 8001704:	e014      	b.n	8001730 <HAL_RCC_OscConfig+0x58>
 8001706:	4c90      	ldr	r4, [pc, #576]	; (8001948 <HAL_RCC_OscConfig+0x270>)
 8001708:	6863      	ldr	r3, [r4, #4]
 800170a:	f003 030c 	and.w	r3, r3, #12
 800170e:	2b04      	cmp	r3, #4
 8001710:	d007      	beq.n	8001722 <HAL_RCC_OscConfig+0x4a>
 8001712:	6863      	ldr	r3, [r4, #4]
 8001714:	f003 030c 	and.w	r3, r3, #12
 8001718:	2b08      	cmp	r3, #8
 800171a:	d10c      	bne.n	8001736 <HAL_RCC_OscConfig+0x5e>
 800171c:	6863      	ldr	r3, [r4, #4]
 800171e:	03de      	lsls	r6, r3, #15
 8001720:	d509      	bpl.n	8001736 <HAL_RCC_OscConfig+0x5e>
 8001722:	6823      	ldr	r3, [r4, #0]
 8001724:	039c      	lsls	r4, r3, #14
 8001726:	d5dd      	bpl.n	80016e4 <HAL_RCC_OscConfig+0xc>
 8001728:	686b      	ldr	r3, [r5, #4]
 800172a:	2b00      	cmp	r3, #0
 800172c:	d1da      	bne.n	80016e4 <HAL_RCC_OscConfig+0xc>
 800172e:	2001      	movs	r0, #1
 8001730:	b002      	add	sp, #8
 8001732:	e8bd 81f0 	ldmia.w	sp!, {r4, r5, r6, r7, r8, pc}
 8001736:	686b      	ldr	r3, [r5, #4]
 8001738:	f5b3 3f80 	cmp.w	r3, #65536	; 0x10000
 800173c:	d110      	bne.n	8001760 <HAL_RCC_OscConfig+0x88>
 800173e:	6823      	ldr	r3, [r4, #0]
 8001740:	f443 3380 	orr.w	r3, r3, #65536	; 0x10000
 8001744:	6023      	str	r3, [r4, #0]
 8001746:	f7ff fd81 	bl	800124c <HAL_GetTick>
 800174a:	4606      	mov	r6, r0
 800174c:	6823      	ldr	r3, [r4, #0]
 800174e:	0398      	lsls	r0, r3, #14
 8001750:	d4c8      	bmi.n	80016e4 <HAL_RCC_OscConfig+0xc>
 8001752:	f7ff fd7b 	bl	800124c <HAL_GetTick>
 8001756:	1b80      	subs	r0, r0, r6
 8001758:	2864      	cmp	r0, #100	; 0x64
 800175a:	d9f7      	bls.n	800174c <HAL_RCC_OscConfig+0x74>
 800175c:	2003      	movs	r0, #3
 800175e:	e7e7      	b.n	8001730 <HAL_RCC_OscConfig+0x58>
 8001760:	b99b      	cbnz	r3, 800178a <HAL_RCC_OscConfig+0xb2>
 8001762:	6823      	ldr	r3, [r4, #0]
 8001764:	f423 3380 	bic.w	r3, r3, #65536	; 0x10000
 8001768:	6023      	str	r3, [r4, #0]
 800176a:	6823      	ldr	r3, [r4, #0]
 800176c:	f423 2380 	bic.w	r3, r3, #262144	; 0x40000
 8001770:	6023      	str	r3, [r4, #0]
 8001772:	f7ff fd6b 	bl	800124c <HAL_GetTick>
 8001776:	4606      	mov	r6, r0
 8001778:	6823      	ldr	r3, [r4, #0]
 800177a:	0399      	lsls	r1, r3, #14
 800177c:	d5b2      	bpl.n	80016e4 <HAL_RCC_OscConfig+0xc>
 800177e:	f7ff fd65 	bl	800124c <HAL_GetTick>
 8001782:	1b80      	subs	r0, r0, r6
 8001784:	2864      	cmp	r0, #100	; 0x64
 8001786:	d9f7      	bls.n	8001778 <HAL_RCC_OscConfig+0xa0>
 8001788:	e7e8      	b.n	800175c <HAL_RCC_OscConfig+0x84>
 800178a:	f5b3 2fa0 	cmp.w	r3, #327680	; 0x50000
 800178e:	6823      	ldr	r3, [r4, #0]
 8001790:	d103      	bne.n	800179a <HAL_RCC_OscConfig+0xc2>
 8001792:	f443 2380 	orr.w	r3, r3, #262144	; 0x40000
 8001796:	6023      	str	r3, [r4, #0]
 8001798:	e7d1      	b.n	800173e <HAL_RCC_OscConfig+0x66>
 800179a:	f423 3380 	bic.w	r3, r3, #65536	; 0x10000
 800179e:	6023      	str	r3, [r4, #0]
 80017a0:	6823      	ldr	r3, [r4, #0]
 80017a2:	f423 2380 	bic.w	r3, r3, #262144	; 0x40000
 80017a6:	e7cd      	b.n	8001744 <HAL_RCC_OscConfig+0x6c>
 80017a8:	4c67      	ldr	r4, [pc, #412]	; (8001948 <HAL_RCC_OscConfig+0x270>)
 80017aa:	6863      	ldr	r3, [r4, #4]
 80017ac:	f013 0f0c 	tst.w	r3, #12
 80017b0:	d007      	beq.n	80017c2 <HAL_RCC_OscConfig+0xea>
 80017b2:	6863      	ldr	r3, [r4, #4]
 80017b4:	f003 030c 	and.w	r3, r3, #12
 80017b8:	2b08      	cmp	r3, #8
 80017ba:	d110      	bne.n	80017de <HAL_RCC_OscConfig+0x106>
 80017bc:	6863      	ldr	r3, [r4, #4]
 80017be:	03da      	lsls	r2, r3, #15
 80017c0:	d40d      	bmi.n	80017de <HAL_RCC_OscConfig+0x106>
 80017c2:	6823      	ldr	r3, [r4, #0]
 80017c4:	079b      	lsls	r3, r3, #30
 80017c6:	d502      	bpl.n	80017ce <HAL_RCC_OscConfig+0xf6>
 80017c8:	692b      	ldr	r3, [r5, #16]
 80017ca:	2b01      	cmp	r3, #1
 80017cc:	d1af      	bne.n	800172e <HAL_RCC_OscConfig+0x56>
 80017ce:	6823      	ldr	r3, [r4, #0]
 80017d0:	696a      	ldr	r2, [r5, #20]
 80017d2:	f023 03f8 	bic.w	r3, r3, #248	; 0xf8
 80017d6:	ea43 03c2 	orr.w	r3, r3, r2, lsl #3
 80017da:	6023      	str	r3, [r4, #0]
 80017dc:	e785      	b.n	80016ea <HAL_RCC_OscConfig+0x12>
 80017de:	692a      	ldr	r2, [r5, #16]
 80017e0:	4b5a      	ldr	r3, [pc, #360]	; (800194c <HAL_RCC_OscConfig+0x274>)
 80017e2:	b16a      	cbz	r2, 8001800 <HAL_RCC_OscConfig+0x128>
 80017e4:	2201      	movs	r2, #1
 80017e6:	601a      	str	r2, [r3, #0]
 80017e8:	f7ff fd30 	bl	800124c <HAL_GetTick>
 80017ec:	4606      	mov	r6, r0
 80017ee:	6823      	ldr	r3, [r4, #0]
 80017f0:	079f      	lsls	r7, r3, #30
 80017f2:	d4ec      	bmi.n	80017ce <HAL_RCC_OscConfig+0xf6>
 80017f4:	f7ff fd2a 	bl	800124c <HAL_GetTick>
 80017f8:	1b80      	subs	r0, r0, r6
 80017fa:	2802      	cmp	r0, #2
 80017fc:	d9f7      	bls.n	80017ee <HAL_RCC_OscConfig+0x116>
 80017fe:	e7ad      	b.n	800175c <HAL_RCC_OscConfig+0x84>
 8001800:	601a      	str	r2, [r3, #0]
 8001802:	f7ff fd23 	bl	800124c <HAL_GetTick>
 8001806:	4606      	mov	r6, r0
 8001808:	6823      	ldr	r3, [r4, #0]
 800180a:	0798      	lsls	r0, r3, #30
 800180c:	f57f af6d 	bpl.w	80016ea <HAL_RCC_OscConfig+0x12>
 8001810:	f7ff fd1c 	bl	800124c <HAL_GetTick>
 8001814:	1b80      	subs	r0, r0, r6
 8001816:	2802      	cmp	r0, #2
 8001818:	d9f6      	bls.n	8001808 <HAL_RCC_OscConfig+0x130>
 800181a:	e79f      	b.n	800175c <HAL_RCC_OscConfig+0x84>
 800181c:	69aa      	ldr	r2, [r5, #24]
 800181e:	4c4a      	ldr	r4, [pc, #296]	; (8001948 <HAL_RCC_OscConfig+0x270>)
 8001820:	4b4b      	ldr	r3, [pc, #300]	; (8001950 <HAL_RCC_OscConfig+0x278>)
 8001822:	b1da      	cbz	r2, 800185c <HAL_RCC_OscConfig+0x184>
 8001824:	2201      	movs	r2, #1
 8001826:	601a      	str	r2, [r3, #0]
 8001828:	f7ff fd10 	bl	800124c <HAL_GetTick>
 800182c:	4606      	mov	r6, r0
 800182e:	6a63      	ldr	r3, [r4, #36]	; 0x24
 8001830:	079b      	lsls	r3, r3, #30
 8001832:	d50d      	bpl.n	8001850 <HAL_RCC_OscConfig+0x178>
 8001834:	f44f 52fa 	mov.w	r2, #8000	; 0x1f40
 8001838:	4b46      	ldr	r3, [pc, #280]	; (8001954 <HAL_RCC_OscConfig+0x27c>)
 800183a:	681b      	ldr	r3, [r3, #0]
 800183c:	fbb3 f3f2 	udiv	r3, r3, r2
 8001840:	9301      	str	r3, [sp, #4]
 8001842:	bf00      	nop
 8001844:	9b01      	ldr	r3, [sp, #4]
 8001846:	1e5a      	subs	r2, r3, #1
 8001848:	9201      	str	r2, [sp, #4]
 800184a:	2b00      	cmp	r3, #0
 800184c:	d1f9      	bne.n	8001842 <HAL_RCC_OscConfig+0x16a>
 800184e:	e750      	b.n	80016f2 <HAL_RCC_OscConfig+0x1a>
 8001850:	f7ff fcfc 	bl	800124c <HAL_GetTick>
 8001854:	1b80      	subs	r0, r0, r6
 8001856:	2802      	cmp	r0, #2
 8001858:	d9e9      	bls.n	800182e <HAL_RCC_OscConfig+0x156>
 800185a:	e77f      	b.n	800175c <HAL_RCC_OscConfig+0x84>
 800185c:	601a      	str	r2, [r3, #0]
 800185e:	f7ff fcf5 	bl	800124c <HAL_GetTick>
 8001862:	4606      	mov	r6, r0
 8001864:	6a63      	ldr	r3, [r4, #36]	; 0x24
 8001866:	079f      	lsls	r7, r3, #30
 8001868:	f57f af43 	bpl.w	80016f2 <HAL_RCC_OscConfig+0x1a>
 800186c:	f7ff fcee 	bl	800124c <HAL_GetTick>
 8001870:	1b80      	subs	r0, r0, r6
 8001872:	2802      	cmp	r0, #2
 8001874:	d9f6      	bls.n	8001864 <HAL_RCC_OscConfig+0x18c>
 8001876:	e771      	b.n	800175c <HAL_RCC_OscConfig+0x84>
 8001878:	4c33      	ldr	r4, [pc, #204]	; (8001948 <HAL_RCC_OscConfig+0x270>)
 800187a:	69e3      	ldr	r3, [r4, #28]
 800187c:	00d8      	lsls	r0, r3, #3
 800187e:	d424      	bmi.n	80018ca <HAL_RCC_OscConfig+0x1f2>
 8001880:	2701      	movs	r7, #1
 8001882:	69e3      	ldr	r3, [r4, #28]
 8001884:	f043 5380 	orr.w	r3, r3, #268435456	; 0x10000000
 8001888:	61e3      	str	r3, [r4, #28]
 800188a:	69e3      	ldr	r3, [r4, #28]
 800188c:	f003 5380 	and.w	r3, r3, #268435456	; 0x10000000
 8001890:	9300      	str	r3, [sp, #0]
 8001892:	9b00      	ldr	r3, [sp, #0]
 8001894:	4e30      	ldr	r6, [pc, #192]	; (8001958 <HAL_RCC_OscConfig+0x280>)
 8001896:	6833      	ldr	r3, [r6, #0]
 8001898:	05d9      	lsls	r1, r3, #23
 800189a:	d518      	bpl.n	80018ce <HAL_RCC_OscConfig+0x1f6>
 800189c:	68eb      	ldr	r3, [r5, #12]
 800189e:	2b01      	cmp	r3, #1
 80018a0:	d126      	bne.n	80018f0 <HAL_RCC_OscConfig+0x218>
 80018a2:	6a23      	ldr	r3, [r4, #32]
 80018a4:	f043 0301 	orr.w	r3, r3, #1
 80018a8:	6223      	str	r3, [r4, #32]
 80018aa:	f7ff fccf 	bl	800124c <HAL_GetTick>
 80018ae:	f241 3688 	movw	r6, #5000	; 0x1388
 80018b2:	4680      	mov	r8, r0
 80018b4:	6a23      	ldr	r3, [r4, #32]
 80018b6:	079b      	lsls	r3, r3, #30
 80018b8:	d53f      	bpl.n	800193a <HAL_RCC_OscConfig+0x262>
 80018ba:	2f00      	cmp	r7, #0
 80018bc:	f43f af1d 	beq.w	80016fa <HAL_RCC_OscConfig+0x22>
 80018c0:	69e3      	ldr	r3, [r4, #28]
 80018c2:	f023 5380 	bic.w	r3, r3, #268435456	; 0x10000000
 80018c6:	61e3      	str	r3, [r4, #28]
 80018c8:	e717      	b.n	80016fa <HAL_RCC_OscConfig+0x22>
 80018ca:	2700      	movs	r7, #0
 80018cc:	e7e2      	b.n	8001894 <HAL_RCC_OscConfig+0x1bc>
 80018ce:	6833      	ldr	r3, [r6, #0]
 80018d0:	f443 7380 	orr.w	r3, r3, #256	; 0x100
 80018d4:	6033      	str	r3, [r6, #0]
 80018d6:	f7ff fcb9 	bl	800124c <HAL_GetTick>
 80018da:	4680      	mov	r8, r0
 80018dc:	6833      	ldr	r3, [r6, #0]
 80018de:	05da      	lsls	r2, r3, #23
 80018e0:	d4dc      	bmi.n	800189c <HAL_RCC_OscConfig+0x1c4>
 80018e2:	f7ff fcb3 	bl	800124c <HAL_GetTick>
 80018e6:	eba0 0008 	sub.w	r0, r0, r8
 80018ea:	2864      	cmp	r0, #100	; 0x64
 80018ec:	d9f6      	bls.n	80018dc <HAL_RCC_OscConfig+0x204>
 80018ee:	e735      	b.n	800175c <HAL_RCC_OscConfig+0x84>
 80018f0:	b9ab      	cbnz	r3, 800191e <HAL_RCC_OscConfig+0x246>
 80018f2:	6a23      	ldr	r3, [r4, #32]
 80018f4:	f241 3888 	movw	r8, #5000	; 0x1388
 80018f8:	f023 0301 	bic.w	r3, r3, #1
 80018fc:	6223      	str	r3, [r4, #32]
 80018fe:	6a23      	ldr	r3, [r4, #32]
 8001900:	f023 0304 	bic.w	r3, r3, #4
 8001904:	6223      	str	r3, [r4, #32]
 8001906:	f7ff fca1 	bl	800124c <HAL_GetTick>
 800190a:	4606      	mov	r6, r0
 800190c:	6a23      	ldr	r3, [r4, #32]
 800190e:	0798      	lsls	r0, r3, #30
 8001910:	d5d3      	bpl.n	80018ba <HAL_RCC_OscConfig+0x1e2>
 8001912:	f7ff fc9b 	bl	800124c <HAL_GetTick>
 8001916:	1b80      	subs	r0, r0, r6
 8001918:	4540      	cmp	r0, r8
 800191a:	d9f7      	bls.n	800190c <HAL_RCC_OscConfig+0x234>
 800191c:	e71e      	b.n	800175c <HAL_RCC_OscConfig+0x84>
 800191e:	2b05      	cmp	r3, #5
 8001920:	6a23      	ldr	r3, [r4, #32]
 8001922:	d103      	bne.n	800192c <HAL_RCC_OscConfig+0x254>
 8001924:	f043 0304 	orr.w	r3, r3, #4
 8001928:	6223      	str	r3, [r4, #32]
 800192a:	e7ba      	b.n	80018a2 <HAL_RCC_OscConfig+0x1ca>
 800192c:	f023 0301 	bic.w	r3, r3, #1
 8001930:	6223      	str	r3, [r4, #32]
 8001932:	6a23      	ldr	r3, [r4, #32]
 8001934:	f023 0304 	bic.w	r3, r3, #4
 8001938:	e7b6      	b.n	80018a8 <HAL_RCC_OscConfig+0x1d0>
 800193a:	f7ff fc87 	bl	800124c <HAL_GetTick>
 800193e:	eba0 0008 	sub.w	r0, r0, r8
 8001942:	42b0      	cmp	r0, r6
 8001944:	d9b6      	bls.n	80018b4 <HAL_RCC_OscConfig+0x1dc>
 8001946:	e709      	b.n	800175c <HAL_RCC_OscConfig+0x84>
 8001948:	40021000 	.word	0x40021000
 800194c:	42420000 	.word	0x42420000
 8001950:	42420480 	.word	0x42420480
 8001954:	20000008 	.word	0x20000008
 8001958:	40007000 	.word	0x40007000
 800195c:	4c22      	ldr	r4, [pc, #136]	; (80019e8 <HAL_RCC_OscConfig+0x310>)
 800195e:	6863      	ldr	r3, [r4, #4]
 8001960:	f003 030c 	and.w	r3, r3, #12
 8001964:	2b08      	cmp	r3, #8
 8001966:	f43f aee2 	beq.w	800172e <HAL_RCC_OscConfig+0x56>
 800196a:	2300      	movs	r3, #0
 800196c:	4e1f      	ldr	r6, [pc, #124]	; (80019ec <HAL_RCC_OscConfig+0x314>)
 800196e:	2a02      	cmp	r2, #2
 8001970:	6033      	str	r3, [r6, #0]
 8001972:	d12b      	bne.n	80019cc <HAL_RCC_OscConfig+0x2f4>
 8001974:	f7ff fc6a 	bl	800124c <HAL_GetTick>
 8001978:	4607      	mov	r7, r0
 800197a:	6823      	ldr	r3, [r4, #0]
 800197c:	0199      	lsls	r1, r3, #6
 800197e:	d41f      	bmi.n	80019c0 <HAL_RCC_OscConfig+0x2e8>
 8001980:	6a2b      	ldr	r3, [r5, #32]
 8001982:	f5b3 3f80 	cmp.w	r3, #65536	; 0x10000
 8001986:	d105      	bne.n	8001994 <HAL_RCC_OscConfig+0x2bc>
 8001988:	6862      	ldr	r2, [r4, #4]
 800198a:	68a9      	ldr	r1, [r5, #8]
 800198c:	f422 3200 	bic.w	r2, r2, #131072	; 0x20000
 8001990:	430a      	orrs	r2, r1
 8001992:	6062      	str	r2, [r4, #4]
 8001994:	6a69      	ldr	r1, [r5, #36]	; 0x24
 8001996:	6862      	ldr	r2, [r4, #4]
 8001998:	430b      	orrs	r3, r1
 800199a:	f422 1274 	bic.w	r2, r2, #3997696	; 0x3d0000
 800199e:	4313      	orrs	r3, r2
 80019a0:	6063      	str	r3, [r4, #4]
 80019a2:	2301      	movs	r3, #1
 80019a4:	6033      	str	r3, [r6, #0]
 80019a6:	f7ff fc51 	bl	800124c <HAL_GetTick>
 80019aa:	4605      	mov	r5, r0
 80019ac:	6823      	ldr	r3, [r4, #0]
 80019ae:	019a      	lsls	r2, r3, #6
 80019b0:	f53f aea7 	bmi.w	8001702 <HAL_RCC_OscConfig+0x2a>
 80019b4:	f7ff fc4a 	bl	800124c <HAL_GetTick>
 80019b8:	1b40      	subs	r0, r0, r5
 80019ba:	2802      	cmp	r0, #2
 80019bc:	d9f6      	bls.n	80019ac <HAL_RCC_OscConfig+0x2d4>
 80019be:	e6cd      	b.n	800175c <HAL_RCC_OscConfig+0x84>
 80019c0:	f7ff fc44 	bl	800124c <HAL_GetTick>
 80019c4:	1bc0      	subs	r0, r0, r7
 80019c6:	2802      	cmp	r0, #2
 80019c8:	d9d7      	bls.n	800197a <HAL_RCC_OscConfig+0x2a2>
 80019ca:	e6c7      	b.n	800175c <HAL_RCC_OscConfig+0x84>
 80019cc:	f7ff fc3e 	bl	800124c <HAL_GetTick>
 80019d0:	4605      	mov	r5, r0
 80019d2:	6823      	ldr	r3, [r4, #0]
 80019d4:	019b      	lsls	r3, r3, #6
 80019d6:	f57f ae94 	bpl.w	8001702 <HAL_RCC_OscConfig+0x2a>
 80019da:	f7ff fc37 	bl	800124c <HAL_GetTick>
 80019de:	1b40      	subs	r0, r0, r5
 80019e0:	2802      	cmp	r0, #2
 80019e2:	d9f6      	bls.n	80019d2 <HAL_RCC_OscConfig+0x2fa>
 80019e4:	e6ba      	b.n	800175c <HAL_RCC_OscConfig+0x84>
 80019e6:	bf00      	nop
 80019e8:	40021000 	.word	0x40021000
 80019ec:	42420060 	.word	0x42420060

080019f0 <HAL_RCC_GetSysClockFreq>:
 80019f0:	b530      	push	{r4, r5, lr}
 80019f2:	4b19      	ldr	r3, [pc, #100]	; (8001a58 <HAL_RCC_GetSysClockFreq+0x68>)
 80019f4:	b087      	sub	sp, #28
 80019f6:	ac02      	add	r4, sp, #8
 80019f8:	f103 0510 	add.w	r5, r3, #16
 80019fc:	4622      	mov	r2, r4
 80019fe:	6818      	ldr	r0, [r3, #0]
 8001a00:	6859      	ldr	r1, [r3, #4]
 8001a02:	3308      	adds	r3, #8
 8001a04:	c203      	stmia	r2!, {r0, r1}
 8001a06:	42ab      	cmp	r3, r5
 8001a08:	4614      	mov	r4, r2
 8001a0a:	d1f7      	bne.n	80019fc <HAL_RCC_GetSysClockFreq+0xc>
 8001a0c:	2301      	movs	r3, #1
 8001a0e:	f88d 3004 	strb.w	r3, [sp, #4]
 8001a12:	2302      	movs	r3, #2
 8001a14:	4911      	ldr	r1, [pc, #68]	; (8001a5c <HAL_RCC_GetSysClockFreq+0x6c>)
 8001a16:	f88d 3005 	strb.w	r3, [sp, #5]
 8001a1a:	684b      	ldr	r3, [r1, #4]
 8001a1c:	f003 020c 	and.w	r2, r3, #12
 8001a20:	2a08      	cmp	r2, #8
 8001a22:	d117      	bne.n	8001a54 <HAL_RCC_GetSysClockFreq+0x64>
 8001a24:	f3c3 4283 	ubfx	r2, r3, #18, #4
 8001a28:	a806      	add	r0, sp, #24
 8001a2a:	4402      	add	r2, r0
 8001a2c:	03db      	lsls	r3, r3, #15
 8001a2e:	f812 2c10 	ldrb.w	r2, [r2, #-16]
 8001a32:	d50c      	bpl.n	8001a4e <HAL_RCC_GetSysClockFreq+0x5e>
 8001a34:	684b      	ldr	r3, [r1, #4]
 8001a36:	480a      	ldr	r0, [pc, #40]	; (8001a60 <HAL_RCC_GetSysClockFreq+0x70>)
 8001a38:	f3c3 4340 	ubfx	r3, r3, #17, #1
 8001a3c:	4350      	muls	r0, r2
 8001a3e:	aa06      	add	r2, sp, #24
 8001a40:	4413      	add	r3, r2
 8001a42:	f813 3c14 	ldrb.w	r3, [r3, #-20]
 8001a46:	fbb0 f0f3 	udiv	r0, r0, r3
 8001a4a:	b007      	add	sp, #28
 8001a4c:	bd30      	pop	{r4, r5, pc}
 8001a4e:	4805      	ldr	r0, [pc, #20]	; (8001a64 <HAL_RCC_GetSysClockFreq+0x74>)
 8001a50:	4350      	muls	r0, r2
 8001a52:	e7fa      	b.n	8001a4a <HAL_RCC_GetSysClockFreq+0x5a>
 8001a54:	4802      	ldr	r0, [pc, #8]	; (8001a60 <HAL_RCC_GetSysClockFreq+0x70>)
 8001a56:	e7f8      	b.n	8001a4a <HAL_RCC_GetSysClockFreq+0x5a>
 8001a58:	0800984c 	.word	0x0800984c
 8001a5c:	40021000 	.word	0x40021000
 8001a60:	007a1200 	.word	0x007a1200
 8001a64:	003d0900 	.word	0x003d0900

08001a68 <HAL_RCC_ClockConfig>:
 8001a68:	4a54      	ldr	r2, [pc, #336]	; (8001bbc <HAL_RCC_ClockConfig+0x154>)
 8001a6a:	e92d 41f0 	stmdb	sp!, {r4, r5, r6, r7, r8, lr}
 8001a6e:	6813      	ldr	r3, [r2, #0]
 8001a70:	4605      	mov	r5, r0
 8001a72:	f003 0307 	and.w	r3, r3, #7
 8001a76:	428b      	cmp	r3, r1
 8001a78:	460e      	mov	r6, r1
 8001a7a:	d32a      	bcc.n	8001ad2 <HAL_RCC_ClockConfig+0x6a>
 8001a7c:	6829      	ldr	r1, [r5, #0]
 8001a7e:	078c      	lsls	r4, r1, #30
 8001a80:	d434      	bmi.n	8001aec <HAL_RCC_ClockConfig+0x84>
 8001a82:	07ca      	lsls	r2, r1, #31
 8001a84:	d447      	bmi.n	8001b16 <HAL_RCC_ClockConfig+0xae>
 8001a86:	4a4d      	ldr	r2, [pc, #308]	; (8001bbc <HAL_RCC_ClockConfig+0x154>)
 8001a88:	6813      	ldr	r3, [r2, #0]
 8001a8a:	f003 0307 	and.w	r3, r3, #7
 8001a8e:	429e      	cmp	r6, r3
 8001a90:	f0c0 8082 	bcc.w	8001b98 <HAL_RCC_ClockConfig+0x130>
 8001a94:	682a      	ldr	r2, [r5, #0]
 8001a96:	4c4a      	ldr	r4, [pc, #296]	; (8001bc0 <HAL_RCC_ClockConfig+0x158>)
 8001a98:	f012 0f04 	tst.w	r2, #4
 8001a9c:	f040 8087 	bne.w	8001bae <HAL_RCC_ClockConfig+0x146>
 8001aa0:	0713      	lsls	r3, r2, #28
 8001aa2:	d506      	bpl.n	8001ab2 <HAL_RCC_ClockConfig+0x4a>
 8001aa4:	6863      	ldr	r3, [r4, #4]
 8001aa6:	692a      	ldr	r2, [r5, #16]
 8001aa8:	f423 5360 	bic.w	r3, r3, #14336	; 0x3800
 8001aac:	ea43 03c2 	orr.w	r3, r3, r2, lsl #3
 8001ab0:	6063      	str	r3, [r4, #4]
 8001ab2:	f7ff ff9d 	bl	80019f0 <HAL_RCC_GetSysClockFreq>
 8001ab6:	6863      	ldr	r3, [r4, #4]
 8001ab8:	4a42      	ldr	r2, [pc, #264]	; (8001bc4 <HAL_RCC_ClockConfig+0x15c>)
 8001aba:	f3c3 1303 	ubfx	r3, r3, #4, #4
 8001abe:	5cd3      	ldrb	r3, [r2, r3]
 8001ac0:	40d8      	lsrs	r0, r3
 8001ac2:	4b41      	ldr	r3, [pc, #260]	; (8001bc8 <HAL_RCC_ClockConfig+0x160>)
 8001ac4:	6018      	str	r0, [r3, #0]
 8001ac6:	2000      	movs	r0, #0
 8001ac8:	f7ff fb7e 	bl	80011c8 <HAL_InitTick>
 8001acc:	2000      	movs	r0, #0
 8001ace:	e8bd 81f0 	ldmia.w	sp!, {r4, r5, r6, r7, r8, pc}
 8001ad2:	6813      	ldr	r3, [r2, #0]
 8001ad4:	f023 0307 	bic.w	r3, r3, #7
 8001ad8:	430b      	orrs	r3, r1
 8001ada:	6013      	str	r3, [r2, #0]
 8001adc:	6813      	ldr	r3, [r2, #0]
 8001ade:	f003 0307 	and.w	r3, r3, #7
 8001ae2:	4299      	cmp	r1, r3
 8001ae4:	d0ca      	beq.n	8001a7c <HAL_RCC_ClockConfig+0x14>
 8001ae6:	2001      	movs	r0, #1
 8001ae8:	e8bd 81f0 	ldmia.w	sp!, {r4, r5, r6, r7, r8, pc}
 8001aec:	4b34      	ldr	r3, [pc, #208]	; (8001bc0 <HAL_RCC_ClockConfig+0x158>)
 8001aee:	f011 0f04 	tst.w	r1, #4
 8001af2:	bf1e      	ittt	ne
 8001af4:	685a      	ldrne	r2, [r3, #4]
 8001af6:	f442 62e0 	orrne.w	r2, r2, #1792	; 0x700
 8001afa:	605a      	strne	r2, [r3, #4]
 8001afc:	0708      	lsls	r0, r1, #28
 8001afe:	bf42      	ittt	mi
 8001b00:	685a      	ldrmi	r2, [r3, #4]
 8001b02:	f442 5260 	orrmi.w	r2, r2, #14336	; 0x3800
 8001b06:	605a      	strmi	r2, [r3, #4]
 8001b08:	685a      	ldr	r2, [r3, #4]
 8001b0a:	68a8      	ldr	r0, [r5, #8]
 8001b0c:	f022 02f0 	bic.w	r2, r2, #240	; 0xf0
 8001b10:	4302      	orrs	r2, r0
 8001b12:	605a      	str	r2, [r3, #4]
 8001b14:	e7b5      	b.n	8001a82 <HAL_RCC_ClockConfig+0x1a>
 8001b16:	686a      	ldr	r2, [r5, #4]
 8001b18:	4c29      	ldr	r4, [pc, #164]	; (8001bc0 <HAL_RCC_ClockConfig+0x158>)
 8001b1a:	2a01      	cmp	r2, #1
 8001b1c:	6823      	ldr	r3, [r4, #0]
 8001b1e:	d11c      	bne.n	8001b5a <HAL_RCC_ClockConfig+0xf2>
 8001b20:	f413 3f00 	tst.w	r3, #131072	; 0x20000
 8001b24:	d0df      	beq.n	8001ae6 <HAL_RCC_ClockConfig+0x7e>
 8001b26:	6863      	ldr	r3, [r4, #4]
 8001b28:	f241 3888 	movw	r8, #5000	; 0x1388
 8001b2c:	f023 0303 	bic.w	r3, r3, #3
 8001b30:	4313      	orrs	r3, r2
 8001b32:	6063      	str	r3, [r4, #4]
 8001b34:	f7ff fb8a 	bl	800124c <HAL_GetTick>
 8001b38:	686b      	ldr	r3, [r5, #4]
 8001b3a:	4607      	mov	r7, r0
 8001b3c:	2b01      	cmp	r3, #1
 8001b3e:	d114      	bne.n	8001b6a <HAL_RCC_ClockConfig+0x102>
 8001b40:	6863      	ldr	r3, [r4, #4]
 8001b42:	f003 030c 	and.w	r3, r3, #12
 8001b46:	2b04      	cmp	r3, #4
 8001b48:	d09d      	beq.n	8001a86 <HAL_RCC_ClockConfig+0x1e>
 8001b4a:	f7ff fb7f 	bl	800124c <HAL_GetTick>
 8001b4e:	1bc0      	subs	r0, r0, r7
 8001b50:	4540      	cmp	r0, r8
 8001b52:	d9f5      	bls.n	8001b40 <HAL_RCC_ClockConfig+0xd8>
 8001b54:	2003      	movs	r0, #3
 8001b56:	e8bd 81f0 	ldmia.w	sp!, {r4, r5, r6, r7, r8, pc}
 8001b5a:	2a02      	cmp	r2, #2
 8001b5c:	d102      	bne.n	8001b64 <HAL_RCC_ClockConfig+0xfc>
 8001b5e:	f013 7f00 	tst.w	r3, #33554432	; 0x2000000
 8001b62:	e7df      	b.n	8001b24 <HAL_RCC_ClockConfig+0xbc>
 8001b64:	f013 0f02 	tst.w	r3, #2
 8001b68:	e7dc      	b.n	8001b24 <HAL_RCC_ClockConfig+0xbc>
 8001b6a:	2b02      	cmp	r3, #2
 8001b6c:	d10f      	bne.n	8001b8e <HAL_RCC_ClockConfig+0x126>
 8001b6e:	6863      	ldr	r3, [r4, #4]
 8001b70:	f003 030c 	and.w	r3, r3, #12
 8001b74:	2b08      	cmp	r3, #8
 8001b76:	d086      	beq.n	8001a86 <HAL_RCC_ClockConfig+0x1e>
 8001b78:	f7ff fb68 	bl	800124c <HAL_GetTick>
 8001b7c:	1bc0      	subs	r0, r0, r7
 8001b7e:	4540      	cmp	r0, r8
 8001b80:	d9f5      	bls.n	8001b6e <HAL_RCC_ClockConfig+0x106>
 8001b82:	e7e7      	b.n	8001b54 <HAL_RCC_ClockConfig+0xec>
 8001b84:	f7ff fb62 	bl	800124c <HAL_GetTick>
 8001b88:	1bc0      	subs	r0, r0, r7
 8001b8a:	4540      	cmp	r0, r8
 8001b8c:	d8e2      	bhi.n	8001b54 <HAL_RCC_ClockConfig+0xec>
 8001b8e:	6863      	ldr	r3, [r4, #4]
 8001b90:	f013 0f0c 	tst.w	r3, #12
 8001b94:	d1f6      	bne.n	8001b84 <HAL_RCC_ClockConfig+0x11c>
 8001b96:	e776      	b.n	8001a86 <HAL_RCC_ClockConfig+0x1e>
 8001b98:	6813      	ldr	r3, [r2, #0]
 8001b9a:	f023 0307 	bic.w	r3, r3, #7
 8001b9e:	4333      	orrs	r3, r6
 8001ba0:	6013      	str	r3, [r2, #0]
 8001ba2:	6813      	ldr	r3, [r2, #0]
 8001ba4:	f003 0307 	and.w	r3, r3, #7
 8001ba8:	429e      	cmp	r6, r3
 8001baa:	d19c      	bne.n	8001ae6 <HAL_RCC_ClockConfig+0x7e>
 8001bac:	e772      	b.n	8001a94 <HAL_RCC_ClockConfig+0x2c>
 8001bae:	6863      	ldr	r3, [r4, #4]
 8001bb0:	68e9      	ldr	r1, [r5, #12]
 8001bb2:	f423 63e0 	bic.w	r3, r3, #1792	; 0x700
 8001bb6:	430b      	orrs	r3, r1
 8001bb8:	6063      	str	r3, [r4, #4]
 8001bba:	e771      	b.n	8001aa0 <HAL_RCC_ClockConfig+0x38>
 8001bbc:	40022000 	.word	0x40022000
 8001bc0:	40021000 	.word	0x40021000
 8001bc4:	0800985c 	.word	0x0800985c
 8001bc8:	20000008 	.word	0x20000008

08001bcc <LL_GPIO_Init>:
 8001bcc:	e92d 4ff0 	stmdb	sp!, {r4, r5, r6, r7, r8, r9, sl, fp, lr}
 8001bd0:	680d      	ldr	r5, [r1, #0]
 8001bd2:	f3c5 250f 	ubfx	r5, r5, #8, #16
 8001bd6:	fa95 f2a5 	rbit	r2, r5
 8001bda:	f04f 090f 	mov.w	r9, #15
 8001bde:	fab2 f282 	clz	r2, r2
 8001be2:	f04f 0803 	mov.w	r8, #3
 8001be6:	f04f 0c04 	mov.w	ip, #4
 8001bea:	f240 1e01 	movw	lr, #257	; 0x101
 8001bee:	fa35 f302 	lsrs.w	r3, r5, r2
 8001bf2:	d102      	bne.n	8001bfa <LL_GPIO_Init+0x2e>
 8001bf4:	2001      	movs	r0, #1
 8001bf6:	e8bd 8ff0 	ldmia.w	sp!, {r4, r5, r6, r7, r8, r9, sl, fp, pc}
 8001bfa:	2301      	movs	r3, #1
 8001bfc:	4093      	lsls	r3, r2
 8001bfe:	422b      	tst	r3, r5
 8001c00:	d063      	beq.n	8001cca <LL_GPIO_Init+0xfe>
 8001c02:	2a07      	cmp	r2, #7
 8001c04:	bf83      	ittte	hi
 8001c06:	f04f 1401 	movhi.w	r4, #65537	; 0x10001
 8001c0a:	f1a2 0308 	subhi.w	r3, r2, #8
 8001c0e:	fa04 f303 	lslhi.w	r3, r4, r3
 8001c12:	fa0e f302 	lslls.w	r3, lr, r2
 8001c16:	bf88      	it	hi
 8001c18:	f043 6380 	orrhi.w	r3, r3, #67108864	; 0x4000000
 8001c1c:	0e1e      	lsrs	r6, r3, #24
 8001c1e:	fa93 faa3 	rbit	sl, r3
 8001c22:	faba fa8a 	clz	sl, sl
 8001c26:	fa93 fba3 	rbit	fp, r3
 8001c2a:	fabb fb8b 	clz	fp, fp
 8001c2e:	5984      	ldr	r4, [r0, r6]
 8001c30:	ea4f 0a8a 	mov.w	sl, sl, lsl #2
 8001c34:	fa09 fa0a 	lsl.w	sl, r9, sl
 8001c38:	ea24 0a0a 	bic.w	sl, r4, sl
 8001c3c:	684c      	ldr	r4, [r1, #4]
 8001c3e:	ea4f 0b8b 	mov.w	fp, fp, lsl #2
 8001c42:	fa04 fb0b 	lsl.w	fp, r4, fp
 8001c46:	ea4a 040b 	orr.w	r4, sl, fp
 8001c4a:	5184      	str	r4, [r0, r6]
 8001c4c:	68c4      	ldr	r4, [r0, #12]
 8001c4e:	ea4f 2a13 	mov.w	sl, r3, lsr #8
 8001c52:	fa9a fbaa 	rbit	fp, sl
 8001c56:	fabb fb8b 	clz	fp, fp
 8001c5a:	ea24 0a0a 	bic.w	sl, r4, sl
 8001c5e:	690c      	ldr	r4, [r1, #16]
 8001c60:	fa04 f40b 	lsl.w	r4, r4, fp
 8001c64:	ea4a 0404 	orr.w	r4, sl, r4
 8001c68:	60c4      	str	r4, [r0, #12]
 8001c6a:	684c      	ldr	r4, [r1, #4]
 8001c6c:	f024 0408 	bic.w	r4, r4, #8
 8001c70:	2c01      	cmp	r4, #1
 8001c72:	d12a      	bne.n	8001cca <LL_GPIO_Init+0xfe>
 8001c74:	fa93 faa3 	rbit	sl, r3
 8001c78:	faba fa8a 	clz	sl, sl
 8001c7c:	fa93 f4a3 	rbit	r4, r3
 8001c80:	fab4 f484 	clz	r4, r4
 8001c84:	5987      	ldr	r7, [r0, r6]
 8001c86:	ea4f 0b84 	mov.w	fp, r4, lsl #2
 8001c8a:	ea4f 0a8a 	mov.w	sl, sl, lsl #2
 8001c8e:	688c      	ldr	r4, [r1, #8]
 8001c90:	fa08 fa0a 	lsl.w	sl, r8, sl
 8001c94:	ea27 0a0a 	bic.w	sl, r7, sl
 8001c98:	fa04 f40b 	lsl.w	r4, r4, fp
 8001c9c:	ea4a 0404 	orr.w	r4, sl, r4
 8001ca0:	5184      	str	r4, [r0, r6]
 8001ca2:	fa93 fba3 	rbit	fp, r3
 8001ca6:	fabb fb8b 	clz	fp, fp
 8001caa:	fa93 f3a3 	rbit	r3, r3
 8001cae:	fab3 f383 	clz	r3, r3
 8001cb2:	68cf      	ldr	r7, [r1, #12]
 8001cb4:	ea4f 0b8b 	mov.w	fp, fp, lsl #2
 8001cb8:	fa0c fb0b 	lsl.w	fp, ip, fp
 8001cbc:	009b      	lsls	r3, r3, #2
 8001cbe:	ea24 040b 	bic.w	r4, r4, fp
 8001cc2:	fa07 f303 	lsl.w	r3, r7, r3
 8001cc6:	431c      	orrs	r4, r3
 8001cc8:	5184      	str	r4, [r0, r6]
 8001cca:	3201      	adds	r2, #1
 8001ccc:	e78f      	b.n	8001bee <LL_GPIO_Init+0x22>
	...

08001cd0 <RCC_GetHCLKClockFreq>:
 8001cd0:	4b03      	ldr	r3, [pc, #12]	; (8001ce0 <RCC_GetHCLKClockFreq+0x10>)
 8001cd2:	4a04      	ldr	r2, [pc, #16]	; (8001ce4 <RCC_GetHCLKClockFreq+0x14>)
 8001cd4:	685b      	ldr	r3, [r3, #4]
 8001cd6:	f3c3 1303 	ubfx	r3, r3, #4, #4
 8001cda:	5cd3      	ldrb	r3, [r2, r3]
 8001cdc:	40d8      	lsrs	r0, r3
 8001cde:	4770      	bx	lr
 8001ce0:	40021000 	.word	0x40021000
 8001ce4:	0800985c 	.word	0x0800985c

08001ce8 <RCC_GetPCLK1ClockFreq>:
 8001ce8:	4b03      	ldr	r3, [pc, #12]	; (8001cf8 <RCC_GetPCLK1ClockFreq+0x10>)
 8001cea:	4a04      	ldr	r2, [pc, #16]	; (8001cfc <RCC_GetPCLK1ClockFreq+0x14>)
 8001cec:	685b      	ldr	r3, [r3, #4]
 8001cee:	f3c3 2302 	ubfx	r3, r3, #8, #3
 8001cf2:	5cd3      	ldrb	r3, [r2, r3]
 8001cf4:	40d8      	lsrs	r0, r3
 8001cf6:	4770      	bx	lr
 8001cf8:	40021000 	.word	0x40021000
 8001cfc:	0800986c 	.word	0x0800986c

08001d00 <RCC_GetPCLK2ClockFreq>:
 8001d00:	4b03      	ldr	r3, [pc, #12]	; (8001d10 <RCC_GetPCLK2ClockFreq+0x10>)
 8001d02:	4a04      	ldr	r2, [pc, #16]	; (8001d14 <RCC_GetPCLK2ClockFreq+0x14>)
 8001d04:	685b      	ldr	r3, [r3, #4]
 8001d06:	f3c3 23c2 	ubfx	r3, r3, #11, #3
 8001d0a:	5cd3      	ldrb	r3, [r2, r3]
 8001d0c:	40d8      	lsrs	r0, r3
 8001d0e:	4770      	bx	lr
 8001d10:	40021000 	.word	0x40021000
 8001d14:	0800986c 	.word	0x0800986c

08001d18 <RCC_PLL_GetFreqDomain_SYS>:
 8001d18:	4b09      	ldr	r3, [pc, #36]	; (8001d40 <RCC_PLL_GetFreqDomain_SYS+0x28>)
 8001d1a:	685a      	ldr	r2, [r3, #4]
 8001d1c:	f402 3280 	and.w	r2, r2, #65536	; 0x10000
 8001d20:	b162      	cbz	r2, 8001d3c <RCC_PLL_GetFreqDomain_SYS+0x24>
 8001d22:	6858      	ldr	r0, [r3, #4]
 8001d24:	4a07      	ldr	r2, [pc, #28]	; (8001d44 <RCC_PLL_GetFreqDomain_SYS+0x2c>)
 8001d26:	f3c0 4040 	ubfx	r0, r0, #17, #1
 8001d2a:	3001      	adds	r0, #1
 8001d2c:	fbb2 f0f0 	udiv	r0, r2, r0
 8001d30:	685b      	ldr	r3, [r3, #4]
 8001d32:	f3c3 4383 	ubfx	r3, r3, #18, #4
 8001d36:	3302      	adds	r3, #2
 8001d38:	4358      	muls	r0, r3
 8001d3a:	4770      	bx	lr
 8001d3c:	4802      	ldr	r0, [pc, #8]	; (8001d48 <RCC_PLL_GetFreqDomain_SYS+0x30>)
 8001d3e:	e7f7      	b.n	8001d30 <RCC_PLL_GetFreqDomain_SYS+0x18>
 8001d40:	40021000 	.word	0x40021000
 8001d44:	007a1200 	.word	0x007a1200
 8001d48:	003d0900 	.word	0x003d0900

08001d4c <RCC_GetSystemClockFreq>:
 8001d4c:	4b04      	ldr	r3, [pc, #16]	; (8001d60 <RCC_GetSystemClockFreq+0x14>)
 8001d4e:	685b      	ldr	r3, [r3, #4]
 8001d50:	f003 030c 	and.w	r3, r3, #12
 8001d54:	2b08      	cmp	r3, #8
 8001d56:	d101      	bne.n	8001d5c <RCC_GetSystemClockFreq+0x10>
 8001d58:	f7ff bfde 	b.w	8001d18 <RCC_PLL_GetFreqDomain_SYS>
 8001d5c:	4801      	ldr	r0, [pc, #4]	; (8001d64 <RCC_GetSystemClockFreq+0x18>)
 8001d5e:	4770      	bx	lr
 8001d60:	40021000 	.word	0x40021000
 8001d64:	007a1200 	.word	0x007a1200

08001d68 <LL_RCC_GetSystemClocksFreq>:
 8001d68:	b508      	push	{r3, lr}
 8001d6a:	4601      	mov	r1, r0
 8001d6c:	f7ff ffee 	bl	8001d4c <RCC_GetSystemClockFreq>
 8001d70:	6008      	str	r0, [r1, #0]
 8001d72:	f7ff ffad 	bl	8001cd0 <RCC_GetHCLKClockFreq>
 8001d76:	6048      	str	r0, [r1, #4]
 8001d78:	f7ff ffb6 	bl	8001ce8 <RCC_GetPCLK1ClockFreq>
 8001d7c:	6088      	str	r0, [r1, #8]
 8001d7e:	6848      	ldr	r0, [r1, #4]
 8001d80:	f7ff ffbe 	bl	8001d00 <RCC_GetPCLK2ClockFreq>
 8001d84:	60c8      	str	r0, [r1, #12]
 8001d86:	bd08      	pop	{r3, pc}

08001d88 <LL_TIM_Init>:
 8001d88:	4a1a      	ldr	r2, [pc, #104]	; (8001df4 <LL_TIM_Init+0x6c>)
 8001d8a:	6803      	ldr	r3, [r0, #0]
 8001d8c:	4290      	cmp	r0, r2
 8001d8e:	d00a      	beq.n	8001da6 <LL_TIM_Init+0x1e>
 8001d90:	f1b0 4f80 	cmp.w	r0, #1073741824	; 0x40000000
 8001d94:	d007      	beq.n	8001da6 <LL_TIM_Init+0x1e>
 8001d96:	f5a2 3294 	sub.w	r2, r2, #75776	; 0x12800
 8001d9a:	4290      	cmp	r0, r2
 8001d9c:	d003      	beq.n	8001da6 <LL_TIM_Init+0x1e>
 8001d9e:	f502 6280 	add.w	r2, r2, #1024	; 0x400
 8001da2:	4290      	cmp	r0, r2
 8001da4:	d115      	bne.n	8001dd2 <LL_TIM_Init+0x4a>
 8001da6:	684a      	ldr	r2, [r1, #4]
 8001da8:	f023 0370 	bic.w	r3, r3, #112	; 0x70
 8001dac:	4313      	orrs	r3, r2
 8001dae:	4a11      	ldr	r2, [pc, #68]	; (8001df4 <LL_TIM_Init+0x6c>)
 8001db0:	4290      	cmp	r0, r2
 8001db2:	d00a      	beq.n	8001dca <LL_TIM_Init+0x42>
 8001db4:	f1b0 4f80 	cmp.w	r0, #1073741824	; 0x40000000
 8001db8:	d007      	beq.n	8001dca <LL_TIM_Init+0x42>
 8001dba:	f5a2 3294 	sub.w	r2, r2, #75776	; 0x12800
 8001dbe:	4290      	cmp	r0, r2
 8001dc0:	d003      	beq.n	8001dca <LL_TIM_Init+0x42>
 8001dc2:	f502 6280 	add.w	r2, r2, #1024	; 0x400
 8001dc6:	4290      	cmp	r0, r2
 8001dc8:	d103      	bne.n	8001dd2 <LL_TIM_Init+0x4a>
 8001dca:	68ca      	ldr	r2, [r1, #12]
 8001dcc:	f423 7340 	bic.w	r3, r3, #768	; 0x300
 8001dd0:	4313      	orrs	r3, r2
 8001dd2:	6003      	str	r3, [r0, #0]
 8001dd4:	688b      	ldr	r3, [r1, #8]
 8001dd6:	62c3      	str	r3, [r0, #44]	; 0x2c
 8001dd8:	880b      	ldrh	r3, [r1, #0]
 8001dda:	6283      	str	r3, [r0, #40]	; 0x28
 8001ddc:	4b05      	ldr	r3, [pc, #20]	; (8001df4 <LL_TIM_Init+0x6c>)
 8001dde:	4298      	cmp	r0, r3
 8001de0:	bf04      	itt	eq
 8001de2:	7c0b      	ldrbeq	r3, [r1, #16]
 8001de4:	6303      	streq	r3, [r0, #48]	; 0x30
 8001de6:	6943      	ldr	r3, [r0, #20]
 8001de8:	f043 0301 	orr.w	r3, r3, #1
 8001dec:	6143      	str	r3, [r0, #20]
 8001dee:	2001      	movs	r0, #1
 8001df0:	4770      	bx	lr
 8001df2:	bf00      	nop
 8001df4:	40012c00 	.word	0x40012c00

08001df8 <LL_TIM_OC_Init>:
 8001df8:	2910      	cmp	r1, #16
 8001dfa:	b530      	push	{r4, r5, lr}
 8001dfc:	d05f      	beq.n	8001ebe <LL_TIM_OC_Init+0xc6>
 8001dfe:	d803      	bhi.n	8001e08 <LL_TIM_OC_Init+0x10>
 8001e00:	2901      	cmp	r1, #1
 8001e02:	d02c      	beq.n	8001e5e <LL_TIM_OC_Init+0x66>
 8001e04:	2000      	movs	r0, #0
 8001e06:	bd30      	pop	{r4, r5, pc}
 8001e08:	f5b1 7f80 	cmp.w	r1, #256	; 0x100
 8001e0c:	f000 8089 	beq.w	8001f22 <LL_TIM_OC_Init+0x12a>
 8001e10:	f5b1 5f80 	cmp.w	r1, #4096	; 0x1000
 8001e14:	d1f6      	bne.n	8001e04 <LL_TIM_OC_Init+0xc>
 8001e16:	6a03      	ldr	r3, [r0, #32]
 8001e18:	6815      	ldr	r5, [r2, #0]
 8001e1a:	f423 5380 	bic.w	r3, r3, #4096	; 0x1000
 8001e1e:	6203      	str	r3, [r0, #32]
 8001e20:	6a03      	ldr	r3, [r0, #32]
 8001e22:	6844      	ldr	r4, [r0, #4]
 8001e24:	69c1      	ldr	r1, [r0, #28]
 8001e26:	f423 5300 	bic.w	r3, r3, #8192	; 0x2000
 8001e2a:	f421 41e6 	bic.w	r1, r1, #29440	; 0x7300
 8001e2e:	ea41 2105 	orr.w	r1, r1, r5, lsl #8
 8001e32:	6915      	ldr	r5, [r2, #16]
 8001e34:	ea43 3305 	orr.w	r3, r3, r5, lsl #12
 8001e38:	6855      	ldr	r5, [r2, #4]
 8001e3a:	f423 5380 	bic.w	r3, r3, #4096	; 0x1000
 8001e3e:	ea43 3305 	orr.w	r3, r3, r5, lsl #12
 8001e42:	4d50      	ldr	r5, [pc, #320]	; (8001f84 <LL_TIM_OC_Init+0x18c>)
 8001e44:	42a8      	cmp	r0, r5
 8001e46:	bf04      	itt	eq
 8001e48:	6995      	ldreq	r5, [r2, #24]
 8001e4a:	f424 4480 	biceq.w	r4, r4, #16384	; 0x4000
 8001e4e:	68d2      	ldr	r2, [r2, #12]
 8001e50:	bf08      	it	eq
 8001e52:	ea44 1485 	orreq.w	r4, r4, r5, lsl #6
 8001e56:	6044      	str	r4, [r0, #4]
 8001e58:	61c1      	str	r1, [r0, #28]
 8001e5a:	6402      	str	r2, [r0, #64]	; 0x40
 8001e5c:	e02c      	b.n	8001eb8 <LL_TIM_OC_Init+0xc0>
 8001e5e:	6a03      	ldr	r3, [r0, #32]
 8001e60:	6815      	ldr	r5, [r2, #0]
 8001e62:	f023 0301 	bic.w	r3, r3, #1
 8001e66:	6203      	str	r3, [r0, #32]
 8001e68:	6a03      	ldr	r3, [r0, #32]
 8001e6a:	6841      	ldr	r1, [r0, #4]
 8001e6c:	6984      	ldr	r4, [r0, #24]
 8001e6e:	f023 0302 	bic.w	r3, r3, #2
 8001e72:	f024 0473 	bic.w	r4, r4, #115	; 0x73
 8001e76:	432c      	orrs	r4, r5
 8001e78:	6915      	ldr	r5, [r2, #16]
 8001e7a:	432b      	orrs	r3, r5
 8001e7c:	6855      	ldr	r5, [r2, #4]
 8001e7e:	f023 0301 	bic.w	r3, r3, #1
 8001e82:	432b      	orrs	r3, r5
 8001e84:	4d3f      	ldr	r5, [pc, #252]	; (8001f84 <LL_TIM_OC_Init+0x18c>)
 8001e86:	42a8      	cmp	r0, r5
 8001e88:	d112      	bne.n	8001eb0 <LL_TIM_OC_Init+0xb8>
 8001e8a:	6955      	ldr	r5, [r2, #20]
 8001e8c:	f023 0308 	bic.w	r3, r3, #8
 8001e90:	ea43 0385 	orr.w	r3, r3, r5, lsl #2
 8001e94:	6895      	ldr	r5, [r2, #8]
 8001e96:	f023 0304 	bic.w	r3, r3, #4
 8001e9a:	ea43 0385 	orr.w	r3, r3, r5, lsl #2
 8001e9e:	6995      	ldr	r5, [r2, #24]
 8001ea0:	f421 7180 	bic.w	r1, r1, #256	; 0x100
 8001ea4:	4329      	orrs	r1, r5
 8001ea6:	69d5      	ldr	r5, [r2, #28]
 8001ea8:	f421 7100 	bic.w	r1, r1, #512	; 0x200
 8001eac:	ea41 0145 	orr.w	r1, r1, r5, lsl #1
 8001eb0:	68d2      	ldr	r2, [r2, #12]
 8001eb2:	6041      	str	r1, [r0, #4]
 8001eb4:	6184      	str	r4, [r0, #24]
 8001eb6:	6342      	str	r2, [r0, #52]	; 0x34
 8001eb8:	6203      	str	r3, [r0, #32]
 8001eba:	2001      	movs	r0, #1
 8001ebc:	bd30      	pop	{r4, r5, pc}
 8001ebe:	6a03      	ldr	r3, [r0, #32]
 8001ec0:	6815      	ldr	r5, [r2, #0]
 8001ec2:	f023 0310 	bic.w	r3, r3, #16
 8001ec6:	6203      	str	r3, [r0, #32]
 8001ec8:	6a03      	ldr	r3, [r0, #32]
 8001eca:	6841      	ldr	r1, [r0, #4]
 8001ecc:	6984      	ldr	r4, [r0, #24]
 8001ece:	f023 0320 	bic.w	r3, r3, #32
 8001ed2:	f424 44e6 	bic.w	r4, r4, #29440	; 0x7300
 8001ed6:	ea44 2405 	orr.w	r4, r4, r5, lsl #8
 8001eda:	6915      	ldr	r5, [r2, #16]
 8001edc:	ea43 1305 	orr.w	r3, r3, r5, lsl #4
 8001ee0:	6855      	ldr	r5, [r2, #4]
 8001ee2:	f023 0310 	bic.w	r3, r3, #16
 8001ee6:	ea43 1305 	orr.w	r3, r3, r5, lsl #4
 8001eea:	4d26      	ldr	r5, [pc, #152]	; (8001f84 <LL_TIM_OC_Init+0x18c>)
 8001eec:	42a8      	cmp	r0, r5
 8001eee:	d113      	bne.n	8001f18 <LL_TIM_OC_Init+0x120>
 8001ef0:	6955      	ldr	r5, [r2, #20]
 8001ef2:	f023 0380 	bic.w	r3, r3, #128	; 0x80
 8001ef6:	ea43 1385 	orr.w	r3, r3, r5, lsl #6
 8001efa:	6895      	ldr	r5, [r2, #8]
 8001efc:	f023 0340 	bic.w	r3, r3, #64	; 0x40
 8001f00:	ea43 1385 	orr.w	r3, r3, r5, lsl #6
 8001f04:	6995      	ldr	r5, [r2, #24]
 8001f06:	f421 6180 	bic.w	r1, r1, #1024	; 0x400
 8001f0a:	ea41 0185 	orr.w	r1, r1, r5, lsl #2
 8001f0e:	69d5      	ldr	r5, [r2, #28]
 8001f10:	f421 6100 	bic.w	r1, r1, #2048	; 0x800
 8001f14:	ea41 01c5 	orr.w	r1, r1, r5, lsl #3
 8001f18:	68d2      	ldr	r2, [r2, #12]
 8001f1a:	6041      	str	r1, [r0, #4]
 8001f1c:	6184      	str	r4, [r0, #24]
 8001f1e:	6382      	str	r2, [r0, #56]	; 0x38
 8001f20:	e7ca      	b.n	8001eb8 <LL_TIM_OC_Init+0xc0>
 8001f22:	6a03      	ldr	r3, [r0, #32]
 8001f24:	6815      	ldr	r5, [r2, #0]
 8001f26:	f423 7380 	bic.w	r3, r3, #256	; 0x100
 8001f2a:	6203      	str	r3, [r0, #32]
 8001f2c:	6a03      	ldr	r3, [r0, #32]
 8001f2e:	6841      	ldr	r1, [r0, #4]
 8001f30:	69c4      	ldr	r4, [r0, #28]
 8001f32:	f423 7300 	bic.w	r3, r3, #512	; 0x200
 8001f36:	f024 0473 	bic.w	r4, r4, #115	; 0x73
 8001f3a:	432c      	orrs	r4, r5
 8001f3c:	6915      	ldr	r5, [r2, #16]
 8001f3e:	ea43 2305 	orr.w	r3, r3, r5, lsl #8
 8001f42:	6855      	ldr	r5, [r2, #4]
 8001f44:	f423 7380 	bic.w	r3, r3, #256	; 0x100
 8001f48:	ea43 2305 	orr.w	r3, r3, r5, lsl #8
 8001f4c:	4d0d      	ldr	r5, [pc, #52]	; (8001f84 <LL_TIM_OC_Init+0x18c>)
 8001f4e:	42a8      	cmp	r0, r5
 8001f50:	d113      	bne.n	8001f7a <LL_TIM_OC_Init+0x182>
 8001f52:	6955      	ldr	r5, [r2, #20]
 8001f54:	f423 6300 	bic.w	r3, r3, #2048	; 0x800
 8001f58:	ea43 2385 	orr.w	r3, r3, r5, lsl #10
 8001f5c:	6895      	ldr	r5, [r2, #8]
 8001f5e:	f423 6380 	bic.w	r3, r3, #1024	; 0x400
 8001f62:	ea43 2385 	orr.w	r3, r3, r5, lsl #10
 8001f66:	6995      	ldr	r5, [r2, #24]
 8001f68:	f421 5180 	bic.w	r1, r1, #4096	; 0x1000
 8001f6c:	ea41 1105 	orr.w	r1, r1, r5, lsl #4
 8001f70:	69d5      	ldr	r5, [r2, #28]
 8001f72:	f421 5100 	bic.w	r1, r1, #8192	; 0x2000
 8001f76:	ea41 1145 	orr.w	r1, r1, r5, lsl #5
 8001f7a:	68d2      	ldr	r2, [r2, #12]
 8001f7c:	6041      	str	r1, [r0, #4]
 8001f7e:	61c4      	str	r4, [r0, #28]
 8001f80:	63c2      	str	r2, [r0, #60]	; 0x3c
 8001f82:	e799      	b.n	8001eb8 <LL_TIM_OC_Init+0xc0>
 8001f84:	40012c00 	.word	0x40012c00

08001f88 <LL_TIM_BDTR_Init>:
 8001f88:	688a      	ldr	r2, [r1, #8]
 8001f8a:	7b0b      	ldrb	r3, [r1, #12]
 8001f8c:	4313      	orrs	r3, r2
 8001f8e:	684a      	ldr	r2, [r1, #4]
 8001f90:	f423 6380 	bic.w	r3, r3, #1024	; 0x400
 8001f94:	4313      	orrs	r3, r2
 8001f96:	680a      	ldr	r2, [r1, #0]
 8001f98:	f423 6300 	bic.w	r3, r3, #2048	; 0x800
 8001f9c:	4313      	orrs	r3, r2
 8001f9e:	89ca      	ldrh	r2, [r1, #14]
 8001fa0:	f423 5380 	bic.w	r3, r3, #4096	; 0x1000
 8001fa4:	4313      	orrs	r3, r2
 8001fa6:	690a      	ldr	r2, [r1, #16]
 8001fa8:	f423 5300 	bic.w	r3, r3, #8192	; 0x2000
 8001fac:	4313      	orrs	r3, r2
 8001fae:	694a      	ldr	r2, [r1, #20]
 8001fb0:	f423 4340 	bic.w	r3, r3, #49152	; 0xc000
 8001fb4:	4313      	orrs	r3, r2
 8001fb6:	6443      	str	r3, [r0, #68]	; 0x44
 8001fb8:	2001      	movs	r0, #1
 8001fba:	4770      	bx	lr

08001fbc <LL_USART_Init>:
 8001fbc:	b530      	push	{r4, r5, lr}
 8001fbe:	68c3      	ldr	r3, [r0, #12]
 8001fc0:	b085      	sub	sp, #20
 8001fc2:	049b      	lsls	r3, r3, #18
 8001fc4:	4604      	mov	r4, r0
 8001fc6:	460d      	mov	r5, r1
 8001fc8:	d502      	bpl.n	8001fd0 <LL_USART_Init+0x14>
 8001fca:	2000      	movs	r0, #0
 8001fcc:	b005      	add	sp, #20
 8001fce:	bd30      	pop	{r4, r5, pc}
 8001fd0:	684b      	ldr	r3, [r1, #4]
 8001fd2:	68c9      	ldr	r1, [r1, #12]
 8001fd4:	68c2      	ldr	r2, [r0, #12]
 8001fd6:	430b      	orrs	r3, r1
 8001fd8:	6929      	ldr	r1, [r5, #16]
 8001fda:	f422 52b0 	bic.w	r2, r2, #5632	; 0x1600
 8001fde:	430b      	orrs	r3, r1
 8001fe0:	f022 020c 	bic.w	r2, r2, #12
 8001fe4:	4313      	orrs	r3, r2
 8001fe6:	60c3      	str	r3, [r0, #12]
 8001fe8:	6903      	ldr	r3, [r0, #16]
 8001fea:	68aa      	ldr	r2, [r5, #8]
 8001fec:	f423 5340 	bic.w	r3, r3, #12288	; 0x3000
 8001ff0:	4313      	orrs	r3, r2
 8001ff2:	6103      	str	r3, [r0, #16]
 8001ff4:	6943      	ldr	r3, [r0, #20]
 8001ff6:	696a      	ldr	r2, [r5, #20]
 8001ff8:	f423 7340 	bic.w	r3, r3, #768	; 0x300
 8001ffc:	4313      	orrs	r3, r2
 8001ffe:	6143      	str	r3, [r0, #20]
 8002000:	4668      	mov	r0, sp
 8002002:	f7ff feb1 	bl	8001d68 <LL_RCC_GetSystemClocksFreq>
 8002006:	4b13      	ldr	r3, [pc, #76]	; (8002054 <LL_USART_Init+0x98>)
 8002008:	429c      	cmp	r4, r3
 800200a:	d119      	bne.n	8002040 <LL_USART_Init+0x84>
 800200c:	9903      	ldr	r1, [sp, #12]
 800200e:	2900      	cmp	r1, #0
 8002010:	d0db      	beq.n	8001fca <LL_USART_Init+0xe>
 8002012:	682a      	ldr	r2, [r5, #0]
 8002014:	2a00      	cmp	r2, #0
 8002016:	d0d8      	beq.n	8001fca <LL_USART_Init+0xe>
 8002018:	2319      	movs	r3, #25
 800201a:	434b      	muls	r3, r1
 800201c:	0092      	lsls	r2, r2, #2
 800201e:	fbb3 f3f2 	udiv	r3, r3, r2
 8002022:	2264      	movs	r2, #100	; 0x64
 8002024:	fbb3 f1f2 	udiv	r1, r3, r2
 8002028:	fb02 3311 	mls	r3, r2, r1, r3
 800202c:	011b      	lsls	r3, r3, #4
 800202e:	3332      	adds	r3, #50	; 0x32
 8002030:	fbb3 f3f2 	udiv	r3, r3, r2
 8002034:	eb03 1301 	add.w	r3, r3, r1, lsl #4
 8002038:	b29b      	uxth	r3, r3
 800203a:	60a3      	str	r3, [r4, #8]
 800203c:	2001      	movs	r0, #1
 800203e:	e7c5      	b.n	8001fcc <LL_USART_Init+0x10>
 8002040:	4b05      	ldr	r3, [pc, #20]	; (8002058 <LL_USART_Init+0x9c>)
 8002042:	429c      	cmp	r4, r3
 8002044:	d101      	bne.n	800204a <LL_USART_Init+0x8e>
 8002046:	9902      	ldr	r1, [sp, #8]
 8002048:	e7e1      	b.n	800200e <LL_USART_Init+0x52>
 800204a:	4b04      	ldr	r3, [pc, #16]	; (800205c <LL_USART_Init+0xa0>)
 800204c:	429c      	cmp	r4, r3
 800204e:	d1bc      	bne.n	8001fca <LL_USART_Init+0xe>
 8002050:	e7f9      	b.n	8002046 <LL_USART_Init+0x8a>
 8002052:	bf00      	nop
 8002054:	40013800 	.word	0x40013800
 8002058:	40004400 	.word	0x40004400
 800205c:	40004800 	.word	0x40004800

08002060 <MX_GPIO_Init>:
 8002060:	2210      	movs	r2, #16
 8002062:	e92d 4ff0 	stmdb	sp!, {r4, r5, r6, r7, r8, r9, sl, fp, lr}
 8002066:	b089      	sub	sp, #36	; 0x24
 8002068:	eb0d 0002 	add.w	r0, sp, r2
 800206c:	2100      	movs	r1, #0
 800206e:	f005 fc78 	bl	8007962 <memset>
 8002072:	4b44      	ldr	r3, [pc, #272]	; (8002184 <MX_GPIO_Init+0x124>)
 8002074:	f8df 9118 	ldr.w	r9, [pc, #280]	; 8002190 <MX_GPIO_Init+0x130>
 8002078:	699a      	ldr	r2, [r3, #24]
 800207a:	f8df 8118 	ldr.w	r8, [pc, #280]	; 8002194 <MX_GPIO_Init+0x134>
 800207e:	f042 0210 	orr.w	r2, r2, #16
 8002082:	619a      	str	r2, [r3, #24]
 8002084:	699a      	ldr	r2, [r3, #24]
 8002086:	4f40      	ldr	r7, [pc, #256]	; (8002188 <MX_GPIO_Init+0x128>)
 8002088:	f002 0210 	and.w	r2, r2, #16
 800208c:	9200      	str	r2, [sp, #0]
 800208e:	9a00      	ldr	r2, [sp, #0]
 8002090:	699a      	ldr	r2, [r3, #24]
 8002092:	4648      	mov	r0, r9
 8002094:	f042 0220 	orr.w	r2, r2, #32
 8002098:	619a      	str	r2, [r3, #24]
 800209a:	699a      	ldr	r2, [r3, #24]
 800209c:	f44f 4160 	mov.w	r1, #57344	; 0xe000
 80020a0:	f002 0220 	and.w	r2, r2, #32
 80020a4:	9201      	str	r2, [sp, #4]
 80020a6:	9a01      	ldr	r2, [sp, #4]
 80020a8:	699a      	ldr	r2, [r3, #24]
 80020aa:	2501      	movs	r5, #1
 80020ac:	f042 0204 	orr.w	r2, r2, #4
 80020b0:	619a      	str	r2, [r3, #24]
 80020b2:	699a      	ldr	r2, [r3, #24]
 80020b4:	2603      	movs	r6, #3
 80020b6:	f002 0204 	and.w	r2, r2, #4
 80020ba:	9202      	str	r2, [sp, #8]
 80020bc:	9a02      	ldr	r2, [sp, #8]
 80020be:	699a      	ldr	r2, [r3, #24]
 80020c0:	f04f 0a02 	mov.w	sl, #2
 80020c4:	f042 0208 	orr.w	r2, r2, #8
 80020c8:	619a      	str	r2, [r3, #24]
 80020ca:	699b      	ldr	r3, [r3, #24]
 80020cc:	2200      	movs	r2, #0
 80020ce:	f003 0308 	and.w	r3, r3, #8
 80020d2:	9303      	str	r3, [sp, #12]
 80020d4:	9b03      	ldr	r3, [sp, #12]
 80020d6:	f7ff faed 	bl	80016b4 <HAL_GPIO_WritePin>
 80020da:	4640      	mov	r0, r8
 80020dc:	2200      	movs	r2, #0
 80020de:	f641 61ff 	movw	r1, #7935	; 0x1eff
 80020e2:	f7ff fae7 	bl	80016b4 <HAL_GPIO_WritePin>
 80020e6:	2200      	movs	r2, #0
 80020e8:	4638      	mov	r0, r7
 80020ea:	f44f 7148 	mov.w	r1, #800	; 0x320
 80020ee:	f7ff fae1 	bl	80016b4 <HAL_GPIO_WritePin>
 80020f2:	f44f 43c0 	mov.w	r3, #24576	; 0x6000
 80020f6:	2400      	movs	r4, #0
 80020f8:	f44f 4b00 	mov.w	fp, #32768	; 0x8000
 80020fc:	a904      	add	r1, sp, #16
 80020fe:	4648      	mov	r0, r9
 8002100:	9304      	str	r3, [sp, #16]
 8002102:	9505      	str	r5, [sp, #20]
 8002104:	f8cd a018 	str.w	sl, [sp, #24]
 8002108:	9607      	str	r6, [sp, #28]
 800210a:	f7ff f9f3 	bl	80014f4 <HAL_GPIO_Init>
 800210e:	a904      	add	r1, sp, #16
 8002110:	4648      	mov	r0, r9
 8002112:	f8cd b010 	str.w	fp, [sp, #16]
 8002116:	9505      	str	r5, [sp, #20]
 8002118:	9406      	str	r4, [sp, #24]
 800211a:	9607      	str	r6, [sp, #28]
 800211c:	f7ff f9ea 	bl	80014f4 <HAL_GPIO_Init>
 8002120:	f641 63ff 	movw	r3, #7935	; 0x1eff
 8002124:	a904      	add	r1, sp, #16
 8002126:	4640      	mov	r0, r8
 8002128:	9304      	str	r3, [sp, #16]
 800212a:	9505      	str	r5, [sp, #20]
 800212c:	9406      	str	r4, [sp, #24]
 800212e:	9607      	str	r6, [sp, #28]
 8002130:	f7ff f9e0 	bl	80014f4 <HAL_GPIO_Init>
 8002134:	f64f 431b 	movw	r3, #64539	; 0xfc1b
 8002138:	9304      	str	r3, [sp, #16]
 800213a:	4b14      	ldr	r3, [pc, #80]	; (800218c <MX_GPIO_Init+0x12c>)
 800213c:	a904      	add	r1, sp, #16
 800213e:	4638      	mov	r0, r7
 8002140:	9305      	str	r3, [sp, #20]
 8002142:	9506      	str	r5, [sp, #24]
 8002144:	f7ff f9d6 	bl	80014f4 <HAL_GPIO_Init>
 8002148:	a904      	add	r1, sp, #16
 800214a:	4640      	mov	r0, r8
 800214c:	f8cd b010 	str.w	fp, [sp, #16]
 8002150:	9405      	str	r4, [sp, #20]
 8002152:	f8cd a018 	str.w	sl, [sp, #24]
 8002156:	f7ff f9cd 	bl	80014f4 <HAL_GPIO_Init>
 800215a:	f44f 7348 	mov.w	r3, #800	; 0x320
 800215e:	a904      	add	r1, sp, #16
 8002160:	4638      	mov	r0, r7
 8002162:	9304      	str	r3, [sp, #16]
 8002164:	9505      	str	r5, [sp, #20]
 8002166:	9406      	str	r4, [sp, #24]
 8002168:	9607      	str	r6, [sp, #28]
 800216a:	f7ff f9c3 	bl	80014f4 <HAL_GPIO_Init>
 800216e:	4622      	mov	r2, r4
 8002170:	4621      	mov	r1, r4
 8002172:	2028      	movs	r0, #40	; 0x28
 8002174:	f7ff f894 	bl	80012a0 <HAL_NVIC_SetPriority>
 8002178:	2028      	movs	r0, #40	; 0x28
 800217a:	f7ff f8c5 	bl	8001308 <HAL_NVIC_EnableIRQ>
 800217e:	b009      	add	sp, #36	; 0x24
 8002180:	e8bd 8ff0 	ldmia.w	sp!, {r4, r5, r6, r7, r8, r9, sl, fp, pc}
 8002184:	40021000 	.word	0x40021000
 8002188:	40010c00 	.word	0x40010c00
 800218c:	10210000 	.word	0x10210000
 8002190:	40011000 	.word	0x40011000
 8002194:	40010800 	.word	0x40010800

08002198 <SystemClock_Config>:
 8002198:	b510      	push	{r4, lr}
 800219a:	b090      	sub	sp, #64	; 0x40
 800219c:	2228      	movs	r2, #40	; 0x28
 800219e:	2100      	movs	r1, #0
 80021a0:	a806      	add	r0, sp, #24
 80021a2:	f005 fbde 	bl	8007962 <memset>
 80021a6:	2100      	movs	r1, #0
 80021a8:	2214      	movs	r2, #20
 80021aa:	a801      	add	r0, sp, #4
 80021ac:	f005 fbd9 	bl	8007962 <memset>
 80021b0:	f44f 3380 	mov.w	r3, #65536	; 0x10000
 80021b4:	2201      	movs	r2, #1
 80021b6:	2402      	movs	r4, #2
 80021b8:	9307      	str	r3, [sp, #28]
 80021ba:	930e      	str	r3, [sp, #56]	; 0x38
 80021bc:	f44f 1320 	mov.w	r3, #2621440	; 0x280000
 80021c0:	a806      	add	r0, sp, #24
 80021c2:	9206      	str	r2, [sp, #24]
 80021c4:	920a      	str	r2, [sp, #40]	; 0x28
 80021c6:	930f      	str	r3, [sp, #60]	; 0x3c
 80021c8:	940d      	str	r4, [sp, #52]	; 0x34
 80021ca:	f7ff fa85 	bl	80016d8 <HAL_RCC_OscConfig>
 80021ce:	230f      	movs	r3, #15
 80021d0:	f44f 6280 	mov.w	r2, #1024	; 0x400
 80021d4:	9301      	str	r3, [sp, #4]
 80021d6:	2300      	movs	r3, #0
 80021d8:	4621      	mov	r1, r4
 80021da:	a801      	add	r0, sp, #4
 80021dc:	9402      	str	r4, [sp, #8]
 80021de:	9303      	str	r3, [sp, #12]
 80021e0:	9204      	str	r2, [sp, #16]
 80021e2:	9305      	str	r3, [sp, #20]
 80021e4:	f7ff fc40 	bl	8001a68 <HAL_RCC_ClockConfig>
 80021e8:	b010      	add	sp, #64	; 0x40
 80021ea:	bd10      	pop	{r4, pc}

080021ec <main>:
 80021ec:	e92d 41f0 	stmdb	sp!, {r4, r5, r6, r7, r8, lr}
 80021f0:	f7ff f80e 	bl	8001210 <HAL_Init>
 80021f4:	2400      	movs	r4, #0
 80021f6:	f7ff ffcf 	bl	8002198 <SystemClock_Config>
 80021fa:	f7ff ff31 	bl	8002060 <MX_GPIO_Init>
 80021fe:	f000 f99f 	bl	8002540 <MX_TIM1_Init>
 8002202:	f000 fa97 	bl	8002734 <MX_USART1_UART_Init>
 8002206:	f000 fa15 	bl	8002634 <MX_TIM2_Init>
 800220a:	f000 fa53 	bl	80026b4 <MX_TIM3_Init>
 800220e:	2220      	movs	r2, #32
 8002210:	4b3f      	ldr	r3, [pc, #252]	; (8002310 <main+0x124>)
 8002212:	4621      	mov	r1, r4
 8002214:	68db      	ldr	r3, [r3, #12]
 8002216:	4b3f      	ldr	r3, [pc, #252]	; (8002314 <main+0x128>)
 8002218:	2006      	movs	r0, #6
 800221a:	f883 4325 	strb.w	r4, [r3, #805]	; 0x325
 800221e:	605a      	str	r2, [r3, #4]
 8002220:	4622      	mov	r2, r4
 8002222:	f7ff f83d 	bl	80012a0 <HAL_NVIC_SetPriority>
 8002226:	2006      	movs	r0, #6
 8002228:	f7ff f86e 	bl	8001308 <HAL_NVIC_EnableIRQ>
 800222c:	4622      	mov	r2, r4
 800222e:	4621      	mov	r1, r4
 8002230:	2007      	movs	r0, #7
 8002232:	f7ff f835 	bl	80012a0 <HAL_NVIC_SetPriority>
 8002236:	2007      	movs	r0, #7
 8002238:	f7ff f866 	bl	8001308 <HAL_NVIC_EnableIRQ>
 800223c:	4622      	mov	r2, r4
 800223e:	4621      	mov	r1, r4
 8002240:	2009      	movs	r0, #9
 8002242:	f7ff f82d 	bl	80012a0 <HAL_NVIC_SetPriority>
 8002246:	2009      	movs	r0, #9
 8002248:	f7ff f85e 	bl	8001308 <HAL_NVIC_EnableIRQ>
 800224c:	4622      	mov	r2, r4
 800224e:	4621      	mov	r1, r4
 8002250:	200a      	movs	r0, #10
 8002252:	f7ff f825 	bl	80012a0 <HAL_NVIC_SetPriority>
 8002256:	200a      	movs	r0, #10
 8002258:	f7ff f856 	bl	8001308 <HAL_NVIC_EnableIRQ>
 800225c:	f005 faf6 	bl	800784c <timing_init>
 8002260:	f005 fb20 	bl	80078a4 <uart_init>
 8002264:	f000 fb52 	bl	800290c <eeprom_init>
 8002268:	f003 fdba 	bl	8005de0 <serial_init>
 800226c:	f004 f8ba 	bl	80063e4 <settings_init>
 8002270:	f004 fc16 	bl	8006aa0 <stepper_init>
 8002274:	f005 f800 	bl	8007278 <system_init>
 8002278:	2218      	movs	r2, #24
 800227a:	4621      	mov	r1, r4
 800227c:	4826      	ldr	r0, [pc, #152]	; (8002318 <main+0x12c>)
 800227e:	f005 fb70 	bl	8007962 <memset>
 8002282:	4a26      	ldr	r2, [pc, #152]	; (800231c <main+0x130>)
 8002284:	4b26      	ldr	r3, [pc, #152]	; (8002320 <main+0x134>)
 8002286:	f892 2078 	ldrb.w	r2, [r2, #120]	; 0x78
 800228a:	701c      	strb	r4, [r3, #0]
 800228c:	f012 0f10 	tst.w	r2, #16
 8002290:	461c      	mov	r4, r3
 8002292:	bf18      	it	ne
 8002294:	2301      	movne	r3, #1
 8002296:	f04f 0500 	mov.w	r5, #0
 800229a:	4f21      	ldr	r7, [pc, #132]	; (8002320 <main+0x134>)
 800229c:	4e21      	ldr	r6, [pc, #132]	; (8002324 <main+0x138>)
 800229e:	bf18      	it	ne
 80022a0:	7023      	strbne	r3, [r4, #0]
 80022a2:	2214      	movs	r2, #20
 80022a4:	2100      	movs	r1, #0
 80022a6:	4638      	mov	r0, r7
 80022a8:	f894 8000 	ldrb.w	r8, [r4]
 80022ac:	f005 fb59 	bl	8007962 <memset>
 80022b0:	2364      	movs	r3, #100	; 0x64
 80022b2:	2218      	movs	r2, #24
 80022b4:	2100      	movs	r1, #0
 80022b6:	4630      	mov	r0, r6
 80022b8:	7223      	strb	r3, [r4, #8]
 80022ba:	7263      	strb	r3, [r4, #9]
 80022bc:	72a3      	strb	r3, [r4, #10]
 80022be:	f884 8000 	strb.w	r8, [r4]
 80022c2:	f005 fb4e 	bl	8007962 <memset>
 80022c6:	4b18      	ldr	r3, [pc, #96]	; (8002328 <main+0x13c>)
 80022c8:	701d      	strb	r5, [r3, #0]
 80022ca:	4b18      	ldr	r3, [pc, #96]	; (800232c <main+0x140>)
 80022cc:	701d      	strb	r5, [r3, #0]
 80022ce:	4b18      	ldr	r3, [pc, #96]	; (8002330 <main+0x144>)
 80022d0:	701d      	strb	r5, [r3, #0]
 80022d2:	4b18      	ldr	r3, [pc, #96]	; (8002334 <main+0x148>)
 80022d4:	701d      	strb	r5, [r3, #0]
 80022d6:	4b18      	ldr	r3, [pc, #96]	; (8002338 <main+0x14c>)
 80022d8:	701d      	strb	r5, [r3, #0]
 80022da:	f003 fe0d 	bl	8005ef8 <serial_reset_read_buffer>
 80022de:	f000 fb77 	bl	80029d0 <gc_init>
 80022e2:	f004 f8ab 	bl	800643c <spindle_init>
 80022e6:	f000 fa9f 	bl	8002828 <coolant_init>
 80022ea:	f001 fbc5 	bl	8003a78 <limits_init>
 80022ee:	f002 fda3 	bl	8004e38 <probe_init>
 80022f2:	f005 fa69 	bl	80077c8 <inoutputs_init>
 80022f6:	f002 fa09 	bl	800470c <plan_reset>
 80022fa:	f004 fb85 	bl	8006a08 <st_reset>
 80022fe:	f002 fc7f 	bl	8004c00 <plan_sync_position>
 8002302:	f000 fb7b 	bl	80029fc <gc_sync_position>
 8002306:	f003 f9af 	bl	8005668 <report_init_message>
 800230a:	f003 f859 	bl	80053c0 <protocol_main_loop>
 800230e:	e7c8      	b.n	80022a2 <main+0xb6>
 8002310:	e000ed00 	.word	0xe000ed00
 8002314:	e000e100 	.word	0xe000e100
 8002318:	20003904 	.word	0x20003904
 800231c:	20003f70 	.word	0x20003f70
 8002320:	200038d4 	.word	0x200038d4
 8002324:	200038ec 	.word	0x200038ec
 8002328:	200038ea 	.word	0x200038ea
 800232c:	200038e9 	.word	0x200038e9
 8002330:	2000391c 	.word	0x2000391c
 8002334:	200038d0 	.word	0x200038d0
 8002338:	200038e8 	.word	0x200038e8

0800233c <HAL_MspInit>:
 800233c:	4b0e      	ldr	r3, [pc, #56]	; (8002378 <HAL_MspInit+0x3c>)
 800233e:	b082      	sub	sp, #8
 8002340:	699a      	ldr	r2, [r3, #24]
 8002342:	f042 0201 	orr.w	r2, r2, #1
 8002346:	619a      	str	r2, [r3, #24]
 8002348:	699a      	ldr	r2, [r3, #24]
 800234a:	f002 0201 	and.w	r2, r2, #1
 800234e:	9200      	str	r2, [sp, #0]
 8002350:	9a00      	ldr	r2, [sp, #0]
 8002352:	69da      	ldr	r2, [r3, #28]
 8002354:	f042 5280 	orr.w	r2, r2, #268435456	; 0x10000000
 8002358:	61da      	str	r2, [r3, #28]
 800235a:	69db      	ldr	r3, [r3, #28]
 800235c:	4a07      	ldr	r2, [pc, #28]	; (800237c <HAL_MspInit+0x40>)
 800235e:	f003 5380 	and.w	r3, r3, #268435456	; 0x10000000
 8002362:	9301      	str	r3, [sp, #4]
 8002364:	9b01      	ldr	r3, [sp, #4]
 8002366:	6853      	ldr	r3, [r2, #4]
 8002368:	f023 63e0 	bic.w	r3, r3, #117440512	; 0x7000000
 800236c:	f043 7300 	orr.w	r3, r3, #33554432	; 0x2000000
 8002370:	6053      	str	r3, [r2, #4]
 8002372:	b002      	add	sp, #8
 8002374:	4770      	bx	lr
 8002376:	bf00      	nop
 8002378:	40021000 	.word	0x40021000
 800237c:	40010000 	.word	0x40010000

08002380 <NMI_Handler>:
 8002380:	4770      	bx	lr

08002382 <HardFault_Handler>:
 8002382:	e7fe      	b.n	8002382 <HardFault_Handler>

08002384 <MemManage_Handler>:
 8002384:	e7fe      	b.n	8002384 <MemManage_Handler>

08002386 <BusFault_Handler>:
 8002386:	e7fe      	b.n	8002386 <BusFault_Handler>

08002388 <UsageFault_Handler>:
 8002388:	e7fe      	b.n	8002388 <UsageFault_Handler>

0800238a <SVC_Handler>:
 800238a:	4770      	bx	lr

0800238c <DebugMon_Handler>:
 800238c:	4770      	bx	lr

0800238e <PendSV_Handler>:
 800238e:	4770      	bx	lr

08002390 <SysTick_Handler>:
 8002390:	f7fe bf50 	b.w	8001234 <HAL_IncTick>

08002394 <EXTI0_IRQHandler>:
 8002394:	b508      	push	{r3, lr}
 8002396:	2001      	movs	r0, #1
 8002398:	f7ff f992 	bl	80016c0 <HAL_GPIO_EXTI_IRQHandler>
 800239c:	2001      	movs	r0, #1
 800239e:	f004 ff85 	bl	80072ac <HandleControlIT>
 80023a2:	2240      	movs	r2, #64	; 0x40
 80023a4:	4b01      	ldr	r3, [pc, #4]	; (80023ac <EXTI0_IRQHandler+0x18>)
 80023a6:	f8c3 2180 	str.w	r2, [r3, #384]	; 0x180
 80023aa:	bd08      	pop	{r3, pc}
 80023ac:	e000e100 	.word	0xe000e100

080023b0 <EXTI1_IRQHandler>:
 80023b0:	b508      	push	{r3, lr}
 80023b2:	2002      	movs	r0, #2
 80023b4:	f7ff f984 	bl	80016c0 <HAL_GPIO_EXTI_IRQHandler>
 80023b8:	2002      	movs	r0, #2
 80023ba:	f004 ff77 	bl	80072ac <HandleControlIT>
 80023be:	2280      	movs	r2, #128	; 0x80
 80023c0:	4b01      	ldr	r3, [pc, #4]	; (80023c8 <EXTI1_IRQHandler+0x18>)
 80023c2:	f8c3 2180 	str.w	r2, [r3, #384]	; 0x180
 80023c6:	bd08      	pop	{r3, pc}
 80023c8:	e000e100 	.word	0xe000e100

080023cc <EXTI3_IRQHandler>:
 80023cc:	b508      	push	{r3, lr}
 80023ce:	2008      	movs	r0, #8
 80023d0:	f7ff f976 	bl	80016c0 <HAL_GPIO_EXTI_IRQHandler>
 80023d4:	2008      	movs	r0, #8
 80023d6:	f004 ff69 	bl	80072ac <HandleControlIT>
 80023da:	f44f 7200 	mov.w	r2, #512	; 0x200
 80023de:	4b02      	ldr	r3, [pc, #8]	; (80023e8 <EXTI3_IRQHandler+0x1c>)
 80023e0:	f8c3 2180 	str.w	r2, [r3, #384]	; 0x180
 80023e4:	bd08      	pop	{r3, pc}
 80023e6:	bf00      	nop
 80023e8:	e000e100 	.word	0xe000e100

080023ec <EXTI4_IRQHandler>:
 80023ec:	b508      	push	{r3, lr}
 80023ee:	2010      	movs	r0, #16
 80023f0:	f7ff f966 	bl	80016c0 <HAL_GPIO_EXTI_IRQHandler>
 80023f4:	2010      	movs	r0, #16
 80023f6:	f004 ff59 	bl	80072ac <HandleControlIT>
 80023fa:	f44f 6280 	mov.w	r2, #1024	; 0x400
 80023fe:	4b02      	ldr	r3, [pc, #8]	; (8002408 <EXTI4_IRQHandler+0x1c>)
 8002400:	f8c3 2180 	str.w	r2, [r3, #384]	; 0x180
 8002404:	bd08      	pop	{r3, pc}
 8002406:	bf00      	nop
 8002408:	e000e100 	.word	0xe000e100

0800240c <TIM2_IRQHandler>:
 800240c:	f04f 4380 	mov.w	r3, #1073741824	; 0x40000000
 8002410:	691a      	ldr	r2, [r3, #16]
 8002412:	07d2      	lsls	r2, r2, #31
 8002414:	d507      	bpl.n	8002426 <TIM2_IRQHandler+0x1a>
 8002416:	691a      	ldr	r2, [r3, #16]
 8002418:	f022 0201 	bic.w	r2, r2, #1
 800241c:	611a      	str	r2, [r3, #16]
 800241e:	2200      	movs	r2, #0
 8002420:	625a      	str	r2, [r3, #36]	; 0x24
 8002422:	f004 b95f 	b.w	80066e4 <HandleStepSetIT>
 8002426:	4770      	bx	lr

08002428 <TIM3_IRQHandler>:
 8002428:	4b08      	ldr	r3, [pc, #32]	; (800244c <TIM3_IRQHandler+0x24>)
 800242a:	691a      	ldr	r2, [r3, #16]
 800242c:	07d2      	lsls	r2, r2, #31
 800242e:	d50c      	bpl.n	800244a <TIM3_IRQHandler+0x22>
 8002430:	691a      	ldr	r2, [r3, #16]
 8002432:	f022 0201 	bic.w	r2, r2, #1
 8002436:	611a      	str	r2, [r3, #16]
 8002438:	2200      	movs	r2, #0
 800243a:	625a      	str	r2, [r3, #36]	; 0x24
 800243c:	f04f 5200 	mov.w	r2, #536870912	; 0x20000000
 8002440:	4b03      	ldr	r3, [pc, #12]	; (8002450 <TIM3_IRQHandler+0x28>)
 8002442:	f8c3 2080 	str.w	r2, [r3, #128]	; 0x80
 8002446:	f004 ba8d 	b.w	8006964 <HandleStepResetIT>
 800244a:	4770      	bx	lr
 800244c:	40000400 	.word	0x40000400
 8002450:	e000e100 	.word	0xe000e100

08002454 <USART1_IRQHandler>:
 8002454:	b510      	push	{r4, lr}
 8002456:	4c06      	ldr	r4, [pc, #24]	; (8002470 <USART1_IRQHandler+0x1c>)
 8002458:	68e3      	ldr	r3, [r4, #12]
 800245a:	069b      	lsls	r3, r3, #26
 800245c:	d506      	bpl.n	800246c <USART1_IRQHandler+0x18>
 800245e:	6860      	ldr	r0, [r4, #4]
 8002460:	b2c0      	uxtb	r0, r0
 8002462:	f003 fcd9 	bl	8005e18 <HandleUartIT>
 8002466:	f06f 0320 	mvn.w	r3, #32
 800246a:	6023      	str	r3, [r4, #0]
 800246c:	bd10      	pop	{r4, pc}
 800246e:	bf00      	nop
 8002470:	40013800 	.word	0x40013800

08002474 <EXTI15_10_IRQHandler>:
 8002474:	b508      	push	{r3, lr}
 8002476:	f44f 6080 	mov.w	r0, #1024	; 0x400
 800247a:	f7ff f921 	bl	80016c0 <HAL_GPIO_EXTI_IRQHandler>
 800247e:	f44f 6000 	mov.w	r0, #2048	; 0x800
 8002482:	f7ff f91d 	bl	80016c0 <HAL_GPIO_EXTI_IRQHandler>
 8002486:	f44f 5080 	mov.w	r0, #4096	; 0x1000
 800248a:	f7ff f919 	bl	80016c0 <HAL_GPIO_EXTI_IRQHandler>
 800248e:	f44f 5000 	mov.w	r0, #8192	; 0x2000
 8002492:	f7ff f915 	bl	80016c0 <HAL_GPIO_EXTI_IRQHandler>
 8002496:	f44f 4080 	mov.w	r0, #16384	; 0x4000
 800249a:	f7ff f911 	bl	80016c0 <HAL_GPIO_EXTI_IRQHandler>
 800249e:	f44f 4000 	mov.w	r0, #32768	; 0x8000
 80024a2:	f7ff f90d 	bl	80016c0 <HAL_GPIO_EXTI_IRQHandler>
 80024a6:	f44f 7280 	mov.w	r2, #256	; 0x100
 80024aa:	4b03      	ldr	r3, [pc, #12]	; (80024b8 <EXTI15_10_IRQHandler+0x44>)
 80024ac:	f8c3 2184 	str.w	r2, [r3, #388]	; 0x184
 80024b0:	e8bd 4008 	ldmia.w	sp!, {r3, lr}
 80024b4:	f001 bb1e 	b.w	8003af4 <HandleLimitIT>
 80024b8:	e000e100 	.word	0xe000e100

080024bc <_sbrk>:
 80024bc:	b508      	push	{r3, lr}
 80024be:	4b0a      	ldr	r3, [pc, #40]	; (80024e8 <_sbrk+0x2c>)
 80024c0:	4602      	mov	r2, r0
 80024c2:	6819      	ldr	r1, [r3, #0]
 80024c4:	b909      	cbnz	r1, 80024ca <_sbrk+0xe>
 80024c6:	4909      	ldr	r1, [pc, #36]	; (80024ec <_sbrk+0x30>)
 80024c8:	6019      	str	r1, [r3, #0]
 80024ca:	4669      	mov	r1, sp
 80024cc:	6818      	ldr	r0, [r3, #0]
 80024ce:	4402      	add	r2, r0
 80024d0:	428a      	cmp	r2, r1
 80024d2:	d906      	bls.n	80024e2 <_sbrk+0x26>
 80024d4:	f005 fa0c 	bl	80078f0 <__errno>
 80024d8:	230c      	movs	r3, #12
 80024da:	6003      	str	r3, [r0, #0]
 80024dc:	f04f 30ff 	mov.w	r0, #4294967295
 80024e0:	bd08      	pop	{r3, pc}
 80024e2:	601a      	str	r2, [r3, #0]
 80024e4:	bd08      	pop	{r3, pc}
 80024e6:	bf00      	nop
 80024e8:	20000094 	.word	0x20000094
 80024ec:	200040a8 	.word	0x200040a8

080024f0 <SystemInit>:
 80024f0:	4b0f      	ldr	r3, [pc, #60]	; (8002530 <SystemInit+0x40>)
 80024f2:	681a      	ldr	r2, [r3, #0]
 80024f4:	f042 0201 	orr.w	r2, r2, #1
 80024f8:	601a      	str	r2, [r3, #0]
 80024fa:	6859      	ldr	r1, [r3, #4]
 80024fc:	4a0d      	ldr	r2, [pc, #52]	; (8002534 <SystemInit+0x44>)
 80024fe:	400a      	ands	r2, r1
 8002500:	605a      	str	r2, [r3, #4]
 8002502:	681a      	ldr	r2, [r3, #0]
 8002504:	f022 7284 	bic.w	r2, r2, #17301504	; 0x1080000
 8002508:	f422 3280 	bic.w	r2, r2, #65536	; 0x10000
 800250c:	601a      	str	r2, [r3, #0]
 800250e:	681a      	ldr	r2, [r3, #0]
 8002510:	f422 2280 	bic.w	r2, r2, #262144	; 0x40000
 8002514:	601a      	str	r2, [r3, #0]
 8002516:	685a      	ldr	r2, [r3, #4]
 8002518:	f422 02fe 	bic.w	r2, r2, #8323072	; 0x7f0000
 800251c:	605a      	str	r2, [r3, #4]
 800251e:	f44f 021f 	mov.w	r2, #10420224	; 0x9f0000
 8002522:	609a      	str	r2, [r3, #8]
 8002524:	f04f 6200 	mov.w	r2, #134217728	; 0x8000000
 8002528:	4b03      	ldr	r3, [pc, #12]	; (8002538 <SystemInit+0x48>)
 800252a:	609a      	str	r2, [r3, #8]
 800252c:	4770      	bx	lr
 800252e:	bf00      	nop
 8002530:	40021000 	.word	0x40021000
 8002534:	f8ff0000 	.word	0xf8ff0000
 8002538:	e000ed00 	.word	0xe000ed00

0800253c <NVIC_EncodePriority.constprop.2>:
 800253c:	2000      	movs	r0, #0
 800253e:	4770      	bx	lr

08002540 <MX_TIM1_Init>:
 8002540:	b570      	push	{r4, r5, r6, lr}
 8002542:	2414      	movs	r4, #20
 8002544:	b09a      	sub	sp, #104	; 0x68
 8002546:	4622      	mov	r2, r4
 8002548:	2100      	movs	r1, #0
 800254a:	a802      	add	r0, sp, #8
 800254c:	f005 fa09 	bl	8007962 <memset>
 8002550:	2220      	movs	r2, #32
 8002552:	2100      	movs	r1, #0
 8002554:	a812      	add	r0, sp, #72	; 0x48
 8002556:	4e33      	ldr	r6, [pc, #204]	; (8002624 <MX_TIM1_Init+0xe4>)
 8002558:	f005 fa03 	bl	8007962 <memset>
 800255c:	2218      	movs	r2, #24
 800255e:	2100      	movs	r1, #0
 8002560:	a80c      	add	r0, sp, #48	; 0x30
 8002562:	f005 f9fe 	bl	8007962 <memset>
 8002566:	4622      	mov	r2, r4
 8002568:	2100      	movs	r1, #0
 800256a:	a807      	add	r0, sp, #28
 800256c:	f005 f9f9 	bl	8007962 <memset>
 8002570:	69b3      	ldr	r3, [r6, #24]
 8002572:	4d2d      	ldr	r5, [pc, #180]	; (8002628 <MX_TIM1_Init+0xe8>)
 8002574:	f443 6300 	orr.w	r3, r3, #2048	; 0x800
 8002578:	61b3      	str	r3, [r6, #24]
 800257a:	69b3      	ldr	r3, [r6, #24]
 800257c:	a902      	add	r1, sp, #8
 800257e:	f403 6300 	and.w	r3, r3, #2048	; 0x800
 8002582:	9301      	str	r3, [sp, #4]
 8002584:	9b01      	ldr	r3, [sp, #4]
 8002586:	f641 431f 	movw	r3, #7199	; 0x1c1f
 800258a:	4628      	mov	r0, r5
 800258c:	9304      	str	r3, [sp, #16]
 800258e:	f7ff fbfb 	bl	8001d88 <LL_TIM_Init>
 8002592:	682b      	ldr	r3, [r5, #0]
 8002594:	2400      	movs	r4, #0
 8002596:	f023 0380 	bic.w	r3, r3, #128	; 0x80
 800259a:	602b      	str	r3, [r5, #0]
 800259c:	69ab      	ldr	r3, [r5, #24]
 800259e:	aa12      	add	r2, sp, #72	; 0x48
 80025a0:	f043 0308 	orr.w	r3, r3, #8
 80025a4:	61ab      	str	r3, [r5, #24]
 80025a6:	2360      	movs	r3, #96	; 0x60
 80025a8:	2101      	movs	r1, #1
 80025aa:	4628      	mov	r0, r5
 80025ac:	9312      	str	r3, [sp, #72]	; 0x48
 80025ae:	9413      	str	r4, [sp, #76]	; 0x4c
 80025b0:	9414      	str	r4, [sp, #80]	; 0x50
 80025b2:	9415      	str	r4, [sp, #84]	; 0x54
 80025b4:	9416      	str	r4, [sp, #88]	; 0x58
 80025b6:	9417      	str	r4, [sp, #92]	; 0x5c
 80025b8:	9418      	str	r4, [sp, #96]	; 0x60
 80025ba:	9419      	str	r4, [sp, #100]	; 0x64
 80025bc:	f7ff fc1c 	bl	8001df8 <LL_TIM_OC_Init>
 80025c0:	69ab      	ldr	r3, [r5, #24]
 80025c2:	a90c      	add	r1, sp, #48	; 0x30
 80025c4:	f023 0304 	bic.w	r3, r3, #4
 80025c8:	61ab      	str	r3, [r5, #24]
 80025ca:	686b      	ldr	r3, [r5, #4]
 80025cc:	4628      	mov	r0, r5
 80025ce:	f023 0370 	bic.w	r3, r3, #112	; 0x70
 80025d2:	606b      	str	r3, [r5, #4]
 80025d4:	68ab      	ldr	r3, [r5, #8]
 80025d6:	f023 0380 	bic.w	r3, r3, #128	; 0x80
 80025da:	60ab      	str	r3, [r5, #8]
 80025dc:	f44f 5300 	mov.w	r3, #8192	; 0x2000
 80025e0:	940c      	str	r4, [sp, #48]	; 0x30
 80025e2:	9310      	str	r3, [sp, #64]	; 0x40
 80025e4:	940d      	str	r4, [sp, #52]	; 0x34
 80025e6:	940e      	str	r4, [sp, #56]	; 0x38
 80025e8:	f88d 403c 	strb.w	r4, [sp, #60]	; 0x3c
 80025ec:	f8ad 403e 	strh.w	r4, [sp, #62]	; 0x3e
 80025f0:	9411      	str	r4, [sp, #68]	; 0x44
 80025f2:	f7ff fcc9 	bl	8001f88 <LL_TIM_BDTR_Init>
 80025f6:	69b3      	ldr	r3, [r6, #24]
 80025f8:	a907      	add	r1, sp, #28
 80025fa:	f043 0304 	orr.w	r3, r3, #4
 80025fe:	61b3      	str	r3, [r6, #24]
 8002600:	69b3      	ldr	r3, [r6, #24]
 8002602:	480a      	ldr	r0, [pc, #40]	; (800262c <MX_TIM1_Init+0xec>)
 8002604:	f003 0304 	and.w	r3, r3, #4
 8002608:	9300      	str	r3, [sp, #0]
 800260a:	9b00      	ldr	r3, [sp, #0]
 800260c:	4b08      	ldr	r3, [pc, #32]	; (8002630 <MX_TIM1_Init+0xf0>)
 800260e:	940a      	str	r4, [sp, #40]	; 0x28
 8002610:	9307      	str	r3, [sp, #28]
 8002612:	2309      	movs	r3, #9
 8002614:	9308      	str	r3, [sp, #32]
 8002616:	2302      	movs	r3, #2
 8002618:	9309      	str	r3, [sp, #36]	; 0x24
 800261a:	f7ff fad7 	bl	8001bcc <LL_GPIO_Init>
 800261e:	b01a      	add	sp, #104	; 0x68
 8002620:	bd70      	pop	{r4, r5, r6, pc}
 8002622:	bf00      	nop
 8002624:	40021000 	.word	0x40021000
 8002628:	40012c00 	.word	0x40012c00
 800262c:	40010800 	.word	0x40010800
 8002630:	04010001 	.word	0x04010001

08002634 <MX_TIM2_Init>:
 8002634:	b57f      	push	{r0, r1, r2, r3, r4, r5, r6, lr}
 8002636:	2100      	movs	r1, #0
 8002638:	2214      	movs	r2, #20
 800263a:	a801      	add	r0, sp, #4
 800263c:	f005 f991 	bl	8007962 <memset>
 8002640:	4b19      	ldr	r3, [pc, #100]	; (80026a8 <MX_TIM2_Init+0x74>)
 8002642:	69da      	ldr	r2, [r3, #28]
 8002644:	f042 0201 	orr.w	r2, r2, #1
 8002648:	61da      	str	r2, [r3, #28]
 800264a:	69db      	ldr	r3, [r3, #28]
 800264c:	f003 0301 	and.w	r3, r3, #1
 8002650:	9300      	str	r3, [sp, #0]
 8002652:	9b00      	ldr	r3, [sp, #0]
 8002654:	4b15      	ldr	r3, [pc, #84]	; (80026ac <MX_TIM2_Init+0x78>)
 8002656:	68d8      	ldr	r0, [r3, #12]
 8002658:	f3c0 2002 	ubfx	r0, r0, #8, #3
 800265c:	f7ff ff6e 	bl	800253c <NVIC_EncodePriority.constprop.2>
 8002660:	f04f 5280 	mov.w	r2, #268435456	; 0x10000000
 8002664:	4b12      	ldr	r3, [pc, #72]	; (80026b0 <MX_TIM2_Init+0x7c>)
 8002666:	0100      	lsls	r0, r0, #4
 8002668:	b2c0      	uxtb	r0, r0
 800266a:	f883 031c 	strb.w	r0, [r3, #796]	; 0x31c
 800266e:	a901      	add	r1, sp, #4
 8002670:	601a      	str	r2, [r3, #0]
 8002672:	f04f 4080 	mov.w	r0, #1073741824	; 0x40000000
 8002676:	f7ff fb87 	bl	8001d88 <LL_TIM_Init>
 800267a:	f04f 4380 	mov.w	r3, #1073741824	; 0x40000000
 800267e:	681a      	ldr	r2, [r3, #0]
 8002680:	f022 0280 	bic.w	r2, r2, #128	; 0x80
 8002684:	601a      	str	r2, [r3, #0]
 8002686:	689a      	ldr	r2, [r3, #8]
 8002688:	f422 4280 	bic.w	r2, r2, #16384	; 0x4000
 800268c:	f022 0207 	bic.w	r2, r2, #7
 8002690:	609a      	str	r2, [r3, #8]
 8002692:	685a      	ldr	r2, [r3, #4]
 8002694:	f022 0270 	bic.w	r2, r2, #112	; 0x70
 8002698:	605a      	str	r2, [r3, #4]
 800269a:	689a      	ldr	r2, [r3, #8]
 800269c:	f022 0280 	bic.w	r2, r2, #128	; 0x80
 80026a0:	609a      	str	r2, [r3, #8]
 80026a2:	b007      	add	sp, #28
 80026a4:	f85d fb04 	ldr.w	pc, [sp], #4
 80026a8:	40021000 	.word	0x40021000
 80026ac:	e000ed00 	.word	0xe000ed00
 80026b0:	e000e100 	.word	0xe000e100

080026b4 <MX_TIM3_Init>:
 80026b4:	b510      	push	{r4, lr}
 80026b6:	b086      	sub	sp, #24
 80026b8:	2100      	movs	r1, #0
 80026ba:	2214      	movs	r2, #20
 80026bc:	a801      	add	r0, sp, #4
 80026be:	f005 f950 	bl	8007962 <memset>
 80026c2:	4b18      	ldr	r3, [pc, #96]	; (8002724 <MX_TIM3_Init+0x70>)
 80026c4:	4c18      	ldr	r4, [pc, #96]	; (8002728 <MX_TIM3_Init+0x74>)
 80026c6:	69da      	ldr	r2, [r3, #28]
 80026c8:	f042 0202 	orr.w	r2, r2, #2
 80026cc:	61da      	str	r2, [r3, #28]
 80026ce:	69db      	ldr	r3, [r3, #28]
 80026d0:	f003 0302 	and.w	r3, r3, #2
 80026d4:	9300      	str	r3, [sp, #0]
 80026d6:	9b00      	ldr	r3, [sp, #0]
 80026d8:	4b14      	ldr	r3, [pc, #80]	; (800272c <MX_TIM3_Init+0x78>)
 80026da:	68d8      	ldr	r0, [r3, #12]
 80026dc:	f3c0 2002 	ubfx	r0, r0, #8, #3
 80026e0:	f7ff ff2c 	bl	800253c <NVIC_EncodePriority.constprop.2>
 80026e4:	f04f 5200 	mov.w	r2, #536870912	; 0x20000000
 80026e8:	4b11      	ldr	r3, [pc, #68]	; (8002730 <MX_TIM3_Init+0x7c>)
 80026ea:	0100      	lsls	r0, r0, #4
 80026ec:	b2c0      	uxtb	r0, r0
 80026ee:	f883 031d 	strb.w	r0, [r3, #797]	; 0x31d
 80026f2:	a901      	add	r1, sp, #4
 80026f4:	601a      	str	r2, [r3, #0]
 80026f6:	4620      	mov	r0, r4
 80026f8:	f7ff fb46 	bl	8001d88 <LL_TIM_Init>
 80026fc:	6823      	ldr	r3, [r4, #0]
 80026fe:	f023 0380 	bic.w	r3, r3, #128	; 0x80
 8002702:	6023      	str	r3, [r4, #0]
 8002704:	68a3      	ldr	r3, [r4, #8]
 8002706:	f423 4380 	bic.w	r3, r3, #16384	; 0x4000
 800270a:	f023 0307 	bic.w	r3, r3, #7
 800270e:	60a3      	str	r3, [r4, #8]
 8002710:	6863      	ldr	r3, [r4, #4]
 8002712:	f023 0370 	bic.w	r3, r3, #112	; 0x70
 8002716:	6063      	str	r3, [r4, #4]
 8002718:	68a3      	ldr	r3, [r4, #8]
 800271a:	f023 0380 	bic.w	r3, r3, #128	; 0x80
 800271e:	60a3      	str	r3, [r4, #8]
 8002720:	b006      	add	sp, #24
 8002722:	bd10      	pop	{r4, pc}
 8002724:	40021000 	.word	0x40021000
 8002728:	40000400 	.word	0x40000400
 800272c:	e000ed00 	.word	0xe000ed00
 8002730:	e000e100 	.word	0xe000e100

08002734 <MX_USART1_UART_Init>:
 8002734:	b510      	push	{r4, lr}
 8002736:	b08e      	sub	sp, #56	; 0x38
 8002738:	2218      	movs	r2, #24
 800273a:	2100      	movs	r1, #0
 800273c:	a808      	add	r0, sp, #32
 800273e:	f005 f910 	bl	8007962 <memset>
 8002742:	2214      	movs	r2, #20
 8002744:	2100      	movs	r1, #0
 8002746:	a803      	add	r0, sp, #12
 8002748:	f005 f90b 	bl	8007962 <memset>
 800274c:	4b25      	ldr	r3, [pc, #148]	; (80027e4 <MX_USART1_UART_Init+0xb0>)
 800274e:	4c26      	ldr	r4, [pc, #152]	; (80027e8 <MX_USART1_UART_Init+0xb4>)
 8002750:	699a      	ldr	r2, [r3, #24]
 8002752:	a903      	add	r1, sp, #12
 8002754:	f442 4280 	orr.w	r2, r2, #16384	; 0x4000
 8002758:	619a      	str	r2, [r3, #24]
 800275a:	699a      	ldr	r2, [r3, #24]
 800275c:	4620      	mov	r0, r4
 800275e:	f402 4280 	and.w	r2, r2, #16384	; 0x4000
 8002762:	9202      	str	r2, [sp, #8]
 8002764:	9a02      	ldr	r2, [sp, #8]
 8002766:	699a      	ldr	r2, [r3, #24]
 8002768:	f042 0208 	orr.w	r2, r2, #8
 800276c:	619a      	str	r2, [r3, #24]
 800276e:	699b      	ldr	r3, [r3, #24]
 8002770:	f003 0308 	and.w	r3, r3, #8
 8002774:	9301      	str	r3, [sp, #4]
 8002776:	9b01      	ldr	r3, [sp, #4]
 8002778:	f244 0340 	movw	r3, #16448	; 0x4040
 800277c:	9303      	str	r3, [sp, #12]
 800277e:	2309      	movs	r3, #9
 8002780:	9304      	str	r3, [sp, #16]
 8002782:	2303      	movs	r3, #3
 8002784:	9305      	str	r3, [sp, #20]
 8002786:	f7ff fa21 	bl	8001bcc <LL_GPIO_Init>
 800278a:	f248 0380 	movw	r3, #32896	; 0x8080
 800278e:	9303      	str	r3, [sp, #12]
 8002790:	2304      	movs	r3, #4
 8002792:	a903      	add	r1, sp, #12
 8002794:	4620      	mov	r0, r4
 8002796:	9304      	str	r3, [sp, #16]
 8002798:	f7ff fa18 	bl	8001bcc <LL_GPIO_Init>
 800279c:	4a13      	ldr	r2, [pc, #76]	; (80027ec <MX_USART1_UART_Init+0xb8>)
 800279e:	f504 5430 	add.w	r4, r4, #11264	; 0x2c00
 80027a2:	6853      	ldr	r3, [r2, #4]
 80027a4:	a908      	add	r1, sp, #32
 80027a6:	f043 0304 	orr.w	r3, r3, #4
 80027aa:	6053      	str	r3, [r2, #4]
 80027ac:	f44f 2361 	mov.w	r3, #921600	; 0xe1000
 80027b0:	220c      	movs	r2, #12
 80027b2:	9308      	str	r3, [sp, #32]
 80027b4:	2300      	movs	r3, #0
 80027b6:	4620      	mov	r0, r4
 80027b8:	9309      	str	r3, [sp, #36]	; 0x24
 80027ba:	930a      	str	r3, [sp, #40]	; 0x28
 80027bc:	930b      	str	r3, [sp, #44]	; 0x2c
 80027be:	930d      	str	r3, [sp, #52]	; 0x34
 80027c0:	920c      	str	r2, [sp, #48]	; 0x30
 80027c2:	f7ff fbfb 	bl	8001fbc <LL_USART_Init>
 80027c6:	6923      	ldr	r3, [r4, #16]
 80027c8:	f423 4390 	bic.w	r3, r3, #18432	; 0x4800
 80027cc:	6123      	str	r3, [r4, #16]
 80027ce:	6963      	ldr	r3, [r4, #20]
 80027d0:	f023 032a 	bic.w	r3, r3, #42	; 0x2a
 80027d4:	6163      	str	r3, [r4, #20]
 80027d6:	68e3      	ldr	r3, [r4, #12]
 80027d8:	f443 5300 	orr.w	r3, r3, #8192	; 0x2000
 80027dc:	60e3      	str	r3, [r4, #12]
 80027de:	b00e      	add	sp, #56	; 0x38
 80027e0:	bd10      	pop	{r4, pc}
 80027e2:	bf00      	nop
 80027e4:	40021000 	.word	0x40021000
 80027e8:	40010c00 	.word	0x40010c00
 80027ec:	40010000 	.word	0x40010000

080027f0 <coolant_get_state>:
 80027f0:	4b04      	ldr	r3, [pc, #16]	; (8002804 <coolant_get_state+0x14>)
 80027f2:	68d8      	ldr	r0, [r3, #12]
 80027f4:	68db      	ldr	r3, [r3, #12]
 80027f6:	f3c0 3040 	ubfx	r0, r0, #13, #1
 80027fa:	045b      	lsls	r3, r3, #17
 80027fc:	bf48      	it	mi
 80027fe:	f040 0002 	orrmi.w	r0, r0, #2
 8002802:	4770      	bx	lr
 8002804:	40011000 	.word	0x40011000

08002808 <coolant_stop>:
 8002808:	b510      	push	{r4, lr}
 800280a:	4c06      	ldr	r4, [pc, #24]	; (8002824 <coolant_stop+0x1c>)
 800280c:	f44f 5100 	mov.w	r1, #8192	; 0x2000
 8002810:	4620      	mov	r0, r4
 8002812:	f005 f867 	bl	80078e4 <GPIO_ResetBits>
 8002816:	4620      	mov	r0, r4
 8002818:	e8bd 4010 	ldmia.w	sp!, {r4, lr}
 800281c:	f44f 4180 	mov.w	r1, #16384	; 0x4000
 8002820:	f005 b860 	b.w	80078e4 <GPIO_ResetBits>
 8002824:	40011000 	.word	0x40011000

08002828 <coolant_init>:
 8002828:	f7ff bfee 	b.w	8002808 <coolant_stop>

0800282c <coolant_set_state>:
 800282c:	b538      	push	{r3, r4, r5, lr}
 800282e:	4c0c      	ldr	r4, [pc, #48]	; (8002860 <coolant_set_state+0x34>)
 8002830:	4605      	mov	r5, r0
 8002832:	7862      	ldrb	r2, [r4, #1]
 8002834:	b922      	cbnz	r2, 8002840 <coolant_set_state+0x14>
 8002836:	b920      	cbnz	r0, 8002842 <coolant_set_state+0x16>
 8002838:	f7ff ffe6 	bl	8002808 <coolant_stop>
 800283c:	2300      	movs	r3, #0
 800283e:	7323      	strb	r3, [r4, #12]
 8002840:	bd38      	pop	{r3, r4, r5, pc}
 8002842:	0642      	lsls	r2, r0, #25
 8002844:	d504      	bpl.n	8002850 <coolant_set_state+0x24>
 8002846:	f44f 5100 	mov.w	r1, #8192	; 0x2000
 800284a:	4806      	ldr	r0, [pc, #24]	; (8002864 <coolant_set_state+0x38>)
 800284c:	f005 f84d 	bl	80078ea <GPIO_SetBits>
 8002850:	062b      	lsls	r3, r5, #24
 8002852:	d5f3      	bpl.n	800283c <coolant_set_state+0x10>
 8002854:	f44f 4180 	mov.w	r1, #16384	; 0x4000
 8002858:	4802      	ldr	r0, [pc, #8]	; (8002864 <coolant_set_state+0x38>)
 800285a:	f005 f846 	bl	80078ea <GPIO_SetBits>
 800285e:	e7ed      	b.n	800283c <coolant_set_state+0x10>
 8002860:	200038d4 	.word	0x200038d4
 8002864:	40011000 	.word	0x40011000

08002868 <coolant_sync>:
 8002868:	b510      	push	{r4, lr}
 800286a:	4b06      	ldr	r3, [pc, #24]	; (8002884 <coolant_sync+0x1c>)
 800286c:	4604      	mov	r4, r0
 800286e:	781b      	ldrb	r3, [r3, #0]
 8002870:	2b02      	cmp	r3, #2
 8002872:	d006      	beq.n	8002882 <coolant_sync+0x1a>
 8002874:	f002 fe36 	bl	80054e4 <protocol_buffer_synchronize>
 8002878:	4620      	mov	r0, r4
 800287a:	e8bd 4010 	ldmia.w	sp!, {r4, lr}
 800287e:	f7ff bfd5 	b.w	800282c <coolant_set_state>
 8002882:	bd10      	pop	{r4, pc}
 8002884:	200038d4 	.word	0x200038d4

08002888 <eeprom_flush>:
 8002888:	e92d 41f0 	stmdb	sp!, {r4, r5, r6, r7, r8, lr}
 800288c:	f64f 76ff 	movw	r6, #65535	; 0xffff
 8002890:	f7fe fd92 	bl	80013b8 <HAL_FLASH_Unlock>
 8002894:	4817      	ldr	r0, [pc, #92]	; (80028f4 <eeprom_flush+0x6c>)
 8002896:	f7fe fe1b 	bl	80014d0 <FLASH_PageErase>
 800289a:	f24c 3050 	movw	r0, #50000	; 0xc350
 800289e:	f7fe fda7 	bl	80013f0 <FLASH_WaitForLastOperation>
 80028a2:	4a15      	ldr	r2, [pc, #84]	; (80028f8 <eeprom_flush+0x70>)
 80028a4:	4d13      	ldr	r5, [pc, #76]	; (80028f4 <eeprom_flush+0x6c>)
 80028a6:	6913      	ldr	r3, [r2, #16]
 80028a8:	f8df 805c 	ldr.w	r8, [pc, #92]	; 8002908 <eeprom_flush+0x80>
 80028ac:	f023 0302 	bic.w	r3, r3, #2
 80028b0:	4f12      	ldr	r7, [pc, #72]	; (80028fc <eeprom_flush+0x74>)
 80028b2:	6113      	str	r3, [r2, #16]
 80028b4:	f835 2008 	ldrh.w	r2, [r5, r8]
 80028b8:	4b11      	ldr	r3, [pc, #68]	; (8002900 <eeprom_flush+0x78>)
 80028ba:	42b2      	cmp	r2, r6
 80028bc:	442b      	add	r3, r5
 80028be:	d016      	beq.n	80028ee <eeprom_flush+0x66>
 80028c0:	18fc      	adds	r4, r7, r3
 80028c2:	4629      	mov	r1, r5
 80028c4:	2300      	movs	r3, #0
 80028c6:	2001      	movs	r0, #1
 80028c8:	f7fe fdbc 	bl	8001444 <HAL_FLASH_Program>
 80028cc:	4623      	mov	r3, r4
 80028ce:	881a      	ldrh	r2, [r3, #0]
 80028d0:	42b2      	cmp	r2, r6
 80028d2:	d004      	beq.n	80028de <eeprom_flush+0x56>
 80028d4:	2300      	movs	r3, #0
 80028d6:	1ca9      	adds	r1, r5, #2
 80028d8:	2001      	movs	r0, #1
 80028da:	f7fe fdb3 	bl	8001444 <HAL_FLASH_Program>
 80028de:	4b09      	ldr	r3, [pc, #36]	; (8002904 <eeprom_flush+0x7c>)
 80028e0:	3504      	adds	r5, #4
 80028e2:	429d      	cmp	r5, r3
 80028e4:	d1e6      	bne.n	80028b4 <eeprom_flush+0x2c>
 80028e6:	e8bd 41f0 	ldmia.w	sp!, {r4, r5, r6, r7, r8, lr}
 80028ea:	f7fe bd77 	b.w	80013dc <HAL_FLASH_Lock>
 80028ee:	443b      	add	r3, r7
 80028f0:	e7ed      	b.n	80028ce <eeprom_flush+0x46>
 80028f2:	bf00      	nop
 80028f4:	0801fc00 	.word	0x0801fc00
 80028f8:	40022000 	.word	0x40022000
 80028fc:	2000391d 	.word	0x2000391d
 8002900:	f7fe0402 	.word	0xf7fe0402
 8002904:	08020000 	.word	0x08020000
 8002908:	17fe3d1d 	.word	0x17fe3d1d

0800290c <eeprom_init>:
 800290c:	4a0c      	ldr	r2, [pc, #48]	; (8002940 <eeprom_init+0x34>)
 800290e:	b530      	push	{r4, r5, lr}
 8002910:	4610      	mov	r0, r2
 8002912:	4b0c      	ldr	r3, [pc, #48]	; (8002944 <eeprom_init+0x38>)
 8002914:	4c0c      	ldr	r4, [pc, #48]	; (8002948 <eeprom_init+0x3c>)
 8002916:	781d      	ldrb	r5, [r3, #0]
 8002918:	f103 4178 	add.w	r1, r3, #4160749568	; 0xf8000000
 800291c:	3301      	adds	r3, #1
 800291e:	f5a1 31fe 	sub.w	r1, r1, #130048	; 0x1fc00
 8002922:	42a3      	cmp	r3, r4
 8002924:	5455      	strb	r5, [r2, r1]
 8002926:	d1f6      	bne.n	8002916 <eeprom_init+0xa>
 8002928:	7813      	ldrb	r3, [r2, #0]
 800292a:	2b0a      	cmp	r3, #10
 800292c:	d006      	beq.n	800293c <eeprom_init+0x30>
 800292e:	2300      	movs	r3, #0
 8002930:	22ff      	movs	r2, #255	; 0xff
 8002932:	54c2      	strb	r2, [r0, r3]
 8002934:	3301      	adds	r3, #1
 8002936:	f5b3 6f80 	cmp.w	r3, #1024	; 0x400
 800293a:	d1fa      	bne.n	8002932 <eeprom_init+0x26>
 800293c:	bd30      	pop	{r4, r5, pc}
 800293e:	bf00      	nop
 8002940:	2000391d 	.word	0x2000391d
 8002944:	0801fc00 	.word	0x0801fc00
 8002948:	08020000 	.word	0x08020000

0800294c <eeprom_get_char>:
 800294c:	4b01      	ldr	r3, [pc, #4]	; (8002954 <eeprom_get_char+0x8>)
 800294e:	5c18      	ldrb	r0, [r3, r0]
 8002950:	4770      	bx	lr
 8002952:	bf00      	nop
 8002954:	2000391d 	.word	0x2000391d

08002958 <eeprom_put_char>:
 8002958:	4b01      	ldr	r3, [pc, #4]	; (8002960 <eeprom_put_char+0x8>)
 800295a:	5419      	strb	r1, [r3, r0]
 800295c:	4770      	bx	lr
 800295e:	bf00      	nop
 8002960:	2000391d 	.word	0x2000391d

08002964 <memcpy_to_eeprom_with_checksum>:
 8002964:	2300      	movs	r3, #0
 8002966:	b4f0      	push	{r4, r5, r6, r7}
 8002968:	4c0a      	ldr	r4, [pc, #40]	; (8002994 <memcpy_to_eeprom_with_checksum+0x30>)
 800296a:	1e45      	subs	r5, r0, #1
 800296c:	4425      	add	r5, r4
 800296e:	188f      	adds	r7, r1, r2
 8002970:	42b9      	cmp	r1, r7
 8002972:	d104      	bne.n	800297e <memcpy_to_eeprom_with_checksum+0x1a>
 8002974:	4420      	add	r0, r4
 8002976:	5483      	strb	r3, [r0, r2]
 8002978:	bcf0      	pop	{r4, r5, r6, r7}
 800297a:	f7ff bf85 	b.w	8002888 <eeprom_flush>
 800297e:	b93b      	cbnz	r3, 8002990 <memcpy_to_eeprom_with_checksum+0x2c>
 8002980:	09db      	lsrs	r3, r3, #7
 8002982:	f811 6b01 	ldrb.w	r6, [r1], #1
 8002986:	4433      	add	r3, r6
 8002988:	b2db      	uxtb	r3, r3
 800298a:	f805 6f01 	strb.w	r6, [r5, #1]!
 800298e:	e7ef      	b.n	8002970 <memcpy_to_eeprom_with_checksum+0xc>
 8002990:	2301      	movs	r3, #1
 8002992:	e7f6      	b.n	8002982 <memcpy_to_eeprom_with_checksum+0x1e>
 8002994:	2000391d 	.word	0x2000391d

08002998 <memcpy_from_eeprom_with_checksum>:
 8002998:	2300      	movs	r3, #0
 800299a:	b5f0      	push	{r4, r5, r6, r7, lr}
 800299c:	4c0b      	ldr	r4, [pc, #44]	; (80029cc <memcpy_from_eeprom_with_checksum+0x34>)
 800299e:	1e4d      	subs	r5, r1, #1
 80029a0:	4425      	add	r5, r4
 80029a2:	1887      	adds	r7, r0, r2
 80029a4:	42b8      	cmp	r0, r7
 80029a6:	d105      	bne.n	80029b4 <memcpy_from_eeprom_with_checksum+0x1c>
 80029a8:	4421      	add	r1, r4
 80029aa:	5c88      	ldrb	r0, [r1, r2]
 80029ac:	1ac3      	subs	r3, r0, r3
 80029ae:	4258      	negs	r0, r3
 80029b0:	4158      	adcs	r0, r3
 80029b2:	bdf0      	pop	{r4, r5, r6, r7, pc}
 80029b4:	f815 6f01 	ldrb.w	r6, [r5, #1]!
 80029b8:	b92b      	cbnz	r3, 80029c6 <memcpy_from_eeprom_with_checksum+0x2e>
 80029ba:	09db      	lsrs	r3, r3, #7
 80029bc:	4433      	add	r3, r6
 80029be:	b2db      	uxtb	r3, r3
 80029c0:	f800 6b01 	strb.w	r6, [r0], #1
 80029c4:	e7ee      	b.n	80029a4 <memcpy_from_eeprom_with_checksum+0xc>
 80029c6:	2301      	movs	r3, #1
 80029c8:	e7f8      	b.n	80029bc <memcpy_from_eeprom_with_checksum+0x24>
 80029ca:	bf00      	nop
 80029cc:	2000391d 	.word	0x2000391d

080029d0 <gc_init>:
 80029d0:	b508      	push	{r3, lr}
 80029d2:	2100      	movs	r1, #0
 80029d4:	226c      	movs	r2, #108	; 0x6c
 80029d6:	4807      	ldr	r0, [pc, #28]	; (80029f4 <gc_init+0x24>)
 80029d8:	f004 ffc3 	bl	8007962 <memset>
 80029dc:	4906      	ldr	r1, [pc, #24]	; (80029f8 <gc_init+0x28>)
 80029de:	2000      	movs	r0, #0
 80029e0:	f003 fb87 	bl	80060f2 <settings_read_coord_data>
 80029e4:	b920      	cbnz	r0, 80029f0 <gc_init+0x20>
 80029e6:	e8bd 4008 	ldmia.w	sp!, {r3, lr}
 80029ea:	2007      	movs	r0, #7
 80029ec:	f002 bdd0 	b.w	8005590 <report_status_message>
 80029f0:	bd08      	pop	{r3, pc}
 80029f2:	bf00      	nop
 80029f4:	20003d20 	.word	0x20003d20
 80029f8:	20003d58 	.word	0x20003d58

080029fc <gc_sync_position>:
 80029fc:	4901      	ldr	r1, [pc, #4]	; (8002a04 <gc_sync_position+0x8>)
 80029fe:	4802      	ldr	r0, [pc, #8]	; (8002a08 <gc_sync_position+0xc>)
 8002a00:	f004 bcba 	b.w	8007378 <system_convert_array_steps_to_mpos>
 8002a04:	20003904 	.word	0x20003904
 8002a08:	20003d40 	.word	0x20003d40
 8002a0c:	00000000 	.word	0x00000000

08002a10 <gc_execute_line>:
 8002a10:	e92d 4ff0 	stmdb	sp!, {r4, r5, r6, r7, r8, r9, sl, fp, lr}
 8002a14:	b09b      	sub	sp, #108	; 0x6c
 8002a16:	9006      	str	r0, [sp, #24]
 8002a18:	2264      	movs	r2, #100	; 0x64
 8002a1a:	2100      	movs	r1, #0
 8002a1c:	48ae      	ldr	r0, [pc, #696]	; (8002cd8 <gc_execute_line+0x2c8>)
 8002a1e:	f004 ffa0 	bl	8007962 <memset>
 8002a22:	4bae      	ldr	r3, [pc, #696]	; (8002cdc <gc_execute_line+0x2cc>)
 8002a24:	4aae      	ldr	r2, [pc, #696]	; (8002ce0 <gc_execute_line+0x2d0>)
 8002a26:	4698      	mov	r8, r3
 8002a28:	f103 0508 	add.w	r5, r3, #8
 8002a2c:	461c      	mov	r4, r3
 8002a2e:	cc03      	ldmia	r4!, {r0, r1}
 8002a30:	42ac      	cmp	r4, r5
 8002a32:	6010      	str	r0, [r2, #0]
 8002a34:	6051      	str	r1, [r2, #4]
 8002a36:	4623      	mov	r3, r4
 8002a38:	f102 0208 	add.w	r2, r2, #8
 8002a3c:	d1f6      	bne.n	8002a2c <gc_execute_line+0x1c>
 8002a3e:	6820      	ldr	r0, [r4, #0]
 8002a40:	f04f 0b00 	mov.w	fp, #0
 8002a44:	6010      	str	r0, [r2, #0]
 8002a46:	79a3      	ldrb	r3, [r4, #6]
 8002a48:	88a1      	ldrh	r1, [r4, #4]
 8002a4a:	7193      	strb	r3, [r2, #6]
 8002a4c:	8091      	strh	r1, [r2, #4]
 8002a4e:	9b06      	ldr	r3, [sp, #24]
 8002a50:	781b      	ldrb	r3, [r3, #0]
 8002a52:	2b24      	cmp	r3, #36	; 0x24
 8002a54:	f040 87d1 	bne.w	80039fa <gc_execute_line+0xfea>
 8002a58:	2301      	movs	r3, #1
 8002a5a:	4a9f      	ldr	r2, [pc, #636]	; (8002cd8 <gc_execute_line+0x2c8>)
 8002a5c:	f882 b002 	strb.w	fp, [r2, #2]
 8002a60:	7053      	strb	r3, [r2, #1]
 8002a62:	2203      	movs	r2, #3
 8002a64:	469b      	mov	fp, r3
 8002a66:	f88d 203f 	strb.w	r2, [sp, #63]	; 0x3f
 8002a6a:	2400      	movs	r4, #0
 8002a6c:	4625      	mov	r5, r4
 8002a6e:	4626      	mov	r6, r4
 8002a70:	9408      	str	r4, [sp, #32]
 8002a72:	9407      	str	r4, [sp, #28]
 8002a74:	f89d 203f 	ldrb.w	r2, [sp, #63]	; 0x3f
 8002a78:	9b06      	ldr	r3, [sp, #24]
 8002a7a:	f813 a002 	ldrb.w	sl, [r3, r2]
 8002a7e:	f1ba 0f00 	cmp.w	sl, #0
 8002a82:	d123      	bne.n	8002acc <gc_execute_line+0xbc>
 8002a84:	b115      	cbz	r5, 8002a8c <gc_execute_line+0x7c>
 8002a86:	2e00      	cmp	r6, #0
 8002a88:	bf08      	it	eq
 8002a8a:	2602      	moveq	r6, #2
 8002a8c:	06a2      	lsls	r2, r4, #26
 8002a8e:	d505      	bpl.n	8002a9c <gc_execute_line+0x8c>
 8002a90:	4b91      	ldr	r3, [pc, #580]	; (8002cd8 <gc_execute_line+0x2c8>)
 8002a92:	6b1a      	ldr	r2, [r3, #48]	; 0x30
 8002a94:	4b93      	ldr	r3, [pc, #588]	; (8002ce4 <gc_execute_line+0x2d4>)
 8002a96:	429a      	cmp	r2, r3
 8002a98:	f300 8794 	bgt.w	80039c4 <gc_execute_line+0xfb4>
 8002a9c:	f1bb 0f00 	cmp.w	fp, #0
 8002aa0:	f000 820c 	beq.w	8002ebc <gc_execute_line+0x4ac>
 8002aa4:	07e3      	lsls	r3, r4, #31
 8002aa6:	f140 8796 	bpl.w	80039d6 <gc_execute_line+0xfc6>
 8002aaa:	4f8b      	ldr	r7, [pc, #556]	; (8002cd8 <gc_execute_line+0x2c8>)
 8002aac:	78fb      	ldrb	r3, [r7, #3]
 8002aae:	2b01      	cmp	r3, #1
 8002ab0:	f040 8211 	bne.w	8002ed6 <gc_execute_line+0x4c6>
 8002ab4:	6938      	ldr	r0, [r7, #16]
 8002ab6:	f7fd fcbb 	bl	8000430 <__aeabi_f2d>
 8002aba:	a385      	add	r3, pc, #532	; (adr r3, 8002cd0 <gc_execute_line+0x2c0>)
 8002abc:	e9d3 2300 	ldrd	r2, r3, [r3]
 8002ac0:	f7fd fd0a 	bl	80004d8 <__aeabi_dmul>
 8002ac4:	f7fe f800 	bl	8000ac8 <__aeabi_d2f>
 8002ac8:	6138      	str	r0, [r7, #16]
 8002aca:	e204      	b.n	8002ed6 <gc_execute_line+0x4c6>
 8002acc:	f1aa 0341 	sub.w	r3, sl, #65	; 0x41
 8002ad0:	9309      	str	r3, [sp, #36]	; 0x24
 8002ad2:	f89d 1024 	ldrb.w	r1, [sp, #36]	; 0x24
 8002ad6:	2919      	cmp	r1, #25
 8002ad8:	f200 8762 	bhi.w	80039a0 <gc_execute_line+0xf90>
 8002adc:	3201      	adds	r2, #1
 8002ade:	f88d 203f 	strb.w	r2, [sp, #63]	; 0x3f
 8002ae2:	f10d 013f 	add.w	r1, sp, #63	; 0x3f
 8002ae6:	aa10      	add	r2, sp, #64	; 0x40
 8002ae8:	9806      	ldr	r0, [sp, #24]
 8002aea:	f001 fc0d 	bl	8004308 <read_float>
 8002aee:	2800      	cmp	r0, #0
 8002af0:	f000 8759 	beq.w	80039a6 <gc_execute_line+0xf96>
 8002af4:	f8dd 9040 	ldr.w	r9, [sp, #64]	; 0x40
 8002af8:	4648      	mov	r0, r9
 8002afa:	f7fd fc99 	bl	8000430 <__aeabi_f2d>
 8002afe:	f005 fcf7 	bl	80084f0 <trunc>
 8002b02:	f7fd ffc1 	bl	8000a88 <__aeabi_d2uiz>
 8002b06:	b2c7      	uxtb	r7, r0
 8002b08:	4638      	mov	r0, r7
 8002b0a:	f7fe f8e7 	bl	8000cdc <__aeabi_i2f>
 8002b0e:	4601      	mov	r1, r0
 8002b10:	4648      	mov	r0, r9
 8002b12:	f7fe f82d 	bl	8000b70 <__aeabi_fsub>
 8002b16:	4974      	ldr	r1, [pc, #464]	; (8002ce8 <gc_execute_line+0x2d8>)
 8002b18:	f7fe f934 	bl	8000d84 <__aeabi_fmul>
 8002b1c:	f7fd fc88 	bl	8000430 <__aeabi_f2d>
 8002b20:	f005 fca0 	bl	8008464 <round>
 8002b24:	f7fd ffb0 	bl	8000a88 <__aeabi_d2uiz>
 8002b28:	f1ba 0f47 	cmp.w	sl, #71	; 0x47
 8002b2c:	b280      	uxth	r0, r0
 8002b2e:	d022      	beq.n	8002b76 <gc_execute_line+0x166>
 8002b30:	f1ba 0f4d 	cmp.w	sl, #77	; 0x4d
 8002b34:	f000 80dc 	beq.w	8002cf0 <gc_execute_line+0x2e0>
 8002b38:	9b09      	ldr	r3, [sp, #36]	; 0x24
 8002b3a:	2b19      	cmp	r3, #25
 8002b3c:	d828      	bhi.n	8002b90 <gc_execute_line+0x180>
 8002b3e:	e8df f013 	tbh	[pc, r3, lsl #1]
 8002b42:	012f      	.short	0x012f
 8002b44:	01500149 	.word	0x01500149
 8002b48:	01570027 	.word	0x01570027
 8002b4c:	0027015c 	.word	0x0027015c
 8002b50:	01610027 	.word	0x01610027
 8002b54:	0173016a 	.word	0x0173016a
 8002b58:	0027017c 	.word	0x0027017c
 8002b5c:	00270181 	.word	0x00270181
 8002b60:	018d0188 	.word	0x018d0188
 8002b64:	01970192 	.word	0x01970192
 8002b68:	0027019c 	.word	0x0027019c
 8002b6c:	00270027 	.word	0x00270027
 8002b70:	01af01a8 	.word	0x01af01a8
 8002b74:	01b6      	.short	0x01b6
 8002b76:	2f28      	cmp	r7, #40	; 0x28
 8002b78:	f000 80a0 	beq.w	8002cbc <gc_execute_line+0x2ac>
 8002b7c:	d81e      	bhi.n	8002bbc <gc_execute_line+0x1ac>
 8002b7e:	2f13      	cmp	r7, #19
 8002b80:	d808      	bhi.n	8002b94 <gc_execute_line+0x184>
 8002b82:	2f11      	cmp	r7, #17
 8002b84:	d275      	bcs.n	8002c72 <gc_execute_line+0x262>
 8002b86:	2f04      	cmp	r7, #4
 8002b88:	d05d      	beq.n	8002c46 <gc_execute_line+0x236>
 8002b8a:	d312      	bcc.n	8002bb2 <gc_execute_line+0x1a2>
 8002b8c:	2f0a      	cmp	r7, #10
 8002b8e:	d055      	beq.n	8002c3c <gc_execute_line+0x22c>
 8002b90:	2414      	movs	r4, #20
 8002b92:	e075      	b.n	8002c80 <gc_execute_line+0x270>
 8002b94:	2f1c      	cmp	r7, #28
 8002b96:	d051      	beq.n	8002c3c <gc_execute_line+0x22c>
 8002b98:	d807      	bhi.n	8002baa <gc_execute_line+0x19a>
 8002b9a:	2f15      	cmp	r7, #21
 8002b9c:	d8f8      	bhi.n	8002b90 <gc_execute_line+0x180>
 8002b9e:	4b4e      	ldr	r3, [pc, #312]	; (8002cd8 <gc_execute_line+0x2c8>)
 8002ba0:	f1c7 0715 	rsb	r7, r7, #21
 8002ba4:	70df      	strb	r7, [r3, #3]
 8002ba6:	2306      	movs	r3, #6
 8002ba8:	e067      	b.n	8002c7a <gc_execute_line+0x26a>
 8002baa:	2f1e      	cmp	r7, #30
 8002bac:	d046      	beq.n	8002c3c <gc_execute_line+0x22c>
 8002bae:	2f26      	cmp	r7, #38	; 0x26
 8002bb0:	d1ee      	bne.n	8002b90 <gc_execute_line+0x180>
 8002bb2:	2e00      	cmp	r6, #0
 8002bb4:	f040 86fa 	bne.w	80039ac <gc_execute_line+0xf9c>
 8002bb8:	2602      	movs	r6, #2
 8002bba:	e020      	b.n	8002bfe <gc_execute_line+0x1ee>
 8002bbc:	2f3d      	cmp	r7, #61	; 0x3d
 8002bbe:	d078      	beq.n	8002cb2 <gc_execute_line+0x2a2>
 8002bc0:	d817      	bhi.n	8002bf2 <gc_execute_line+0x1e2>
 8002bc2:	2f35      	cmp	r7, #53	; 0x35
 8002bc4:	d03f      	beq.n	8002c46 <gc_execute_line+0x236>
 8002bc6:	d80d      	bhi.n	8002be4 <gc_execute_line+0x1d4>
 8002bc8:	2f2b      	cmp	r7, #43	; 0x2b
 8002bca:	d001      	beq.n	8002bd0 <gc_execute_line+0x1c0>
 8002bcc:	2f31      	cmp	r7, #49	; 0x31
 8002bce:	d1df      	bne.n	8002b90 <gc_execute_line+0x180>
 8002bd0:	2e00      	cmp	r6, #0
 8002bd2:	f040 86eb 	bne.w	80039ac <gc_execute_line+0xf9c>
 8002bd6:	2f31      	cmp	r7, #49	; 0x31
 8002bd8:	d164      	bne.n	8002ca4 <gc_execute_line+0x294>
 8002bda:	4b3f      	ldr	r3, [pc, #252]	; (8002cd8 <gc_execute_line+0x2c8>)
 8002bdc:	719e      	strb	r6, [r3, #6]
 8002bde:	2308      	movs	r3, #8
 8002be0:	2603      	movs	r6, #3
 8002be2:	e03e      	b.n	8002c62 <gc_execute_line+0x252>
 8002be4:	2f3b      	cmp	r7, #59	; 0x3b
 8002be6:	d8d3      	bhi.n	8002b90 <gc_execute_line+0x180>
 8002be8:	4b3b      	ldr	r3, [pc, #236]	; (8002cd8 <gc_execute_line+0x2c8>)
 8002bea:	3f36      	subs	r7, #54	; 0x36
 8002bec:	71df      	strb	r7, [r3, #7]
 8002bee:	2309      	movs	r3, #9
 8002bf0:	e043      	b.n	8002c7a <gc_execute_line+0x26a>
 8002bf2:	2f5b      	cmp	r7, #91	; 0x5b
 8002bf4:	d818      	bhi.n	8002c28 <gc_execute_line+0x218>
 8002bf6:	2f5a      	cmp	r7, #90	; 0x5a
 8002bf8:	d246      	bcs.n	8002c88 <gc_execute_line+0x278>
 8002bfa:	2f50      	cmp	r7, #80	; 0x50
 8002bfc:	d1c8      	bne.n	8002b90 <gc_execute_line+0x180>
 8002bfe:	4b36      	ldr	r3, [pc, #216]	; (8002cd8 <gc_execute_line+0x2c8>)
 8002c00:	2f26      	cmp	r7, #38	; 0x26
 8002c02:	705f      	strb	r7, [r3, #1]
 8002c04:	d15e      	bne.n	8002cc4 <gc_execute_line+0x2b4>
 8002c06:	f1a0 0214 	sub.w	r2, r0, #20
 8002c0a:	b292      	uxth	r2, r2
 8002c0c:	2a1e      	cmp	r2, #30
 8002c0e:	d8bf      	bhi.n	8002b90 <gc_execute_line+0x180>
 8002c10:	4936      	ldr	r1, [pc, #216]	; (8002cec <gc_execute_line+0x2dc>)
 8002c12:	fa21 f202 	lsr.w	r2, r1, r2
 8002c16:	07d7      	lsls	r7, r2, #31
 8002c18:	d5ba      	bpl.n	8002b90 <gc_execute_line+0x180>
 8002c1a:	270a      	movs	r7, #10
 8002c1c:	fbb0 f0f7 	udiv	r0, r0, r7
 8002c20:	3876      	subs	r0, #118	; 0x76
 8002c22:	7058      	strb	r0, [r3, #1]
 8002c24:	2301      	movs	r3, #1
 8002c26:	e01c      	b.n	8002c62 <gc_execute_line+0x252>
 8002c28:	2f5c      	cmp	r7, #92	; 0x5c
 8002c2a:	d007      	beq.n	8002c3c <gc_execute_line+0x22c>
 8002c2c:	2f5e      	cmp	r7, #94	; 0x5e
 8002c2e:	d8af      	bhi.n	8002b90 <gc_execute_line+0x180>
 8002c30:	4b29      	ldr	r3, [pc, #164]	; (8002cd8 <gc_execute_line+0x2c8>)
 8002c32:	f1c7 075e 	rsb	r7, r7, #94	; 0x5e
 8002c36:	709f      	strb	r7, [r3, #2]
 8002c38:	2305      	movs	r3, #5
 8002c3a:	e01e      	b.n	8002c7a <gc_execute_line+0x26a>
 8002c3c:	b918      	cbnz	r0, 8002c46 <gc_execute_line+0x236>
 8002c3e:	2e00      	cmp	r6, #0
 8002c40:	f040 86b4 	bne.w	80039ac <gc_execute_line+0xf9c>
 8002c44:	2601      	movs	r6, #1
 8002c46:	4b24      	ldr	r3, [pc, #144]	; (8002cd8 <gc_execute_line+0x2c8>)
 8002c48:	f007 02fd 	and.w	r2, r7, #253	; 0xfd
 8002c4c:	2a1c      	cmp	r2, #28
 8002c4e:	701f      	strb	r7, [r3, #0]
 8002c50:	d001      	beq.n	8002c56 <gc_execute_line+0x246>
 8002c52:	2f5c      	cmp	r7, #92	; 0x5c
 8002c54:	d134      	bne.n	8002cc0 <gc_execute_line+0x2b0>
 8002c56:	b108      	cbz	r0, 8002c5c <gc_execute_line+0x24c>
 8002c58:	280a      	cmp	r0, #10
 8002c5a:	d199      	bne.n	8002b90 <gc_execute_line+0x180>
 8002c5c:	4438      	add	r0, r7
 8002c5e:	7018      	strb	r0, [r3, #0]
 8002c60:	2300      	movs	r3, #0
 8002c62:	2201      	movs	r2, #1
 8002c64:	fa02 f303 	lsl.w	r3, r2, r3
 8002c68:	9a08      	ldr	r2, [sp, #32]
 8002c6a:	421a      	tst	r2, r3
 8002c6c:	d02c      	beq.n	8002cc8 <gc_execute_line+0x2b8>
 8002c6e:	2415      	movs	r4, #21
 8002c70:	e006      	b.n	8002c80 <gc_execute_line+0x270>
 8002c72:	4b19      	ldr	r3, [pc, #100]	; (8002cd8 <gc_execute_line+0x2c8>)
 8002c74:	3f11      	subs	r7, #17
 8002c76:	715f      	strb	r7, [r3, #5]
 8002c78:	2302      	movs	r3, #2
 8002c7a:	2800      	cmp	r0, #0
 8002c7c:	d0f1      	beq.n	8002c62 <gc_execute_line+0x252>
 8002c7e:	2417      	movs	r4, #23
 8002c80:	4620      	mov	r0, r4
 8002c82:	b01b      	add	sp, #108	; 0x6c
 8002c84:	e8bd 8ff0 	ldmia.w	sp!, {r4, r5, r6, r7, r8, r9, sl, fp, pc}
 8002c88:	b920      	cbnz	r0, 8002c94 <gc_execute_line+0x284>
 8002c8a:	4b13      	ldr	r3, [pc, #76]	; (8002cd8 <gc_execute_line+0x2c8>)
 8002c8c:	3f5a      	subs	r7, #90	; 0x5a
 8002c8e:	711f      	strb	r7, [r3, #4]
 8002c90:	2303      	movs	r3, #3
 8002c92:	e7e6      	b.n	8002c62 <gc_execute_line+0x252>
 8002c94:	280a      	cmp	r0, #10
 8002c96:	f47f af7b 	bne.w	8002b90 <gc_execute_line+0x180>
 8002c9a:	2f5a      	cmp	r7, #90	; 0x5a
 8002c9c:	f43f af78 	beq.w	8002b90 <gc_execute_line+0x180>
 8002ca0:	2304      	movs	r3, #4
 8002ca2:	e7de      	b.n	8002c62 <gc_execute_line+0x252>
 8002ca4:	280a      	cmp	r0, #10
 8002ca6:	f47f af73 	bne.w	8002b90 <gc_execute_line+0x180>
 8002caa:	2201      	movs	r2, #1
 8002cac:	4b0a      	ldr	r3, [pc, #40]	; (8002cd8 <gc_execute_line+0x2c8>)
 8002cae:	719a      	strb	r2, [r3, #6]
 8002cb0:	e795      	b.n	8002bde <gc_execute_line+0x1ce>
 8002cb2:	2800      	cmp	r0, #0
 8002cb4:	f47f af6c 	bne.w	8002b90 <gc_execute_line+0x180>
 8002cb8:	230a      	movs	r3, #10
 8002cba:	e7d2      	b.n	8002c62 <gc_execute_line+0x252>
 8002cbc:	2307      	movs	r3, #7
 8002cbe:	e7dc      	b.n	8002c7a <gc_execute_line+0x26a>
 8002cc0:	2300      	movs	r3, #0
 8002cc2:	e7da      	b.n	8002c7a <gc_execute_line+0x26a>
 8002cc4:	2301      	movs	r3, #1
 8002cc6:	e7d8      	b.n	8002c7a <gc_execute_line+0x26a>
 8002cc8:	9a08      	ldr	r2, [sp, #32]
 8002cca:	431a      	orrs	r2, r3
 8002ccc:	9208      	str	r2, [sp, #32]
 8002cce:	e6d1      	b.n	8002a74 <gc_execute_line+0x64>
 8002cd0:	66666666 	.word	0x66666666
 8002cd4:	40396666 	.word	0x40396666
 8002cd8:	20003d8c 	.word	0x20003d8c
 8002cdc:	20003d20 	.word	0x20003d20
 8002ce0:	20003d8d 	.word	0x20003d8d
 8002ce4:	00989680 	.word	0x00989680
 8002ce8:	42c80000 	.word	0x42c80000
 8002cec:	40100401 	.word	0x40100401
 8002cf0:	2800      	cmp	r0, #0
 8002cf2:	d1c4      	bne.n	8002c7e <gc_execute_line+0x26e>
 8002cf4:	2f09      	cmp	r7, #9
 8002cf6:	d815      	bhi.n	8002d24 <gc_execute_line+0x314>
 8002cf8:	2f07      	cmp	r7, #7
 8002cfa:	d23a      	bcs.n	8002d72 <gc_execute_line+0x362>
 8002cfc:	2f02      	cmp	r7, #2
 8002cfe:	d929      	bls.n	8002d54 <gc_execute_line+0x344>
 8002d00:	2f05      	cmp	r7, #5
 8002d02:	f63f af45 	bhi.w	8002b90 <gc_execute_line+0x180>
 8002d06:	2f04      	cmp	r7, #4
 8002d08:	4ba6      	ldr	r3, [pc, #664]	; (8002fa4 <gc_execute_line+0x594>)
 8002d0a:	d02e      	beq.n	8002d6a <gc_execute_line+0x35a>
 8002d0c:	2f05      	cmp	r7, #5
 8002d0e:	d02e      	beq.n	8002d6e <gc_execute_line+0x35e>
 8002d10:	2210      	movs	r2, #16
 8002d12:	729a      	strb	r2, [r3, #10]
 8002d14:	230c      	movs	r3, #12
 8002d16:	2201      	movs	r2, #1
 8002d18:	fa02 f303 	lsl.w	r3, r2, r3
 8002d1c:	9a08      	ldr	r2, [sp, #32]
 8002d1e:	421a      	tst	r2, r3
 8002d20:	d0d3      	beq.n	8002cca <gc_execute_line+0x2ba>
 8002d22:	e7a4      	b.n	8002c6e <gc_execute_line+0x25e>
 8002d24:	2f3f      	cmp	r7, #63	; 0x3f
 8002d26:	d031      	beq.n	8002d8c <gc_execute_line+0x37c>
 8002d28:	d809      	bhi.n	8002d3e <gc_execute_line+0x32e>
 8002d2a:	2f1e      	cmp	r7, #30
 8002d2c:	d015      	beq.n	8002d5a <gc_execute_line+0x34a>
 8002d2e:	2f3e      	cmp	r7, #62	; 0x3e
 8002d30:	f47f af2e 	bne.w	8002b90 <gc_execute_line+0x180>
 8002d34:	2201      	movs	r2, #1
 8002d36:	4b9b      	ldr	r3, [pc, #620]	; (8002fa4 <gc_execute_line+0x594>)
 8002d38:	731a      	strb	r2, [r3, #12]
 8002d3a:	230f      	movs	r3, #15
 8002d3c:	e7eb      	b.n	8002d16 <gc_execute_line+0x306>
 8002d3e:	2f43      	cmp	r7, #67	; 0x43
 8002d40:	d026      	beq.n	8002d90 <gc_execute_line+0x380>
 8002d42:	2f64      	cmp	r7, #100	; 0x64
 8002d44:	d028      	beq.n	8002d98 <gc_execute_line+0x388>
 8002d46:	2f42      	cmp	r7, #66	; 0x42
 8002d48:	f47f af22 	bne.w	8002b90 <gc_execute_line+0x180>
 8002d4c:	2201      	movs	r2, #1
 8002d4e:	4b95      	ldr	r3, [pc, #596]	; (8002fa4 <gc_execute_line+0x594>)
 8002d50:	735a      	strb	r2, [r3, #13]
 8002d52:	e7f2      	b.n	8002d3a <gc_execute_line+0x32a>
 8002d54:	b127      	cbz	r7, 8002d60 <gc_execute_line+0x350>
 8002d56:	2f01      	cmp	r7, #1
 8002d58:	d005      	beq.n	8002d66 <gc_execute_line+0x356>
 8002d5a:	4b92      	ldr	r3, [pc, #584]	; (8002fa4 <gc_execute_line+0x594>)
 8002d5c:	721f      	strb	r7, [r3, #8]
 8002d5e:	e002      	b.n	8002d66 <gc_execute_line+0x356>
 8002d60:	2203      	movs	r2, #3
 8002d62:	4b90      	ldr	r3, [pc, #576]	; (8002fa4 <gc_execute_line+0x594>)
 8002d64:	721a      	strb	r2, [r3, #8]
 8002d66:	230b      	movs	r3, #11
 8002d68:	e7d5      	b.n	8002d16 <gc_execute_line+0x306>
 8002d6a:	2220      	movs	r2, #32
 8002d6c:	e7d1      	b.n	8002d12 <gc_execute_line+0x302>
 8002d6e:	2200      	movs	r2, #0
 8002d70:	e7cf      	b.n	8002d12 <gc_execute_line+0x302>
 8002d72:	2f08      	cmp	r7, #8
 8002d74:	4b8b      	ldr	r3, [pc, #556]	; (8002fa4 <gc_execute_line+0x594>)
 8002d76:	d005      	beq.n	8002d84 <gc_execute_line+0x374>
 8002d78:	2f09      	cmp	r7, #9
 8002d7a:	d005      	beq.n	8002d88 <gc_execute_line+0x378>
 8002d7c:	2280      	movs	r2, #128	; 0x80
 8002d7e:	725a      	strb	r2, [r3, #9]
 8002d80:	230d      	movs	r3, #13
 8002d82:	e7c8      	b.n	8002d16 <gc_execute_line+0x306>
 8002d84:	2240      	movs	r2, #64	; 0x40
 8002d86:	e7fa      	b.n	8002d7e <gc_execute_line+0x36e>
 8002d88:	2200      	movs	r2, #0
 8002d8a:	e7f8      	b.n	8002d7e <gc_execute_line+0x36e>
 8002d8c:	2202      	movs	r2, #2
 8002d8e:	e7d2      	b.n	8002d36 <gc_execute_line+0x326>
 8002d90:	2201      	movs	r2, #1
 8002d92:	4b84      	ldr	r3, [pc, #528]	; (8002fa4 <gc_execute_line+0x594>)
 8002d94:	739a      	strb	r2, [r3, #14]
 8002d96:	e7d0      	b.n	8002d3a <gc_execute_line+0x32a>
 8002d98:	2201      	movs	r2, #1
 8002d9a:	4b82      	ldr	r3, [pc, #520]	; (8002fa4 <gc_execute_line+0x594>)
 8002d9c:	73da      	strb	r2, [r3, #15]
 8002d9e:	e7cc      	b.n	8002d3a <gc_execute_line+0x32a>
 8002da0:	4b80      	ldr	r3, [pc, #512]	; (8002fa4 <gc_execute_line+0x594>)
 8002da2:	f045 0508 	orr.w	r5, r5, #8
 8002da6:	f8c3 9050 	str.w	r9, [r3, #80]	; 0x50
 8002daa:	230d      	movs	r3, #13
 8002dac:	2701      	movs	r7, #1
 8002dae:	409f      	lsls	r7, r3
 8002db0:	423c      	tst	r4, r7
 8002db2:	f040 8601 	bne.w	80039b8 <gc_execute_line+0xfa8>
 8002db6:	f240 3161 	movw	r1, #865	; 0x361
 8002dba:	fa41 f303 	asr.w	r3, r1, r3
 8002dbe:	07d9      	lsls	r1, r3, #31
 8002dc0:	d506      	bpl.n	8002dd0 <gc_execute_line+0x3c0>
 8002dc2:	2100      	movs	r1, #0
 8002dc4:	4648      	mov	r0, r9
 8002dc6:	f7fe f97b 	bl	80010c0 <__aeabi_fcmplt>
 8002dca:	2800      	cmp	r0, #0
 8002dcc:	f040 85f7 	bne.w	80039be <gc_execute_line+0xfae>
 8002dd0:	433c      	orrs	r4, r7
 8002dd2:	e64f      	b.n	8002a74 <gc_execute_line+0x64>
 8002dd4:	4b73      	ldr	r3, [pc, #460]	; (8002fa4 <gc_execute_line+0x594>)
 8002dd6:	f045 0510 	orr.w	r5, r5, #16
 8002dda:	f8c3 9054 	str.w	r9, [r3, #84]	; 0x54
 8002dde:	230e      	movs	r3, #14
 8002de0:	e7e4      	b.n	8002dac <gc_execute_line+0x39c>
 8002de2:	4b70      	ldr	r3, [pc, #448]	; (8002fa4 <gc_execute_line+0x594>)
 8002de4:	f045 0520 	orr.w	r5, r5, #32
 8002de8:	f8c3 9058 	str.w	r9, [r3, #88]	; 0x58
 8002dec:	230f      	movs	r3, #15
 8002dee:	e7dd      	b.n	8002dac <gc_execute_line+0x39c>
 8002df0:	4b6c      	ldr	r3, [pc, #432]	; (8002fa4 <gc_execute_line+0x594>)
 8002df2:	f883 705c 	strb.w	r7, [r3, #92]	; 0x5c
 8002df6:	2310      	movs	r3, #16
 8002df8:	e7d8      	b.n	8002dac <gc_execute_line+0x39c>
 8002dfa:	4b6a      	ldr	r3, [pc, #424]	; (8002fa4 <gc_execute_line+0x594>)
 8002dfc:	f8c3 9010 	str.w	r9, [r3, #16]
 8002e00:	2300      	movs	r3, #0
 8002e02:	e7d3      	b.n	8002dac <gc_execute_line+0x39c>
 8002e04:	4b67      	ldr	r3, [pc, #412]	; (8002fa4 <gc_execute_line+0x594>)
 8002e06:	f8c3 9014 	str.w	r9, [r3, #20]
 8002e0a:	9b07      	ldr	r3, [sp, #28]
 8002e0c:	f043 0301 	orr.w	r3, r3, #1
 8002e10:	9307      	str	r3, [sp, #28]
 8002e12:	2301      	movs	r3, #1
 8002e14:	e7ca      	b.n	8002dac <gc_execute_line+0x39c>
 8002e16:	4b63      	ldr	r3, [pc, #396]	; (8002fa4 <gc_execute_line+0x594>)
 8002e18:	f8c3 9018 	str.w	r9, [r3, #24]
 8002e1c:	9b07      	ldr	r3, [sp, #28]
 8002e1e:	f043 0302 	orr.w	r3, r3, #2
 8002e22:	9307      	str	r3, [sp, #28]
 8002e24:	2302      	movs	r3, #2
 8002e26:	e7c1      	b.n	8002dac <gc_execute_line+0x39c>
 8002e28:	4b5e      	ldr	r3, [pc, #376]	; (8002fa4 <gc_execute_line+0x594>)
 8002e2a:	f8c3 901c 	str.w	r9, [r3, #28]
 8002e2e:	9b07      	ldr	r3, [sp, #28]
 8002e30:	f043 0304 	orr.w	r3, r3, #4
 8002e34:	9307      	str	r3, [sp, #28]
 8002e36:	2303      	movs	r3, #3
 8002e38:	e7b8      	b.n	8002dac <gc_execute_line+0x39c>
 8002e3a:	4b5a      	ldr	r3, [pc, #360]	; (8002fa4 <gc_execute_line+0x594>)
 8002e3c:	f883 702c 	strb.w	r7, [r3, #44]	; 0x2c
 8002e40:	2304      	movs	r3, #4
 8002e42:	e7b3      	b.n	8002dac <gc_execute_line+0x39c>
 8002e44:	4648      	mov	r0, r9
 8002e46:	f7fe f979 	bl	800113c <__aeabi_f2iz>
 8002e4a:	4b56      	ldr	r3, [pc, #344]	; (8002fa4 <gc_execute_line+0x594>)
 8002e4c:	6318      	str	r0, [r3, #48]	; 0x30
 8002e4e:	2305      	movs	r3, #5
 8002e50:	e7ac      	b.n	8002dac <gc_execute_line+0x39c>
 8002e52:	4b54      	ldr	r3, [pc, #336]	; (8002fa4 <gc_execute_line+0x594>)
 8002e54:	f8c3 9034 	str.w	r9, [r3, #52]	; 0x34
 8002e58:	2306      	movs	r3, #6
 8002e5a:	e7a7      	b.n	8002dac <gc_execute_line+0x39c>
 8002e5c:	4b51      	ldr	r3, [pc, #324]	; (8002fa4 <gc_execute_line+0x594>)
 8002e5e:	f8c3 9060 	str.w	r9, [r3, #96]	; 0x60
 8002e62:	2311      	movs	r3, #17
 8002e64:	e7a2      	b.n	8002dac <gc_execute_line+0x39c>
 8002e66:	4b4f      	ldr	r3, [pc, #316]	; (8002fa4 <gc_execute_line+0x594>)
 8002e68:	f8c3 9038 	str.w	r9, [r3, #56]	; 0x38
 8002e6c:	2307      	movs	r3, #7
 8002e6e:	e79d      	b.n	8002dac <gc_execute_line+0x39c>
 8002e70:	4b4c      	ldr	r3, [pc, #304]	; (8002fa4 <gc_execute_line+0x594>)
 8002e72:	f8c3 903c 	str.w	r9, [r3, #60]	; 0x3c
 8002e76:	2308      	movs	r3, #8
 8002e78:	e798      	b.n	8002dac <gc_execute_line+0x39c>
 8002e7a:	494b      	ldr	r1, [pc, #300]	; (8002fa8 <gc_execute_line+0x598>)
 8002e7c:	4648      	mov	r0, r9
 8002e7e:	f7fe f93d 	bl	80010fc <__aeabi_fcmpgt>
 8002e82:	2800      	cmp	r0, #0
 8002e84:	f040 8595 	bne.w	80039b2 <gc_execute_line+0xfa2>
 8002e88:	4b46      	ldr	r3, [pc, #280]	; (8002fa4 <gc_execute_line+0x594>)
 8002e8a:	f883 7040 	strb.w	r7, [r3, #64]	; 0x40
 8002e8e:	2309      	movs	r3, #9
 8002e90:	e78c      	b.n	8002dac <gc_execute_line+0x39c>
 8002e92:	4b44      	ldr	r3, [pc, #272]	; (8002fa4 <gc_execute_line+0x594>)
 8002e94:	f045 0501 	orr.w	r5, r5, #1
 8002e98:	f8c3 9044 	str.w	r9, [r3, #68]	; 0x44
 8002e9c:	230a      	movs	r3, #10
 8002e9e:	e785      	b.n	8002dac <gc_execute_line+0x39c>
 8002ea0:	4b40      	ldr	r3, [pc, #256]	; (8002fa4 <gc_execute_line+0x594>)
 8002ea2:	f045 0502 	orr.w	r5, r5, #2
 8002ea6:	f8c3 9048 	str.w	r9, [r3, #72]	; 0x48
 8002eaa:	230b      	movs	r3, #11
 8002eac:	e77e      	b.n	8002dac <gc_execute_line+0x39c>
 8002eae:	4b3d      	ldr	r3, [pc, #244]	; (8002fa4 <gc_execute_line+0x594>)
 8002eb0:	f045 0504 	orr.w	r5, r5, #4
 8002eb4:	f8c3 904c 	str.w	r9, [r3, #76]	; 0x4c
 8002eb8:	230c      	movs	r3, #12
 8002eba:	e777      	b.n	8002dac <gc_execute_line+0x39c>
 8002ebc:	4f39      	ldr	r7, [pc, #228]	; (8002fa4 <gc_execute_line+0x594>)
 8002ebe:	78bb      	ldrb	r3, [r7, #2]
 8002ec0:	2b01      	cmp	r3, #1
 8002ec2:	d117      	bne.n	8002ef4 <gc_execute_line+0x4e4>
 8002ec4:	2e02      	cmp	r6, #2
 8002ec6:	d106      	bne.n	8002ed6 <gc_execute_line+0x4c6>
 8002ec8:	787b      	ldrb	r3, [r7, #1]
 8002eca:	2b50      	cmp	r3, #80	; 0x50
 8002ecc:	d003      	beq.n	8002ed6 <gc_execute_line+0x4c6>
 8002ece:	b113      	cbz	r3, 8002ed6 <gc_execute_line+0x4c6>
 8002ed0:	07e7      	lsls	r7, r4, #31
 8002ed2:	f140 8580 	bpl.w	80039d6 <gc_execute_line+0xfc6>
 8002ed6:	f414 7f80 	tst.w	r4, #256	; 0x100
 8002eda:	bf08      	it	eq
 8002edc:	f8d8 3010 	ldreq.w	r3, [r8, #16]
 8002ee0:	4f30      	ldr	r7, [pc, #192]	; (8002fa4 <gc_execute_line+0x594>)
 8002ee2:	bf08      	it	eq
 8002ee4:	63fb      	streq	r3, [r7, #60]	; 0x3c
 8002ee6:	783b      	ldrb	r3, [r7, #0]
 8002ee8:	2b04      	cmp	r3, #4
 8002eea:	d110      	bne.n	8002f0e <gc_execute_line+0x4fe>
 8002eec:	0661      	lsls	r1, r4, #25
 8002eee:	d40c      	bmi.n	8002f0a <gc_execute_line+0x4fa>
 8002ef0:	241c      	movs	r4, #28
 8002ef2:	e6c5      	b.n	8002c80 <gc_execute_line+0x270>
 8002ef4:	f898 3001 	ldrb.w	r3, [r8, #1]
 8002ef8:	2b00      	cmp	r3, #0
 8002efa:	d1ec      	bne.n	8002ed6 <gc_execute_line+0x4c6>
 8002efc:	07e0      	lsls	r0, r4, #31
 8002efe:	f53f add5 	bmi.w	8002aac <gc_execute_line+0x9c>
 8002f02:	f8d8 3014 	ldr.w	r3, [r8, #20]
 8002f06:	613b      	str	r3, [r7, #16]
 8002f08:	e7e5      	b.n	8002ed6 <gc_execute_line+0x4c6>
 8002f0a:	f024 0440 	bic.w	r4, r4, #64	; 0x40
 8002f0e:	797b      	ldrb	r3, [r7, #5]
 8002f10:	2b00      	cmp	r3, #0
 8002f12:	d041      	beq.n	8002f98 <gc_execute_line+0x588>
 8002f14:	2b01      	cmp	r3, #1
 8002f16:	bf0c      	ite	eq
 8002f18:	2301      	moveq	r3, #1
 8002f1a:	2300      	movne	r3, #0
 8002f1c:	930b      	str	r3, [sp, #44]	; 0x2c
 8002f1e:	bf0c      	ite	eq
 8002f20:	2300      	moveq	r3, #0
 8002f22:	2302      	movne	r3, #2
 8002f24:	930a      	str	r3, [sp, #40]	; 0x28
 8002f26:	bf0c      	ite	eq
 8002f28:	2302      	moveq	r3, #2
 8002f2a:	2301      	movne	r3, #1
 8002f2c:	9309      	str	r3, [sp, #36]	; 0x24
 8002f2e:	78fb      	ldrb	r3, [r7, #3]
 8002f30:	2b01      	cmp	r3, #1
 8002f32:	d03f      	beq.n	8002fb4 <gc_execute_line+0x5a4>
 8002f34:	2e03      	cmp	r6, #3
 8002f36:	d105      	bne.n	8002f44 <gc_execute_line+0x534>
 8002f38:	79bb      	ldrb	r3, [r7, #6]
 8002f3a:	2b01      	cmp	r3, #1
 8002f3c:	d102      	bne.n	8002f44 <gc_execute_line+0x534>
 8002f3e:	2d04      	cmp	r5, #4
 8002f40:	f040 8543 	bne.w	80039ca <gc_execute_line+0xfba>
 8002f44:	f8df e068 	ldr.w	lr, [pc, #104]	; 8002fb0 <gc_execute_line+0x5a0>
 8002f48:	af14      	add	r7, sp, #80	; 0x50
 8002f4a:	e8be 000f 	ldmia.w	lr!, {r0, r1, r2, r3}
 8002f4e:	c70f      	stmia	r7!, {r0, r1, r2, r3}
 8002f50:	e89e 0003 	ldmia.w	lr, {r0, r1}
 8002f54:	9b08      	ldr	r3, [sp, #32]
 8002f56:	e887 0003 	stmia.w	r7, {r0, r1}
 8002f5a:	f413 7f00 	tst.w	r3, #512	; 0x200
 8002f5e:	4f11      	ldr	r7, [pc, #68]	; (8002fa4 <gc_execute_line+0x594>)
 8002f60:	d145      	bne.n	8002fee <gc_execute_line+0x5de>
 8002f62:	f897 9000 	ldrb.w	r9, [r7]
 8002f66:	f1b9 0f0a 	cmp.w	r9, #10
 8002f6a:	d050      	beq.n	800300e <gc_execute_line+0x5fe>
 8002f6c:	f1b9 0f5c 	cmp.w	r9, #92	; 0x5c
 8002f70:	f000 8115 	beq.w	800319e <gc_execute_line+0x78e>
 8002f74:	2e03      	cmp	r6, #3
 8002f76:	f040 8147 	bne.w	8003208 <gc_execute_line+0x7f8>
 8002f7a:	f1b9 0f1e 	cmp.w	r9, #30
 8002f7e:	f000 8181 	beq.w	8003284 <gc_execute_line+0x874>
 8002f82:	f1b9 0f35 	cmp.w	r9, #53	; 0x35
 8002f86:	f000 81ab 	beq.w	80032e0 <gc_execute_line+0x8d0>
 8002f8a:	f1b9 0f1c 	cmp.w	r9, #28
 8002f8e:	f040 8134 	bne.w	80031fa <gc_execute_line+0x7ea>
 8002f92:	4906      	ldr	r1, [pc, #24]	; (8002fac <gc_execute_line+0x59c>)
 8002f94:	2006      	movs	r0, #6
 8002f96:	e177      	b.n	8003288 <gc_execute_line+0x878>
 8002f98:	2202      	movs	r2, #2
 8002f9a:	920b      	str	r2, [sp, #44]	; 0x2c
 8002f9c:	2201      	movs	r2, #1
 8002f9e:	920a      	str	r2, [sp, #40]	; 0x28
 8002fa0:	e7c4      	b.n	8002f2c <gc_execute_line+0x51c>
 8002fa2:	bf00      	nop
 8002fa4:	20003d8c 	.word	0x20003d8c
 8002fa8:	437f0000 	.word	0x437f0000
 8002fac:	20003da0 	.word	0x20003da0
 8002fb0:	20003d58 	.word	0x20003d58
 8002fb4:	f04f 0900 	mov.w	r9, #0
 8002fb8:	f8df a300 	ldr.w	sl, [pc, #768]	; 80032bc <gc_execute_line+0x8ac>
 8002fbc:	fa45 f309 	asr.w	r3, r5, r9
 8002fc0:	07da      	lsls	r2, r3, #31
 8002fc2:	d50c      	bpl.n	8002fde <gc_execute_line+0x5ce>
 8002fc4:	f8da 0000 	ldr.w	r0, [sl]
 8002fc8:	f7fd fa32 	bl	8000430 <__aeabi_f2d>
 8002fcc:	a3b4      	add	r3, pc, #720	; (adr r3, 80032a0 <gc_execute_line+0x890>)
 8002fce:	e9d3 2300 	ldrd	r2, r3, [r3]
 8002fd2:	f7fd fa81 	bl	80004d8 <__aeabi_dmul>
 8002fd6:	f7fd fd77 	bl	8000ac8 <__aeabi_d2f>
 8002fda:	f8ca 0000 	str.w	r0, [sl]
 8002fde:	f109 0901 	add.w	r9, r9, #1
 8002fe2:	f1b9 0f06 	cmp.w	r9, #6
 8002fe6:	f10a 0a04 	add.w	sl, sl, #4
 8002fea:	d1e7      	bne.n	8002fbc <gc_execute_line+0x5ac>
 8002fec:	e7a2      	b.n	8002f34 <gc_execute_line+0x524>
 8002fee:	79f8      	ldrb	r0, [r7, #7]
 8002ff0:	2806      	cmp	r0, #6
 8002ff2:	d901      	bls.n	8002ff8 <gc_execute_line+0x5e8>
 8002ff4:	241d      	movs	r4, #29
 8002ff6:	e643      	b.n	8002c80 <gc_execute_line+0x270>
 8002ff8:	f898 3006 	ldrb.w	r3, [r8, #6]
 8002ffc:	4283      	cmp	r3, r0
 8002ffe:	d0b0      	beq.n	8002f62 <gc_execute_line+0x552>
 8003000:	a914      	add	r1, sp, #80	; 0x50
 8003002:	f003 f876 	bl	80060f2 <settings_read_coord_data>
 8003006:	2800      	cmp	r0, #0
 8003008:	d1ab      	bne.n	8002f62 <gc_execute_line+0x552>
 800300a:	2407      	movs	r4, #7
 800300c:	e638      	b.n	8002c80 <gc_execute_line+0x270>
 800300e:	b90d      	cbnz	r5, 8003014 <gc_execute_line+0x604>
 8003010:	241a      	movs	r4, #26
 8003012:	e635      	b.n	8002c80 <gc_execute_line+0x270>
 8003014:	f014 0f50 	tst.w	r4, #80	; 0x50
 8003018:	f43f af6a 	beq.w	8002ef0 <gc_execute_line+0x4e0>
 800301c:	6b78      	ldr	r0, [r7, #52]	; 0x34
 800301e:	f7fd fa07 	bl	8000430 <__aeabi_f2d>
 8003022:	f005 fa65 	bl	80084f0 <trunc>
 8003026:	f7fd fd2f 	bl	8000a88 <__aeabi_d2uiz>
 800302a:	b2c0      	uxtb	r0, r0
 800302c:	2806      	cmp	r0, #6
 800302e:	d8e1      	bhi.n	8002ff4 <gc_execute_line+0x5e4>
 8003030:	f897 302c 	ldrb.w	r3, [r7, #44]	; 0x2c
 8003034:	2b14      	cmp	r3, #20
 8003036:	d005      	beq.n	8003044 <gc_execute_line+0x634>
 8003038:	2b02      	cmp	r3, #2
 800303a:	f47f ada9 	bne.w	8002b90 <gc_execute_line+0x180>
 800303e:	0623      	lsls	r3, r4, #24
 8003040:	f53f ada6 	bmi.w	8002b90 <gc_execute_line+0x180>
 8003044:	f024 0450 	bic.w	r4, r4, #80	; 0x50
 8003048:	2800      	cmp	r0, #0
 800304a:	f000 80a1 	beq.w	8003190 <gc_execute_line+0x780>
 800304e:	3801      	subs	r0, #1
 8003050:	b2c3      	uxtb	r3, r0
 8003052:	9306      	str	r3, [sp, #24]
 8003054:	4994      	ldr	r1, [pc, #592]	; (80032a8 <gc_execute_line+0x898>)
 8003056:	9806      	ldr	r0, [sp, #24]
 8003058:	f003 f84b 	bl	80060f2 <settings_read_coord_data>
 800305c:	2800      	cmp	r0, #0
 800305e:	d0d4      	beq.n	800300a <gc_execute_line+0x5fa>
 8003060:	f04f 0800 	mov.w	r8, #0
 8003064:	f897 302c 	ldrb.w	r3, [r7, #44]	; 0x2c
 8003068:	4f90      	ldr	r7, [pc, #576]	; (80032ac <gc_execute_line+0x89c>)
 800306a:	930c      	str	r3, [sp, #48]	; 0x30
 800306c:	f8df a238 	ldr.w	sl, [pc, #568]	; 80032a8 <gc_execute_line+0x898>
 8003070:	6ebb      	ldr	r3, [r7, #104]	; 0x68
 8003072:	f1aa 0914 	sub.w	r9, sl, #20
 8003076:	930d      	str	r3, [sp, #52]	; 0x34
 8003078:	3720      	adds	r7, #32
 800307a:	fa45 f208 	asr.w	r2, r5, r8
 800307e:	07d1      	lsls	r1, r2, #31
 8003080:	d515      	bpl.n	80030ae <gc_execute_line+0x69e>
 8003082:	9b0c      	ldr	r3, [sp, #48]	; 0x30
 8003084:	2b14      	cmp	r3, #20
 8003086:	f040 8085 	bne.w	8003194 <gc_execute_line+0x784>
 800308a:	6b39      	ldr	r1, [r7, #48]	; 0x30
 800308c:	6838      	ldr	r0, [r7, #0]
 800308e:	f7fd fd6f 	bl	8000b70 <__aeabi_fsub>
 8003092:	f8da 1030 	ldr.w	r1, [sl, #48]	; 0x30
 8003096:	f7fd fd6b 	bl	8000b70 <__aeabi_fsub>
 800309a:	f1b8 0f02 	cmp.w	r8, #2
 800309e:	f8ca 0000 	str.w	r0, [sl]
 80030a2:	d104      	bne.n	80030ae <gc_execute_line+0x69e>
 80030a4:	990d      	ldr	r1, [sp, #52]	; 0x34
 80030a6:	f7fd fd63 	bl	8000b70 <__aeabi_fsub>
 80030aa:	f8c9 001c 	str.w	r0, [r9, #28]
 80030ae:	f108 0801 	add.w	r8, r8, #1
 80030b2:	f1b8 0f06 	cmp.w	r8, #6
 80030b6:	f10a 0a04 	add.w	sl, sl, #4
 80030ba:	f107 0704 	add.w	r7, r7, #4
 80030be:	d1dc      	bne.n	800307a <gc_execute_line+0x66a>
 80030c0:	4b7b      	ldr	r3, [pc, #492]	; (80032b0 <gc_execute_line+0x8a0>)
 80030c2:	785f      	ldrb	r7, [r3, #1]
 80030c4:	4699      	mov	r9, r3
 80030c6:	2f50      	cmp	r7, #80	; 0x50
 80030c8:	f040 8110 	bne.w	80032ec <gc_execute_line+0x8dc>
 80030cc:	2d00      	cmp	r5, #0
 80030ce:	f040 847f 	bne.w	80039d0 <gc_execute_line+0xfc0>
 80030d2:	f01b 0201 	ands.w	r2, fp, #1
 80030d6:	bf0a      	itet	eq
 80030d8:	f424 7448 	biceq.w	r4, r4, #800	; 0x320
 80030dc:	f024 0421 	bicne.w	r4, r4, #33	; 0x21
 80030e0:	f024 0401 	biceq.w	r4, r4, #1
 80030e4:	b10e      	cbz	r6, 80030ea <gc_execute_line+0x6da>
 80030e6:	f424 447c 	bic.w	r4, r4, #64512	; 0xfc00
 80030ea:	4f71      	ldr	r7, [pc, #452]	; (80032b0 <gc_execute_line+0x8a0>)
 80030ec:	7b3b      	ldrb	r3, [r7, #12]
 80030ee:	b123      	cbz	r3, 80030fa <gc_execute_line+0x6ea>
 80030f0:	0663      	lsls	r3, r4, #25
 80030f2:	f57f aefd 	bpl.w	8002ef0 <gc_execute_line+0x4e0>
 80030f6:	f024 0440 	bic.w	r4, r4, #64	; 0x40
 80030fa:	7b7b      	ldrb	r3, [r7, #13]
 80030fc:	b143      	cbz	r3, 8003110 <gc_execute_line+0x700>
 80030fe:	4b6d      	ldr	r3, [pc, #436]	; (80032b4 <gc_execute_line+0x8a4>)
 8003100:	4023      	ands	r3, r4
 8003102:	2b00      	cmp	r3, #0
 8003104:	f43f aef4 	beq.w	8002ef0 <gc_execute_line+0x4e0>
 8003108:	f424 3400 	bic.w	r4, r4, #131072	; 0x20000
 800310c:	f024 0450 	bic.w	r4, r4, #80	; 0x50
 8003110:	7bbb      	ldrb	r3, [r7, #14]
 8003112:	b12b      	cbz	r3, 8003120 <gc_execute_line+0x710>
 8003114:	f414 3f40 	tst.w	r4, #196608	; 0x30000
 8003118:	f43f aeea 	beq.w	8002ef0 <gc_execute_line+0x4e0>
 800311c:	f424 3440 	bic.w	r4, r4, #196608	; 0x30000
 8003120:	7bfb      	ldrb	r3, [r7, #15]
 8003122:	b143      	cbz	r3, 8003136 <gc_execute_line+0x726>
 8003124:	4b64      	ldr	r3, [pc, #400]	; (80032b8 <gc_execute_line+0x8a8>)
 8003126:	4023      	ands	r3, r4
 8003128:	2b00      	cmp	r3, #0
 800312a:	f43f aee1 	beq.w	8002ef0 <gc_execute_line+0x4e0>
 800312e:	f424 3400 	bic.w	r4, r4, #131072	; 0x20000
 8003132:	f024 0440 	bic.w	r4, r4, #64	; 0x40
 8003136:	2c00      	cmp	r4, #0
 8003138:	f040 8459 	bne.w	80039ee <gc_execute_line+0xfde>
 800313c:	9411      	str	r4, [sp, #68]	; 0x44
 800313e:	9412      	str	r4, [sp, #72]	; 0x48
 8003140:	9413      	str	r4, [sp, #76]	; 0x4c
 8003142:	2a00      	cmp	r2, #0
 8003144:	f000 8263 	beq.w	800360e <gc_execute_line+0xbfe>
 8003148:	9b08      	ldr	r3, [sp, #32]
 800314a:	f033 0349 	bics.w	r3, r3, #73	; 0x49
 800314e:	f040 8451 	bne.w	80039f4 <gc_execute_line+0xfe4>
 8003152:	783b      	ldrb	r3, [r7, #0]
 8003154:	2b35      	cmp	r3, #53	; 0x35
 8003156:	d002      	beq.n	800315e <gc_execute_line+0x74e>
 8003158:	2b00      	cmp	r3, #0
 800315a:	f040 844b 	bne.w	80039f4 <gc_execute_line+0xfe4>
 800315e:	4d53      	ldr	r5, [pc, #332]	; (80032ac <gc_execute_line+0x89c>)
 8003160:	4953      	ldr	r1, [pc, #332]	; (80032b0 <gc_execute_line+0x8a0>)
 8003162:	692b      	ldr	r3, [r5, #16]
 8003164:	7a2a      	ldrb	r2, [r5, #8]
 8003166:	9312      	str	r3, [sp, #72]	; 0x48
 8003168:	7a6b      	ldrb	r3, [r5, #9]
 800316a:	a811      	add	r0, sp, #68	; 0x44
 800316c:	4313      	orrs	r3, r2
 800316e:	f88d 304c 	strb.w	r3, [sp, #76]	; 0x4c
 8003172:	f000 fc51 	bl	8003a18 <jog_execute>
 8003176:	4604      	mov	r4, r0
 8003178:	2800      	cmp	r0, #0
 800317a:	f47f ad81 	bne.w	8002c80 <gc_execute_line+0x270>
 800317e:	4e4f      	ldr	r6, [pc, #316]	; (80032bc <gc_execute_line+0x8ac>)
 8003180:	3520      	adds	r5, #32
 8003182:	ce0f      	ldmia	r6!, {r0, r1, r2, r3}
 8003184:	c50f      	stmia	r5!, {r0, r1, r2, r3}
 8003186:	e896 0003 	ldmia.w	r6, {r0, r1}
 800318a:	e885 0003 	stmia.w	r5, {r0, r1}
 800318e:	e577      	b.n	8002c80 <gc_execute_line+0x270>
 8003190:	79fb      	ldrb	r3, [r7, #7]
 8003192:	e75e      	b.n	8003052 <gc_execute_line+0x642>
 8003194:	f8da 2030 	ldr.w	r2, [sl, #48]	; 0x30
 8003198:	f8ca 2000 	str.w	r2, [sl]
 800319c:	e787      	b.n	80030ae <gc_execute_line+0x69e>
 800319e:	2d00      	cmp	r5, #0
 80031a0:	f43f af36 	beq.w	8003010 <gc_execute_line+0x600>
 80031a4:	f04f 0800 	mov.w	r8, #0
 80031a8:	4f40      	ldr	r7, [pc, #256]	; (80032ac <gc_execute_line+0x89c>)
 80031aa:	f8df 9110 	ldr.w	r9, [pc, #272]	; 80032bc <gc_execute_line+0x8ac>
 80031ae:	6ebb      	ldr	r3, [r7, #104]	; 0x68
 80031b0:	f1a9 0a44 	sub.w	sl, r9, #68	; 0x44
 80031b4:	9306      	str	r3, [sp, #24]
 80031b6:	3720      	adds	r7, #32
 80031b8:	fa45 f108 	asr.w	r1, r5, r8
 80031bc:	07ca      	lsls	r2, r1, #31
 80031be:	d51f      	bpl.n	8003200 <gc_execute_line+0x7f0>
 80031c0:	ab14      	add	r3, sp, #80	; 0x50
 80031c2:	f853 1028 	ldr.w	r1, [r3, r8, lsl #2]
 80031c6:	6838      	ldr	r0, [r7, #0]
 80031c8:	f7fd fcd2 	bl	8000b70 <__aeabi_fsub>
 80031cc:	f8d9 1000 	ldr.w	r1, [r9]
 80031d0:	f7fd fcce 	bl	8000b70 <__aeabi_fsub>
 80031d4:	f1b8 0f02 	cmp.w	r8, #2
 80031d8:	f8c9 0000 	str.w	r0, [r9]
 80031dc:	d104      	bne.n	80031e8 <gc_execute_line+0x7d8>
 80031de:	9906      	ldr	r1, [sp, #24]
 80031e0:	f7fd fcc6 	bl	8000b70 <__aeabi_fsub>
 80031e4:	f8ca 004c 	str.w	r0, [sl, #76]	; 0x4c
 80031e8:	f108 0801 	add.w	r8, r8, #1
 80031ec:	f1b8 0f06 	cmp.w	r8, #6
 80031f0:	f107 0704 	add.w	r7, r7, #4
 80031f4:	f109 0904 	add.w	r9, r9, #4
 80031f8:	d1de      	bne.n	80031b8 <gc_execute_line+0x7a8>
 80031fa:	2300      	movs	r3, #0
 80031fc:	9306      	str	r3, [sp, #24]
 80031fe:	e75f      	b.n	80030c0 <gc_execute_line+0x6b0>
 8003200:	6b39      	ldr	r1, [r7, #48]	; 0x30
 8003202:	f8c9 1000 	str.w	r1, [r9]
 8003206:	e7ef      	b.n	80031e8 <gc_execute_line+0x7d8>
 8003208:	2d00      	cmp	r5, #0
 800320a:	f43f aeb6 	beq.w	8002f7a <gc_execute_line+0x56a>
 800320e:	f04f 0a00 	mov.w	sl, #0
 8003212:	793b      	ldrb	r3, [r7, #4]
 8003214:	4a25      	ldr	r2, [pc, #148]	; (80032ac <gc_execute_line+0x89c>)
 8003216:	9306      	str	r3, [sp, #24]
 8003218:	6e93      	ldr	r3, [r2, #104]	; 0x68
 800321a:	4f28      	ldr	r7, [pc, #160]	; (80032bc <gc_execute_line+0x8ac>)
 800321c:	930c      	str	r3, [sp, #48]	; 0x30
 800321e:	f102 0820 	add.w	r8, r2, #32
 8003222:	fa45 f10a 	asr.w	r1, r5, sl
 8003226:	07cb      	lsls	r3, r1, #31
 8003228:	d40c      	bmi.n	8003244 <gc_execute_line+0x834>
 800322a:	f8d8 1000 	ldr.w	r1, [r8]
 800322e:	6039      	str	r1, [r7, #0]
 8003230:	f10a 0a01 	add.w	sl, sl, #1
 8003234:	f1ba 0f06 	cmp.w	sl, #6
 8003238:	f108 0804 	add.w	r8, r8, #4
 800323c:	f107 0704 	add.w	r7, r7, #4
 8003240:	d1ef      	bne.n	8003222 <gc_execute_line+0x812>
 8003242:	e69a      	b.n	8002f7a <gc_execute_line+0x56a>
 8003244:	f1b9 0f35 	cmp.w	r9, #53	; 0x35
 8003248:	d0f2      	beq.n	8003230 <gc_execute_line+0x820>
 800324a:	9b06      	ldr	r3, [sp, #24]
 800324c:	b99b      	cbnz	r3, 8003276 <gc_execute_line+0x866>
 800324e:	ab14      	add	r3, sp, #80	; 0x50
 8003250:	f8d8 1030 	ldr.w	r1, [r8, #48]	; 0x30
 8003254:	f853 002a 	ldr.w	r0, [r3, sl, lsl #2]
 8003258:	f7fd fc8c 	bl	8000b74 <__addsf3>
 800325c:	6839      	ldr	r1, [r7, #0]
 800325e:	f7fd fc89 	bl	8000b74 <__addsf3>
 8003262:	f1ba 0f02 	cmp.w	sl, #2
 8003266:	6038      	str	r0, [r7, #0]
 8003268:	d1e2      	bne.n	8003230 <gc_execute_line+0x820>
 800326a:	990c      	ldr	r1, [sp, #48]	; 0x30
 800326c:	f7fd fc82 	bl	8000b74 <__addsf3>
 8003270:	4b0f      	ldr	r3, [pc, #60]	; (80032b0 <gc_execute_line+0x8a0>)
 8003272:	64d8      	str	r0, [r3, #76]	; 0x4c
 8003274:	e7dc      	b.n	8003230 <gc_execute_line+0x820>
 8003276:	6838      	ldr	r0, [r7, #0]
 8003278:	f8d8 1000 	ldr.w	r1, [r8]
 800327c:	f7fd fc7a 	bl	8000b74 <__addsf3>
 8003280:	6038      	str	r0, [r7, #0]
 8003282:	e7d5      	b.n	8003230 <gc_execute_line+0x820>
 8003284:	2007      	movs	r0, #7
 8003286:	4908      	ldr	r1, [pc, #32]	; (80032a8 <gc_execute_line+0x898>)
 8003288:	f002 ff33 	bl	80060f2 <settings_read_coord_data>
 800328c:	2800      	cmp	r0, #0
 800328e:	f43f aebc 	beq.w	800300a <gc_execute_line+0x5fa>
 8003292:	b9ad      	cbnz	r5, 80032c0 <gc_execute_line+0x8b0>
 8003294:	9506      	str	r5, [sp, #24]
 8003296:	462e      	mov	r6, r5
 8003298:	e712      	b.n	80030c0 <gc_execute_line+0x6b0>
 800329a:	bf00      	nop
 800329c:	f3af 8000 	nop.w
 80032a0:	66666666 	.word	0x66666666
 80032a4:	40396666 	.word	0x40396666
 80032a8:	20003da0 	.word	0x20003da0
 80032ac:	20003d20 	.word	0x20003d20
 80032b0:	20003d8c 	.word	0x20003d8c
 80032b4:	00020050 	.word	0x00020050
 80032b8:	00020040 	.word	0x00020040
 80032bc:	20003dd0 	.word	0x20003dd0
 80032c0:	2300      	movs	r3, #0
 80032c2:	49bf      	ldr	r1, [pc, #764]	; (80035c0 <gc_execute_line+0xbb0>)
 80032c4:	48bf      	ldr	r0, [pc, #764]	; (80035c4 <gc_execute_line+0xbb4>)
 80032c6:	fa45 f203 	asr.w	r2, r5, r3
 80032ca:	07d7      	lsls	r7, r2, #31
 80032cc:	d404      	bmi.n	80032d8 <gc_execute_line+0x8c8>
 80032ce:	009a      	lsls	r2, r3, #2
 80032d0:	1857      	adds	r7, r2, r1
 80032d2:	4402      	add	r2, r0
 80032d4:	6a12      	ldr	r2, [r2, #32]
 80032d6:	617a      	str	r2, [r7, #20]
 80032d8:	3301      	adds	r3, #1
 80032da:	2b06      	cmp	r3, #6
 80032dc:	d1f3      	bne.n	80032c6 <gc_execute_line+0x8b6>
 80032de:	e78c      	b.n	80031fa <gc_execute_line+0x7ea>
 80032e0:	4bb7      	ldr	r3, [pc, #732]	; (80035c0 <gc_execute_line+0xbb0>)
 80032e2:	785b      	ldrb	r3, [r3, #1]
 80032e4:	2b01      	cmp	r3, #1
 80032e6:	d988      	bls.n	80031fa <gc_execute_line+0x7ea>
 80032e8:	241e      	movs	r4, #30
 80032ea:	e4c9      	b.n	8002c80 <gc_execute_line+0x270>
 80032ec:	2e02      	cmp	r6, #2
 80032ee:	f47f aef0 	bne.w	80030d2 <gc_execute_line+0x6c2>
 80032f2:	b91f      	cbnz	r7, 80032fc <gc_execute_line+0x8ec>
 80032f4:	2d00      	cmp	r5, #0
 80032f6:	bf08      	it	eq
 80032f8:	2600      	moveq	r6, #0
 80032fa:	e6ea      	b.n	80030d2 <gc_execute_line+0x6c2>
 80032fc:	2100      	movs	r1, #0
 80032fe:	6918      	ldr	r0, [r3, #16]
 8003300:	f7fd fed4 	bl	80010ac <__aeabi_fcmpeq>
 8003304:	2800      	cmp	r0, #0
 8003306:	f040 8366 	bne.w	80039d6 <gc_execute_line+0xfc6>
 800330a:	2f8c      	cmp	r7, #140	; 0x8c
 800330c:	d010      	beq.n	8003330 <gc_execute_line+0x920>
 800330e:	d807      	bhi.n	8003320 <gc_execute_line+0x910>
 8003310:	2f02      	cmp	r7, #2
 8003312:	d01e      	beq.n	8003352 <gc_execute_line+0x942>
 8003314:	2f03      	cmp	r7, #3
 8003316:	d01e      	beq.n	8003356 <gc_execute_line+0x946>
 8003318:	2f01      	cmp	r7, #1
 800331a:	f47f aeda 	bne.w	80030d2 <gc_execute_line+0x6c2>
 800331e:	e7e9      	b.n	80032f4 <gc_execute_line+0x8e4>
 8003320:	2f8e      	cmp	r7, #142	; 0x8e
 8003322:	d005      	beq.n	8003330 <gc_execute_line+0x920>
 8003324:	d302      	bcc.n	800332c <gc_execute_line+0x91c>
 8003326:	2f8f      	cmp	r7, #143	; 0x8f
 8003328:	f47f aed3 	bne.w	80030d2 <gc_execute_line+0x6c2>
 800332c:	f04b 0b10 	orr.w	fp, fp, #16
 8003330:	3772      	adds	r7, #114	; 0x72
 8003332:	b2ff      	uxtb	r7, r7
 8003334:	2f01      	cmp	r7, #1
 8003336:	bf98      	it	ls
 8003338:	f04b 0b08 	orrls.w	fp, fp, #8
 800333c:	2d00      	cmp	r5, #0
 800333e:	f43f ae67 	beq.w	8003010 <gc_execute_line+0x600>
 8003342:	2218      	movs	r2, #24
 8003344:	49a0      	ldr	r1, [pc, #640]	; (80035c8 <gc_execute_line+0xbb8>)
 8003346:	48a1      	ldr	r0, [pc, #644]	; (80035cc <gc_execute_line+0xbbc>)
 8003348:	f004 fafc 	bl	8007944 <memcmp>
 800334c:	2800      	cmp	r0, #0
 800334e:	d036      	beq.n	80033be <gc_execute_line+0x9ae>
 8003350:	e6bf      	b.n	80030d2 <gc_execute_line+0x6c2>
 8003352:	f04b 0b04 	orr.w	fp, fp, #4
 8003356:	2d00      	cmp	r5, #0
 8003358:	f43f ae5a 	beq.w	8003010 <gc_execute_line+0x600>
 800335c:	2201      	movs	r2, #1
 800335e:	9b09      	ldr	r3, [sp, #36]	; 0x24
 8003360:	990a      	ldr	r1, [sp, #40]	; 0x28
 8003362:	fa02 f303 	lsl.w	r3, r2, r3
 8003366:	408a      	lsls	r2, r1
 8003368:	4313      	orrs	r3, r2
 800336a:	421d      	tst	r5, r3
 800336c:	f000 8336 	beq.w	80039dc <gc_execute_line+0xfcc>
 8003370:	930c      	str	r3, [sp, #48]	; 0x30
 8003372:	9b09      	ldr	r3, [sp, #36]	; 0x24
 8003374:	f8df 824c 	ldr.w	r8, [pc, #588]	; 80035c4 <gc_execute_line+0xbb4>
 8003378:	eb09 0283 	add.w	r2, r9, r3, lsl #2
 800337c:	f103 0108 	add.w	r1, r3, #8
 8003380:	f858 1021 	ldr.w	r1, [r8, r1, lsl #2]
 8003384:	6c50      	ldr	r0, [r2, #68]	; 0x44
 8003386:	f7fd fbf3 	bl	8000b70 <__aeabi_fsub>
 800338a:	9b0a      	ldr	r3, [sp, #40]	; 0x28
 800338c:	4682      	mov	sl, r0
 800338e:	eb09 0283 	add.w	r2, r9, r3, lsl #2
 8003392:	f103 0108 	add.w	r1, r3, #8
 8003396:	6c50      	ldr	r0, [r2, #68]	; 0x44
 8003398:	f858 1021 	ldr.w	r1, [r8, r1, lsl #2]
 800339c:	f7fd fbe8 	bl	8000b70 <__aeabi_fsub>
 80033a0:	f014 0280 	ands.w	r2, r4, #128	; 0x80
 80033a4:	4607      	mov	r7, r0
 80033a6:	9b0c      	ldr	r3, [sp, #48]	; 0x30
 80033a8:	f000 80a3 	beq.w	80034f2 <gc_execute_line+0xae2>
 80033ac:	2218      	movs	r2, #24
 80033ae:	4986      	ldr	r1, [pc, #536]	; (80035c8 <gc_execute_line+0xbb8>)
 80033b0:	f108 0020 	add.w	r0, r8, #32
 80033b4:	f024 0480 	bic.w	r4, r4, #128	; 0x80
 80033b8:	f004 fac4 	bl	8007944 <memcmp>
 80033bc:	b908      	cbnz	r0, 80033c2 <gc_execute_line+0x9b2>
 80033be:	2421      	movs	r4, #33	; 0x21
 80033c0:	e45e      	b.n	8002c80 <gc_execute_line+0x270>
 80033c2:	f899 3003 	ldrb.w	r3, [r9, #3]
 80033c6:	2b01      	cmp	r3, #1
 80033c8:	d10c      	bne.n	80033e4 <gc_execute_line+0x9d4>
 80033ca:	f8d9 0038 	ldr.w	r0, [r9, #56]	; 0x38
 80033ce:	f7fd f82f 	bl	8000430 <__aeabi_f2d>
 80033d2:	a375      	add	r3, pc, #468	; (adr r3, 80035a8 <gc_execute_line+0xb98>)
 80033d4:	e9d3 2300 	ldrd	r2, r3, [r3]
 80033d8:	f7fd f87e 	bl	80004d8 <__aeabi_dmul>
 80033dc:	f7fd fb74 	bl	8000ac8 <__aeabi_d2f>
 80033e0:	f8c9 0038 	str.w	r0, [r9, #56]	; 0x38
 80033e4:	4b76      	ldr	r3, [pc, #472]	; (80035c0 <gc_execute_line+0xbb0>)
 80033e6:	6b98      	ldr	r0, [r3, #56]	; 0x38
 80033e8:	f7fd f822 	bl	8000430 <__aeabi_f2d>
 80033ec:	4680      	mov	r8, r0
 80033ee:	4689      	mov	r9, r1
 80033f0:	2200      	movs	r2, #0
 80033f2:	4b77      	ldr	r3, [pc, #476]	; (80035d0 <gc_execute_line+0xbc0>)
 80033f4:	f7fd f870 	bl	80004d8 <__aeabi_dmul>
 80033f8:	4642      	mov	r2, r8
 80033fa:	464b      	mov	r3, r9
 80033fc:	f7fd f86c 	bl	80004d8 <__aeabi_dmul>
 8003400:	4680      	mov	r8, r0
 8003402:	4689      	mov	r9, r1
 8003404:	4650      	mov	r0, sl
 8003406:	4651      	mov	r1, sl
 8003408:	f7fd fcbc 	bl	8000d84 <__aeabi_fmul>
 800340c:	f7fd f810 	bl	8000430 <__aeabi_f2d>
 8003410:	4602      	mov	r2, r0
 8003412:	460b      	mov	r3, r1
 8003414:	4640      	mov	r0, r8
 8003416:	4649      	mov	r1, r9
 8003418:	f7fc feaa 	bl	8000170 <__aeabi_dsub>
 800341c:	4680      	mov	r8, r0
 800341e:	4689      	mov	r9, r1
 8003420:	4638      	mov	r0, r7
 8003422:	4639      	mov	r1, r7
 8003424:	f7fd fcae 	bl	8000d84 <__aeabi_fmul>
 8003428:	f7fd f802 	bl	8000430 <__aeabi_f2d>
 800342c:	4602      	mov	r2, r0
 800342e:	460b      	mov	r3, r1
 8003430:	4640      	mov	r0, r8
 8003432:	4649      	mov	r1, r9
 8003434:	f7fc fe9c 	bl	8000170 <__aeabi_dsub>
 8003438:	f7fd fb46 	bl	8000ac8 <__aeabi_d2f>
 800343c:	2100      	movs	r1, #0
 800343e:	4680      	mov	r8, r0
 8003440:	f7fd fe3e 	bl	80010c0 <__aeabi_fcmplt>
 8003444:	2800      	cmp	r0, #0
 8003446:	f040 82cc 	bne.w	80039e2 <gc_execute_line+0xfd2>
 800344a:	4640      	mov	r0, r8
 800344c:	f7fc fff0 	bl	8000430 <__aeabi_f2d>
 8003450:	f005 f92a 	bl	80086a8 <sqrt>
 8003454:	4681      	mov	r9, r0
 8003456:	4688      	mov	r8, r1
 8003458:	4650      	mov	r0, sl
 800345a:	4639      	mov	r1, r7
 800345c:	f001 f818 	bl	8004490 <hypot_f>
 8003460:	f7fc ffe6 	bl	8000430 <__aeabi_f2d>
 8003464:	f108 4800 	add.w	r8, r8, #2147483648	; 0x80000000
 8003468:	4602      	mov	r2, r0
 800346a:	460b      	mov	r3, r1
 800346c:	4648      	mov	r0, r9
 800346e:	4641      	mov	r1, r8
 8003470:	f7fd f95c 	bl	800072c <__aeabi_ddiv>
 8003474:	f7fd fb28 	bl	8000ac8 <__aeabi_d2f>
 8003478:	4b51      	ldr	r3, [pc, #324]	; (80035c0 <gc_execute_line+0xbb0>)
 800347a:	f8df 9144 	ldr.w	r9, [pc, #324]	; 80035c0 <gc_execute_line+0xbb0>
 800347e:	785b      	ldrb	r3, [r3, #1]
 8003480:	4680      	mov	r8, r0
 8003482:	2b03      	cmp	r3, #3
 8003484:	f8d9 3038 	ldr.w	r3, [r9, #56]	; 0x38
 8003488:	bf08      	it	eq
 800348a:	f100 4800 	addeq.w	r8, r0, #2147483648	; 0x80000000
 800348e:	2100      	movs	r1, #0
 8003490:	4618      	mov	r0, r3
 8003492:	9307      	str	r3, [sp, #28]
 8003494:	f7fd fe14 	bl	80010c0 <__aeabi_fcmplt>
 8003498:	9b07      	ldr	r3, [sp, #28]
 800349a:	b128      	cbz	r0, 80034a8 <gc_execute_line+0xa98>
 800349c:	f103 4300 	add.w	r3, r3, #2147483648	; 0x80000000
 80034a0:	f108 4800 	add.w	r8, r8, #2147483648	; 0x80000000
 80034a4:	f8c9 3038 	str.w	r3, [r9, #56]	; 0x38
 80034a8:	9b09      	ldr	r3, [sp, #36]	; 0x24
 80034aa:	4639      	mov	r1, r7
 80034ac:	3304      	adds	r3, #4
 80034ae:	eb09 0383 	add.w	r3, r9, r3, lsl #2
 80034b2:	4640      	mov	r0, r8
 80034b4:	9307      	str	r3, [sp, #28]
 80034b6:	f7fd fc65 	bl	8000d84 <__aeabi_fmul>
 80034ba:	4601      	mov	r1, r0
 80034bc:	4650      	mov	r0, sl
 80034be:	f7fd fb57 	bl	8000b70 <__aeabi_fsub>
 80034c2:	f04f 517c 	mov.w	r1, #1056964608	; 0x3f000000
 80034c6:	f7fd fc5d 	bl	8000d84 <__aeabi_fmul>
 80034ca:	9b07      	ldr	r3, [sp, #28]
 80034cc:	4651      	mov	r1, sl
 80034ce:	6058      	str	r0, [r3, #4]
 80034d0:	9b0a      	ldr	r3, [sp, #40]	; 0x28
 80034d2:	4640      	mov	r0, r8
 80034d4:	3304      	adds	r3, #4
 80034d6:	eb09 0983 	add.w	r9, r9, r3, lsl #2
 80034da:	f7fd fc53 	bl	8000d84 <__aeabi_fmul>
 80034de:	4639      	mov	r1, r7
 80034e0:	f7fd fb48 	bl	8000b74 <__addsf3>
 80034e4:	f04f 517c 	mov.w	r1, #1056964608	; 0x3f000000
 80034e8:	f7fd fc4c 	bl	8000d84 <__aeabi_fmul>
 80034ec:	f8c9 0004 	str.w	r0, [r9, #4]
 80034f0:	e5ef      	b.n	80030d2 <gc_execute_line+0x6c2>
 80034f2:	9907      	ldr	r1, [sp, #28]
 80034f4:	420b      	tst	r3, r1
 80034f6:	f000 8277 	beq.w	80039e8 <gc_execute_line+0xfd8>
 80034fa:	f899 3003 	ldrb.w	r3, [r9, #3]
 80034fe:	f024 040e 	bic.w	r4, r4, #14
 8003502:	2b01      	cmp	r3, #1
 8003504:	d066      	beq.n	80035d4 <gc_execute_line+0xbc4>
 8003506:	9b0a      	ldr	r3, [sp, #40]	; 0x28
 8003508:	f8df 80b4 	ldr.w	r8, [pc, #180]	; 80035c0 <gc_execute_line+0xbb0>
 800350c:	f103 0904 	add.w	r9, r3, #4
 8003510:	eb08 0989 	add.w	r9, r8, r9, lsl #2
 8003514:	f8d9 1004 	ldr.w	r1, [r9, #4]
 8003518:	4638      	mov	r0, r7
 800351a:	f7fd fb29 	bl	8000b70 <__aeabi_fsub>
 800351e:	9b09      	ldr	r3, [sp, #36]	; 0x24
 8003520:	9007      	str	r0, [sp, #28]
 8003522:	1d1f      	adds	r7, r3, #4
 8003524:	eb08 0787 	add.w	r7, r8, r7, lsl #2
 8003528:	6879      	ldr	r1, [r7, #4]
 800352a:	4650      	mov	r0, sl
 800352c:	f7fd fb20 	bl	8000b70 <__aeabi_fsub>
 8003530:	9b07      	ldr	r3, [sp, #28]
 8003532:	4619      	mov	r1, r3
 8003534:	f000 ffac 	bl	8004490 <hypot_f>
 8003538:	f8d9 1004 	ldr.w	r1, [r9, #4]
 800353c:	4682      	mov	sl, r0
 800353e:	6878      	ldr	r0, [r7, #4]
 8003540:	f000 ffa6 	bl	8004490 <hypot_f>
 8003544:	f8c8 0038 	str.w	r0, [r8, #56]	; 0x38
 8003548:	4601      	mov	r1, r0
 800354a:	4607      	mov	r7, r0
 800354c:	4650      	mov	r0, sl
 800354e:	f7fd fb0f 	bl	8000b70 <__aeabi_fsub>
 8003552:	f020 4a00 	bic.w	sl, r0, #2147483648	; 0x80000000
 8003556:	4650      	mov	r0, sl
 8003558:	f7fc ff6a 	bl	8000430 <__aeabi_f2d>
 800355c:	a314      	add	r3, pc, #80	; (adr r3, 80035b0 <gc_execute_line+0xba0>)
 800355e:	e9d3 2300 	ldrd	r2, r3, [r3]
 8003562:	4680      	mov	r8, r0
 8003564:	4689      	mov	r9, r1
 8003566:	f7fd fa47 	bl	80009f8 <__aeabi_dcmpgt>
 800356a:	2800      	cmp	r0, #0
 800356c:	f43f adb1 	beq.w	80030d2 <gc_execute_line+0x6c2>
 8003570:	f04f 517c 	mov.w	r1, #1056964608	; 0x3f000000
 8003574:	4650      	mov	r0, sl
 8003576:	f7fd fdc1 	bl	80010fc <__aeabi_fcmpgt>
 800357a:	2800      	cmp	r0, #0
 800357c:	f47f af1f 	bne.w	80033be <gc_execute_line+0x9ae>
 8003580:	4638      	mov	r0, r7
 8003582:	f7fc ff55 	bl	8000430 <__aeabi_f2d>
 8003586:	a30c      	add	r3, pc, #48	; (adr r3, 80035b8 <gc_execute_line+0xba8>)
 8003588:	e9d3 2300 	ldrd	r2, r3, [r3]
 800358c:	f7fc ffa4 	bl	80004d8 <__aeabi_dmul>
 8003590:	4602      	mov	r2, r0
 8003592:	460b      	mov	r3, r1
 8003594:	4640      	mov	r0, r8
 8003596:	4649      	mov	r1, r9
 8003598:	f7fd fa2e 	bl	80009f8 <__aeabi_dcmpgt>
 800359c:	2800      	cmp	r0, #0
 800359e:	f47f af0e 	bne.w	80033be <gc_execute_line+0x9ae>
 80035a2:	e596      	b.n	80030d2 <gc_execute_line+0x6c2>
 80035a4:	f3af 8000 	nop.w
 80035a8:	66666666 	.word	0x66666666
 80035ac:	40396666 	.word	0x40396666
 80035b0:	47ae147b 	.word	0x47ae147b
 80035b4:	3f747ae1 	.word	0x3f747ae1
 80035b8:	d2f1a9fc 	.word	0xd2f1a9fc
 80035bc:	3f50624d 	.word	0x3f50624d
 80035c0:	20003d8c 	.word	0x20003d8c
 80035c4:	20003d20 	.word	0x20003d20
 80035c8:	20003dd0 	.word	0x20003dd0
 80035cc:	20003d40 	.word	0x20003d40
 80035d0:	40100000 	.word	0x40100000
 80035d4:	4690      	mov	r8, r2
 80035d6:	f8df 9304 	ldr.w	r9, [pc, #772]	; 80038dc <gc_execute_line+0xecc>
 80035da:	9b07      	ldr	r3, [sp, #28]
 80035dc:	fa43 f308 	asr.w	r3, r3, r8
 80035e0:	07da      	lsls	r2, r3, #31
 80035e2:	d50c      	bpl.n	80035fe <gc_execute_line+0xbee>
 80035e4:	f8d9 0000 	ldr.w	r0, [r9]
 80035e8:	f7fc ff22 	bl	8000430 <__aeabi_f2d>
 80035ec:	a3b2      	add	r3, pc, #712	; (adr r3, 80038b8 <gc_execute_line+0xea8>)
 80035ee:	e9d3 2300 	ldrd	r2, r3, [r3]
 80035f2:	f7fc ff71 	bl	80004d8 <__aeabi_dmul>
 80035f6:	f7fd fa67 	bl	8000ac8 <__aeabi_d2f>
 80035fa:	f8c9 0000 	str.w	r0, [r9]
 80035fe:	f108 0801 	add.w	r8, r8, #1
 8003602:	f1b8 0f06 	cmp.w	r8, #6
 8003606:	f109 0904 	add.w	r9, r9, #4
 800360a:	d1e6      	bne.n	80035da <gc_execute_line+0xbca>
 800360c:	e77b      	b.n	8003506 <gc_execute_line+0xaf6>
 800360e:	4bac      	ldr	r3, [pc, #688]	; (80038c0 <gc_execute_line+0xeb0>)
 8003610:	4cac      	ldr	r4, [pc, #688]	; (80038c4 <gc_execute_line+0xeb4>)
 8003612:	f893 3078 	ldrb.w	r3, [r3, #120]	; 0x78
 8003616:	f013 0f02 	tst.w	r3, #2
 800361a:	d00d      	beq.n	8003638 <gc_execute_line+0xc28>
 800361c:	787b      	ldrb	r3, [r7, #1]
 800361e:	3b01      	subs	r3, #1
 8003620:	2b02      	cmp	r3, #2
 8003622:	bf88      	it	hi
 8003624:	f04b 0b40 	orrhi.w	fp, fp, #64	; 0x40
 8003628:	2d00      	cmp	r5, #0
 800362a:	f000 80ec 	beq.w	8003806 <gc_execute_line+0xdf6>
 800362e:	2e02      	cmp	r6, #2
 8003630:	f040 80e9 	bne.w	8003806 <gc_execute_line+0xdf6>
 8003634:	f04b 0b80 	orr.w	fp, fp, #128	; 0x80
 8003638:	6b3b      	ldr	r3, [r7, #48]	; 0x30
 800363a:	61e3      	str	r3, [r4, #28]
 800363c:	78bb      	ldrb	r3, [r7, #2]
 800363e:	7063      	strb	r3, [r4, #1]
 8003640:	b113      	cbz	r3, 8003648 <gc_execute_line+0xc38>
 8003642:	2308      	movs	r3, #8
 8003644:	f88d 304c 	strb.w	r3, [sp, #76]	; 0x4c
 8003648:	693b      	ldr	r3, [r7, #16]
 800364a:	f8d7 803c 	ldr.w	r8, [r7, #60]	; 0x3c
 800364e:	6163      	str	r3, [r4, #20]
 8003650:	4641      	mov	r1, r8
 8003652:	6920      	ldr	r0, [r4, #16]
 8003654:	9311      	str	r3, [sp, #68]	; 0x44
 8003656:	f7fd fd29 	bl	80010ac <__aeabi_fcmpeq>
 800365a:	f00b 0540 	and.w	r5, fp, #64	; 0x40
 800365e:	b110      	cbz	r0, 8003666 <gc_execute_line+0xc56>
 8003660:	f01b 0f20 	tst.w	fp, #32
 8003664:	d00c      	beq.n	8003680 <gc_execute_line+0xc70>
 8003666:	7a60      	ldrb	r0, [r4, #9]
 8003668:	b140      	cbz	r0, 800367c <gc_execute_line+0xc6c>
 800366a:	f01b 0f80 	tst.w	fp, #128	; 0x80
 800366e:	d105      	bne.n	800367c <gc_execute_line+0xc6c>
 8003670:	2d00      	cmp	r5, #0
 8003672:	f000 80dc 	beq.w	800382e <gc_execute_line+0xe1e>
 8003676:	2100      	movs	r1, #0
 8003678:	f002 ffa0 	bl	80065bc <spindle_sync>
 800367c:	6bfb      	ldr	r3, [r7, #60]	; 0x3c
 800367e:	6123      	str	r3, [r4, #16]
 8003680:	b90d      	cbnz	r5, 8003686 <gc_execute_line+0xc76>
 8003682:	6923      	ldr	r3, [r4, #16]
 8003684:	9312      	str	r3, [sp, #72]	; 0x48
 8003686:	f897 3040 	ldrb.w	r3, [r7, #64]	; 0x40
 800368a:	7ab8      	ldrb	r0, [r7, #10]
 800368c:	7623      	strb	r3, [r4, #24]
 800368e:	7a63      	ldrb	r3, [r4, #9]
 8003690:	4283      	cmp	r3, r0
 8003692:	d004      	beq.n	800369e <gc_execute_line+0xc8e>
 8003694:	9912      	ldr	r1, [sp, #72]	; 0x48
 8003696:	f002 ff91 	bl	80065bc <spindle_sync>
 800369a:	7abb      	ldrb	r3, [r7, #10]
 800369c:	7263      	strb	r3, [r4, #9]
 800369e:	f89d 304c 	ldrb.w	r3, [sp, #76]	; 0x4c
 80036a2:	7a62      	ldrb	r2, [r4, #9]
 80036a4:	7a78      	ldrb	r0, [r7, #9]
 80036a6:	4313      	orrs	r3, r2
 80036a8:	f88d 304c 	strb.w	r3, [sp, #76]	; 0x4c
 80036ac:	7a23      	ldrb	r3, [r4, #8]
 80036ae:	4283      	cmp	r3, r0
 80036b0:	d006      	beq.n	80036c0 <gc_execute_line+0xcb0>
 80036b2:	f7ff f8d9 	bl	8002868 <coolant_sync>
 80036b6:	7a7b      	ldrb	r3, [r7, #9]
 80036b8:	2b00      	cmp	r3, #0
 80036ba:	f040 80ba 	bne.w	8003832 <gc_execute_line+0xe22>
 80036be:	7223      	strb	r3, [r4, #8]
 80036c0:	f89d 304c 	ldrb.w	r3, [sp, #76]	; 0x4c
 80036c4:	7a22      	ldrb	r2, [r4, #8]
 80036c6:	4313      	orrs	r3, r2
 80036c8:	f88d 304c 	strb.w	r3, [sp, #76]	; 0x4c
 80036cc:	783b      	ldrb	r3, [r7, #0]
 80036ce:	2b04      	cmp	r3, #4
 80036d0:	d102      	bne.n	80036d8 <gc_execute_line+0xcc8>
 80036d2:	6b78      	ldr	r0, [r7, #52]	; 0x34
 80036d4:	f000 fd4c 	bl	8004170 <mc_dwell>
 80036d8:	797b      	ldrb	r3, [r7, #5]
 80036da:	2e03      	cmp	r6, #3
 80036dc:	7123      	strb	r3, [r4, #4]
 80036de:	78fb      	ldrb	r3, [r7, #3]
 80036e0:	70a3      	strb	r3, [r4, #2]
 80036e2:	d10d      	bne.n	8003700 <gc_execute_line+0xcf0>
 80036e4:	79bb      	ldrb	r3, [r7, #6]
 80036e6:	7163      	strb	r3, [r4, #5]
 80036e8:	b90b      	cbnz	r3, 80036ee <gc_execute_line+0xcde>
 80036ea:	2300      	movs	r3, #0
 80036ec:	64fb      	str	r3, [r7, #76]	; 0x4c
 80036ee:	6cfd      	ldr	r5, [r7, #76]	; 0x4c
 80036f0:	6ea0      	ldr	r0, [r4, #104]	; 0x68
 80036f2:	4629      	mov	r1, r5
 80036f4:	f7fd fcda 	bl	80010ac <__aeabi_fcmpeq>
 80036f8:	b910      	cbnz	r0, 8003700 <gc_execute_line+0xcf0>
 80036fa:	66a5      	str	r5, [r4, #104]	; 0x68
 80036fc:	f003 fe24 	bl	8007348 <system_flag_wco_change>
 8003700:	79fb      	ldrb	r3, [r7, #7]
 8003702:	79a2      	ldrb	r2, [r4, #6]
 8003704:	429a      	cmp	r2, r3
 8003706:	d00c      	beq.n	8003722 <gc_execute_line+0xd12>
 8003708:	4d6f      	ldr	r5, [pc, #444]	; (80038c8 <gc_execute_line+0xeb8>)
 800370a:	f10d 0e50 	add.w	lr, sp, #80	; 0x50
 800370e:	71a3      	strb	r3, [r4, #6]
 8003710:	e8be 000f 	ldmia.w	lr!, {r0, r1, r2, r3}
 8003714:	c50f      	stmia	r5!, {r0, r1, r2, r3}
 8003716:	e89e 0003 	ldmia.w	lr, {r0, r1}
 800371a:	e885 0003 	stmia.w	r5, {r0, r1}
 800371e:	f003 fe13 	bl	8007348 <system_flag_wco_change>
 8003722:	793b      	ldrb	r3, [r7, #4]
 8003724:	70e3      	strb	r3, [r4, #3]
 8003726:	783b      	ldrb	r3, [r7, #0]
 8003728:	2b26      	cmp	r3, #38	; 0x26
 800372a:	f000 80bf 	beq.w	80038ac <gc_execute_line+0xe9c>
 800372e:	f200 8083 	bhi.w	8003838 <gc_execute_line+0xe28>
 8003732:	2b1c      	cmp	r3, #28
 8003734:	f000 80a0 	beq.w	8003878 <gc_execute_line+0xe68>
 8003738:	2b1e      	cmp	r3, #30
 800373a:	f000 809d 	beq.w	8003878 <gc_execute_line+0xe68>
 800373e:	2b0a      	cmp	r3, #10
 8003740:	f000 8084 	beq.w	800384c <gc_execute_line+0xe3c>
 8003744:	787b      	ldrb	r3, [r7, #1]
 8003746:	2b50      	cmp	r3, #80	; 0x50
 8003748:	7023      	strb	r3, [r4, #0]
 800374a:	d010      	beq.n	800376e <gc_execute_line+0xd5e>
 800374c:	2e02      	cmp	r6, #2
 800374e:	d10e      	bne.n	800376e <gc_execute_line+0xd5e>
 8003750:	2b01      	cmp	r3, #1
 8003752:	f040 80cf 	bne.w	80038f4 <gc_execute_line+0xee4>
 8003756:	a911      	add	r1, sp, #68	; 0x44
 8003758:	485c      	ldr	r0, [pc, #368]	; (80038cc <gc_execute_line+0xebc>)
 800375a:	f000 fb21 	bl	8003da0 <mc_line>
 800375e:	4d5c      	ldr	r5, [pc, #368]	; (80038d0 <gc_execute_line+0xec0>)
 8003760:	4e5a      	ldr	r6, [pc, #360]	; (80038cc <gc_execute_line+0xebc>)
 8003762:	ce0f      	ldmia	r6!, {r0, r1, r2, r3}
 8003764:	c50f      	stmia	r5!, {r0, r1, r2, r3}
 8003766:	e896 0003 	ldmia.w	r6, {r0, r1}
 800376a:	e885 0003 	stmia.w	r5, {r0, r1}
 800376e:	7a3b      	ldrb	r3, [r7, #8]
 8003770:	71e3      	strb	r3, [r4, #7]
 8003772:	b183      	cbz	r3, 8003796 <gc_execute_line+0xd86>
 8003774:	f001 feb6 	bl	80054e4 <protocol_buffer_synchronize>
 8003778:	79e3      	ldrb	r3, [r4, #7]
 800377a:	2b03      	cmp	r3, #3
 800377c:	4b55      	ldr	r3, [pc, #340]	; (80038d4 <gc_execute_line+0xec4>)
 800377e:	f040 80eb 	bne.w	8003958 <gc_execute_line+0xf48>
 8003782:	781b      	ldrb	r3, [r3, #0]
 8003784:	2b02      	cmp	r3, #2
 8003786:	d004      	beq.n	8003792 <gc_execute_line+0xd82>
 8003788:	2008      	movs	r0, #8
 800378a:	f003 fe21 	bl	80073d0 <system_set_exec_state_flag>
 800378e:	f001 fd41 	bl	8005214 <protocol_execute_realtime>
 8003792:	2300      	movs	r3, #0
 8003794:	71e3      	strb	r3, [r4, #7]
 8003796:	7b3c      	ldrb	r4, [r7, #12]
 8003798:	b154      	cbz	r4, 80037b0 <gc_execute_line+0xda0>
 800379a:	6b78      	ldr	r0, [r7, #52]	; 0x34
 800379c:	f7fc fe48 	bl	8000430 <__aeabi_f2d>
 80037a0:	f004 fea6 	bl	80084f0 <trunc>
 80037a4:	f7fd f970 	bl	8000a88 <__aeabi_d2uiz>
 80037a8:	4621      	mov	r1, r4
 80037aa:	b2c0      	uxtb	r0, r0
 80037ac:	f004 f822 	bl	80077f4 <outputs_digital_action>
 80037b0:	7b7b      	ldrb	r3, [r7, #13]
 80037b2:	b16b      	cbz	r3, 80037d0 <gc_execute_line+0xdc0>
 80037b4:	6b78      	ldr	r0, [r7, #52]	; 0x34
 80037b6:	f7fc fe3b 	bl	8000430 <__aeabi_f2d>
 80037ba:	f004 fe99 	bl	80084f0 <trunc>
 80037be:	f7fd f963 	bl	8000a88 <__aeabi_d2uiz>
 80037c2:	f897 402c 	ldrb.w	r4, [r7, #44]	; 0x2c
 80037c6:	4a44      	ldr	r2, [pc, #272]	; (80038d8 <gc_execute_line+0xec8>)
 80037c8:	4621      	mov	r1, r4
 80037ca:	b2c0      	uxtb	r0, r0
 80037cc:	f004 f83c 	bl	8007848 <wait_on_input_action>
 80037d0:	7bbb      	ldrb	r3, [r7, #14]
 80037d2:	b123      	cbz	r3, 80037de <gc_execute_line+0xdce>
 80037d4:	4940      	ldr	r1, [pc, #256]	; (80038d8 <gc_execute_line+0xec8>)
 80037d6:	f897 005c 	ldrb.w	r0, [r7, #92]	; 0x5c
 80037da:	f004 f834 	bl	8007846 <outputs_analog_action>
 80037de:	7bfc      	ldrb	r4, [r7, #15]
 80037e0:	2c00      	cmp	r4, #0
 80037e2:	f43f aa4d 	beq.w	8002c80 <gc_execute_line+0x270>
 80037e6:	6b78      	ldr	r0, [r7, #52]	; 0x34
 80037e8:	f7fc fe22 	bl	8000430 <__aeabi_f2d>
 80037ec:	f004 fe80 	bl	80084f0 <trunc>
 80037f0:	f7fd f94a 	bl	8000a88 <__aeabi_d2uiz>
 80037f4:	4938      	ldr	r1, [pc, #224]	; (80038d8 <gc_execute_line+0xec8>)
 80037f6:	b2c0      	uxtb	r0, r0
 80037f8:	f002 fdba 	bl	8006370 <acceleration_scaling>
 80037fc:	2400      	movs	r4, #0
 80037fe:	f000 ff85 	bl	800470c <plan_reset>
 8003802:	f7ff ba3d 	b.w	8002c80 <gc_execute_line+0x270>
 8003806:	7a63      	ldrb	r3, [r4, #9]
 8003808:	2b10      	cmp	r3, #16
 800380a:	f47f af15 	bne.w	8003638 <gc_execute_line+0xc28>
 800380e:	7823      	ldrb	r3, [r4, #0]
 8003810:	3b01      	subs	r3, #1
 8003812:	2b02      	cmp	r3, #2
 8003814:	f00b 0340 	and.w	r3, fp, #64	; 0x40
 8003818:	d805      	bhi.n	8003826 <gc_execute_line+0xe16>
 800381a:	2b00      	cmp	r3, #0
 800381c:	f43f af0c 	beq.w	8003638 <gc_execute_line+0xc28>
 8003820:	f04b 0b20 	orr.w	fp, fp, #32
 8003824:	e708      	b.n	8003638 <gc_execute_line+0xc28>
 8003826:	2b00      	cmp	r3, #0
 8003828:	f47f af06 	bne.w	8003638 <gc_execute_line+0xc28>
 800382c:	e7f8      	b.n	8003820 <gc_execute_line+0xe10>
 800382e:	4641      	mov	r1, r8
 8003830:	e722      	b.n	8003678 <gc_execute_line+0xc68>
 8003832:	7a22      	ldrb	r2, [r4, #8]
 8003834:	4313      	orrs	r3, r2
 8003836:	e742      	b.n	80036be <gc_execute_line+0xcae>
 8003838:	2b5c      	cmp	r3, #92	; 0x5c
 800383a:	d051      	beq.n	80038e0 <gc_execute_line+0xed0>
 800383c:	2b66      	cmp	r3, #102	; 0x66
 800383e:	d053      	beq.n	80038e8 <gc_execute_line+0xed8>
 8003840:	2b28      	cmp	r3, #40	; 0x28
 8003842:	f47f af7f 	bne.w	8003744 <gc_execute_line+0xd34>
 8003846:	4922      	ldr	r1, [pc, #136]	; (80038d0 <gc_execute_line+0xec0>)
 8003848:	2007      	movs	r0, #7
 800384a:	e031      	b.n	80038b0 <gc_execute_line+0xea0>
 800384c:	4923      	ldr	r1, [pc, #140]	; (80038dc <gc_execute_line+0xecc>)
 800384e:	9806      	ldr	r0, [sp, #24]
 8003850:	f002 fb72 	bl	8005f38 <settings_write_coord_data>
 8003854:	79a3      	ldrb	r3, [r4, #6]
 8003856:	9a06      	ldr	r2, [sp, #24]
 8003858:	4293      	cmp	r3, r2
 800385a:	f47f af73 	bne.w	8003744 <gc_execute_line+0xd34>
 800385e:	4d1a      	ldr	r5, [pc, #104]	; (80038c8 <gc_execute_line+0xeb8>)
 8003860:	f8df e078 	ldr.w	lr, [pc, #120]	; 80038dc <gc_execute_line+0xecc>
 8003864:	e8be 000f 	ldmia.w	lr!, {r0, r1, r2, r3}
 8003868:	c50f      	stmia	r5!, {r0, r1, r2, r3}
 800386a:	e89e 0003 	ldmia.w	lr, {r0, r1}
 800386e:	e885 0003 	stmia.w	r5, {r0, r1}
 8003872:	f003 fd69 	bl	8007348 <system_flag_wco_change>
 8003876:	e765      	b.n	8003744 <gc_execute_line+0xd34>
 8003878:	f89d 304c 	ldrb.w	r3, [sp, #76]	; 0x4c
 800387c:	f043 0301 	orr.w	r3, r3, #1
 8003880:	f88d 304c 	strb.w	r3, [sp, #76]	; 0x4c
 8003884:	b11e      	cbz	r6, 800388e <gc_execute_line+0xe7e>
 8003886:	a911      	add	r1, sp, #68	; 0x44
 8003888:	4810      	ldr	r0, [pc, #64]	; (80038cc <gc_execute_line+0xebc>)
 800388a:	f000 fa89 	bl	8003da0 <mc_line>
 800388e:	a911      	add	r1, sp, #68	; 0x44
 8003890:	4812      	ldr	r0, [pc, #72]	; (80038dc <gc_execute_line+0xecc>)
 8003892:	f000 fa85 	bl	8003da0 <mc_line>
 8003896:	4d0e      	ldr	r5, [pc, #56]	; (80038d0 <gc_execute_line+0xec0>)
 8003898:	f8df e040 	ldr.w	lr, [pc, #64]	; 80038dc <gc_execute_line+0xecc>
 800389c:	e8be 000f 	ldmia.w	lr!, {r0, r1, r2, r3}
 80038a0:	c50f      	stmia	r5!, {r0, r1, r2, r3}
 80038a2:	e89e 0003 	ldmia.w	lr, {r0, r1}
 80038a6:	e885 0003 	stmia.w	r5, {r0, r1}
 80038aa:	e74b      	b.n	8003744 <gc_execute_line+0xd34>
 80038ac:	2006      	movs	r0, #6
 80038ae:	4908      	ldr	r1, [pc, #32]	; (80038d0 <gc_execute_line+0xec0>)
 80038b0:	f002 fb42 	bl	8005f38 <settings_write_coord_data>
 80038b4:	e746      	b.n	8003744 <gc_execute_line+0xd34>
 80038b6:	bf00      	nop
 80038b8:	66666666 	.word	0x66666666
 80038bc:	40396666 	.word	0x40396666
 80038c0:	20003f70 	.word	0x20003f70
 80038c4:	20003d20 	.word	0x20003d20
 80038c8:	20003d58 	.word	0x20003d58
 80038cc:	20003dd0 	.word	0x20003dd0
 80038d0:	20003d40 	.word	0x20003d40
 80038d4:	200038d4 	.word	0x200038d4
 80038d8:	20003dec 	.word	0x20003dec
 80038dc:	20003da0 	.word	0x20003da0
 80038e0:	4d48      	ldr	r5, [pc, #288]	; (8003a04 <gc_execute_line+0xff4>)
 80038e2:	f8df e12c 	ldr.w	lr, [pc, #300]	; 8003a10 <gc_execute_line+0x1000>
 80038e6:	e7bd      	b.n	8003864 <gc_execute_line+0xe54>
 80038e8:	2218      	movs	r2, #24
 80038ea:	2100      	movs	r1, #0
 80038ec:	4845      	ldr	r0, [pc, #276]	; (8003a04 <gc_execute_line+0xff4>)
 80038ee:	f004 f838 	bl	8007962 <memset>
 80038f2:	e7be      	b.n	8003872 <gc_execute_line+0xe62>
 80038f4:	b933      	cbnz	r3, 8003904 <gc_execute_line+0xef4>
 80038f6:	f89d 304c 	ldrb.w	r3, [sp, #76]	; 0x4c
 80038fa:	f043 0301 	orr.w	r3, r3, #1
 80038fe:	f88d 304c 	strb.w	r3, [sp, #76]	; 0x4c
 8003902:	e728      	b.n	8003756 <gc_execute_line+0xd46>
 8003904:	3b02      	subs	r3, #2
 8003906:	2b01      	cmp	r3, #1
 8003908:	d812      	bhi.n	8003930 <gc_execute_line+0xf20>
 800390a:	f3cb 0380 	ubfx	r3, fp, #2, #1
 800390e:	9304      	str	r3, [sp, #16]
 8003910:	9b0b      	ldr	r3, [sp, #44]	; 0x2c
 8003912:	4a3d      	ldr	r2, [pc, #244]	; (8003a08 <gc_execute_line+0xff8>)
 8003914:	9303      	str	r3, [sp, #12]
 8003916:	9b0a      	ldr	r3, [sp, #40]	; 0x28
 8003918:	a911      	add	r1, sp, #68	; 0x44
 800391a:	9302      	str	r3, [sp, #8]
 800391c:	9b09      	ldr	r3, [sp, #36]	; 0x24
 800391e:	9301      	str	r3, [sp, #4]
 8003920:	6bbb      	ldr	r3, [r7, #56]	; 0x38
 8003922:	9300      	str	r3, [sp, #0]
 8003924:	4b39      	ldr	r3, [pc, #228]	; (8003a0c <gc_execute_line+0xffc>)
 8003926:	f103 0030 	add.w	r0, r3, #48	; 0x30
 800392a:	f000 fa6d 	bl	8003e08 <mc_arc>
 800392e:	e716      	b.n	800375e <gc_execute_line+0xd4e>
 8003930:	f89d 304c 	ldrb.w	r3, [sp, #76]	; 0x4c
 8003934:	465a      	mov	r2, fp
 8003936:	f043 0304 	orr.w	r3, r3, #4
 800393a:	a911      	add	r1, sp, #68	; 0x44
 800393c:	4834      	ldr	r0, [pc, #208]	; (8003a10 <gc_execute_line+0x1000>)
 800393e:	f88d 304c 	strb.w	r3, [sp, #76]	; 0x4c
 8003942:	f000 fc4f 	bl	80041e4 <mc_probe_cycle>
 8003946:	2800      	cmp	r0, #0
 8003948:	f43f af09 	beq.w	800375e <gc_execute_line+0xd4e>
 800394c:	2801      	cmp	r0, #1
 800394e:	f47f af0e 	bne.w	800376e <gc_execute_line+0xd5e>
 8003952:	f7ff f853 	bl	80029fc <gc_sync_position>
 8003956:	e70a      	b.n	800376e <gc_execute_line+0xd5e>
 8003958:	2201      	movs	r2, #1
 800395a:	7022      	strb	r2, [r4, #0]
 800395c:	2264      	movs	r2, #100	; 0x64
 800395e:	2500      	movs	r5, #0
 8003960:	721a      	strb	r2, [r3, #8]
 8003962:	725a      	strb	r2, [r3, #9]
 8003964:	729a      	strb	r2, [r3, #10]
 8003966:	781b      	ldrb	r3, [r3, #0]
 8003968:	7125      	strb	r5, [r4, #4]
 800396a:	2b02      	cmp	r3, #2
 800396c:	70e5      	strb	r5, [r4, #3]
 800396e:	7065      	strb	r5, [r4, #1]
 8003970:	71a5      	strb	r5, [r4, #6]
 8003972:	7265      	strb	r5, [r4, #9]
 8003974:	7225      	strb	r5, [r4, #8]
 8003976:	d00f      	beq.n	8003998 <gc_execute_line+0xf88>
 8003978:	4926      	ldr	r1, [pc, #152]	; (8003a14 <gc_execute_line+0x1004>)
 800397a:	4628      	mov	r0, r5
 800397c:	f002 fbb9 	bl	80060f2 <settings_read_coord_data>
 8003980:	2800      	cmp	r0, #0
 8003982:	f43f ab42 	beq.w	800300a <gc_execute_line+0x5fa>
 8003986:	f003 fcdf 	bl	8007348 <system_flag_wco_change>
 800398a:	4628      	mov	r0, r5
 800398c:	2100      	movs	r1, #0
 800398e:	f002 fde9 	bl	8006564 <spindle_set_state>
 8003992:	4628      	mov	r0, r5
 8003994:	f7fe ff4a 	bl	800282c <coolant_set_state>
 8003998:	2008      	movs	r0, #8
 800399a:	f001 fe21 	bl	80055e0 <report_feedback_message>
 800399e:	e6f8      	b.n	8003792 <gc_execute_line+0xd82>
 80039a0:	2401      	movs	r4, #1
 80039a2:	f7ff b96d 	b.w	8002c80 <gc_execute_line+0x270>
 80039a6:	2402      	movs	r4, #2
 80039a8:	f7ff b96a 	b.w	8002c80 <gc_execute_line+0x270>
 80039ac:	2418      	movs	r4, #24
 80039ae:	f7ff b967 	b.w	8002c80 <gc_execute_line+0x270>
 80039b2:	2426      	movs	r4, #38	; 0x26
 80039b4:	f7ff b964 	b.w	8002c80 <gc_execute_line+0x270>
 80039b8:	2419      	movs	r4, #25
 80039ba:	f7ff b961 	b.w	8002c80 <gc_execute_line+0x270>
 80039be:	2404      	movs	r4, #4
 80039c0:	f7ff b95e 	b.w	8002c80 <gc_execute_line+0x270>
 80039c4:	241b      	movs	r4, #27
 80039c6:	f7ff b95b 	b.w	8002c80 <gc_execute_line+0x270>
 80039ca:	2425      	movs	r4, #37	; 0x25
 80039cc:	f7ff b958 	b.w	8002c80 <gc_execute_line+0x270>
 80039d0:	241f      	movs	r4, #31
 80039d2:	f7ff b955 	b.w	8002c80 <gc_execute_line+0x270>
 80039d6:	2416      	movs	r4, #22
 80039d8:	f7ff b952 	b.w	8002c80 <gc_execute_line+0x270>
 80039dc:	2420      	movs	r4, #32
 80039de:	f7ff b94f 	b.w	8002c80 <gc_execute_line+0x270>
 80039e2:	2422      	movs	r4, #34	; 0x22
 80039e4:	f7ff b94c 	b.w	8002c80 <gc_execute_line+0x270>
 80039e8:	2423      	movs	r4, #35	; 0x23
 80039ea:	f7ff b949 	b.w	8002c80 <gc_execute_line+0x270>
 80039ee:	2424      	movs	r4, #36	; 0x24
 80039f0:	f7ff b946 	b.w	8002c80 <gc_execute_line+0x270>
 80039f4:	2410      	movs	r4, #16
 80039f6:	f7ff b943 	b.w	8002c80 <gc_execute_line+0x270>
 80039fa:	f88d b03f 	strb.w	fp, [sp, #63]	; 0x3f
 80039fe:	f7ff b834 	b.w	8002a6a <gc_execute_line+0x5a>
 8003a02:	bf00      	nop
 8003a04:	20003d70 	.word	0x20003d70
 8003a08:	20003d40 	.word	0x20003d40
 8003a0c:	20003da0 	.word	0x20003da0
 8003a10:	20003dd0 	.word	0x20003dd0
 8003a14:	20003d58 	.word	0x20003d58

08003a18 <jog_execute>:
 8003a18:	b538      	push	{r3, r4, r5, lr}
 8003a1a:	690b      	ldr	r3, [r1, #16]
 8003a1c:	4605      	mov	r5, r0
 8003a1e:	6003      	str	r3, [r0, #0]
 8003a20:	7a03      	ldrb	r3, [r0, #8]
 8003a22:	f101 0444 	add.w	r4, r1, #68	; 0x44
 8003a26:	f043 0304 	orr.w	r3, r3, #4
 8003a2a:	7203      	strb	r3, [r0, #8]
 8003a2c:	4b10      	ldr	r3, [pc, #64]	; (8003a70 <jog_execute+0x58>)
 8003a2e:	f893 3078 	ldrb.w	r3, [r3, #120]	; 0x78
 8003a32:	f013 0f20 	tst.w	r3, #32
 8003a36:	d110      	bne.n	8003a5a <jog_execute+0x42>
 8003a38:	4629      	mov	r1, r5
 8003a3a:	4d0e      	ldr	r5, [pc, #56]	; (8003a74 <jog_execute+0x5c>)
 8003a3c:	4620      	mov	r0, r4
 8003a3e:	f000 f9af 	bl	8003da0 <mc_line>
 8003a42:	782c      	ldrb	r4, [r5, #0]
 8003a44:	b984      	cbnz	r4, 8003a68 <jog_execute+0x50>
 8003a46:	f000 fe91 	bl	800476c <plan_get_current_block>
 8003a4a:	b168      	cbz	r0, 8003a68 <jog_execute+0x50>
 8003a4c:	2320      	movs	r3, #32
 8003a4e:	702b      	strb	r3, [r5, #0]
 8003a50:	f003 f85e 	bl	8006b10 <st_prep_buffer>
 8003a54:	f002 fdc4 	bl	80065e0 <st_wake_up>
 8003a58:	e007      	b.n	8003a6a <jog_execute+0x52>
 8003a5a:	4620      	mov	r0, r4
 8003a5c:	f003 fc9a 	bl	8007394 <system_check_travel_limits>
 8003a60:	2800      	cmp	r0, #0
 8003a62:	d0e9      	beq.n	8003a38 <jog_execute+0x20>
 8003a64:	240f      	movs	r4, #15
 8003a66:	e000      	b.n	8003a6a <jog_execute+0x52>
 8003a68:	2400      	movs	r4, #0
 8003a6a:	4620      	mov	r0, r4
 8003a6c:	bd38      	pop	{r3, r4, r5, pc}
 8003a6e:	bf00      	nop
 8003a70:	20003f70 	.word	0x20003f70
 8003a74:	200038d4 	.word	0x200038d4

08003a78 <limits_init>:
 8003a78:	4b05      	ldr	r3, [pc, #20]	; (8003a90 <limits_init+0x18>)
 8003a7a:	f893 3078 	ldrb.w	r3, [r3, #120]	; 0x78
 8003a7e:	071b      	lsls	r3, r3, #28
 8003a80:	bf5e      	ittt	pl
 8003a82:	f44f 7280 	movpl.w	r2, #256	; 0x100
 8003a86:	4b03      	ldrpl	r3, [pc, #12]	; (8003a94 <limits_init+0x1c>)
 8003a88:	f8c3 2084 	strpl.w	r2, [r3, #132]	; 0x84
 8003a8c:	4770      	bx	lr
 8003a8e:	bf00      	nop
 8003a90:	20003f70 	.word	0x20003f70
 8003a94:	e000e100 	.word	0xe000e100

08003a98 <limits_disable>:
 8003a98:	f44f 7280 	mov.w	r2, #256	; 0x100
 8003a9c:	4b01      	ldr	r3, [pc, #4]	; (8003aa4 <limits_disable+0xc>)
 8003a9e:	f8c3 2084 	str.w	r2, [r3, #132]	; 0x84
 8003aa2:	4770      	bx	lr
 8003aa4:	e000e100 	.word	0xe000e100

08003aa8 <limits_get_state>:
 8003aa8:	b530      	push	{r4, r5, lr}
 8003aaa:	4b0f      	ldr	r3, [pc, #60]	; (8003ae8 <limits_get_state+0x40>)
 8003aac:	4a0f      	ldr	r2, [pc, #60]	; (8003aec <limits_get_state+0x44>)
 8003aae:	689b      	ldr	r3, [r3, #8]
 8003ab0:	f892 2078 	ldrb.w	r2, [r2, #120]	; 0x78
 8003ab4:	b29b      	uxth	r3, r3
 8003ab6:	0652      	lsls	r2, r2, #25
 8003ab8:	bf58      	it	pl
 8003aba:	f483 437c 	eorpl.w	r3, r3, #64512	; 0xfc00
 8003abe:	b18b      	cbz	r3, 8003ae4 <limits_get_state+0x3c>
 8003ac0:	2200      	movs	r2, #0
 8003ac2:	2401      	movs	r4, #1
 8003ac4:	4610      	mov	r0, r2
 8003ac6:	490a      	ldr	r1, [pc, #40]	; (8003af0 <limits_get_state+0x48>)
 8003ac8:	f831 5012 	ldrh.w	r5, [r1, r2, lsl #1]
 8003acc:	422b      	tst	r3, r5
 8003ace:	bf1c      	itt	ne
 8003ad0:	fa04 f502 	lslne.w	r5, r4, r2
 8003ad4:	4328      	orrne	r0, r5
 8003ad6:	f102 0201 	add.w	r2, r2, #1
 8003ada:	bf18      	it	ne
 8003adc:	b2c0      	uxtbne	r0, r0
 8003ade:	2a06      	cmp	r2, #6
 8003ae0:	d1f2      	bne.n	8003ac8 <limits_get_state+0x20>
 8003ae2:	bd30      	pop	{r4, r5, pc}
 8003ae4:	4618      	mov	r0, r3
 8003ae6:	bd30      	pop	{r4, r5, pc}
 8003ae8:	40010c00 	.word	0x40010c00
 8003aec:	20003f70 	.word	0x20003f70
 8003af0:	08009a4e 	.word	0x08009a4e

08003af4 <HandleLimitIT>:
 8003af4:	b508      	push	{r3, lr}
 8003af6:	4b09      	ldr	r3, [pc, #36]	; (8003b1c <HandleLimitIT+0x28>)
 8003af8:	781b      	ldrb	r3, [r3, #0]
 8003afa:	2b01      	cmp	r3, #1
 8003afc:	d00c      	beq.n	8003b18 <HandleLimitIT+0x24>
 8003afe:	4b08      	ldr	r3, [pc, #32]	; (8003b20 <HandleLimitIT+0x2c>)
 8003b00:	781b      	ldrb	r3, [r3, #0]
 8003b02:	b94b      	cbnz	r3, 8003b18 <HandleLimitIT+0x24>
 8003b04:	f7ff ffd0 	bl	8003aa8 <limits_get_state>
 8003b08:	b130      	cbz	r0, 8003b18 <HandleLimitIT+0x24>
 8003b0a:	f000 fbd3 	bl	80042b4 <mc_reset>
 8003b0e:	e8bd 4008 	ldmia.w	sp!, {r3, lr}
 8003b12:	2001      	movs	r0, #1
 8003b14:	f003 bdf6 	b.w	8007704 <system_set_exec_alarm>
 8003b18:	bd08      	pop	{r3, pc}
 8003b1a:	bf00      	nop
 8003b1c:	200038d4 	.word	0x200038d4
 8003b20:	2000391c 	.word	0x2000391c

08003b24 <limits_go_home>:
 8003b24:	e92d 4ff0 	stmdb	sp!, {r4, r5, r6, r7, r8, r9, sl, fp, lr}
 8003b28:	4b86      	ldr	r3, [pc, #536]	; (8003d44 <limits_go_home+0x220>)
 8003b2a:	b08f      	sub	sp, #60	; 0x3c
 8003b2c:	785c      	ldrb	r4, [r3, #1]
 8003b2e:	4683      	mov	fp, r0
 8003b30:	9301      	str	r3, [sp, #4]
 8003b32:	2c00      	cmp	r4, #0
 8003b34:	f040 80b5 	bne.w	8003ca2 <limits_go_home+0x17e>
 8003b38:	2306      	movs	r3, #6
 8003b3a:	2500      	movs	r5, #0
 8003b3c:	f04f 0800 	mov.w	r8, #0
 8003b40:	f04f 4940 	mov.w	r9, #3221225472	; 0xc0000000
 8003b44:	f8df a214 	ldr.w	sl, [pc, #532]	; 8003d5c <limits_go_home+0x238>
 8003b48:	9404      	str	r4, [sp, #16]
 8003b4a:	9402      	str	r4, [sp, #8]
 8003b4c:	9403      	str	r4, [sp, #12]
 8003b4e:	f88d 3010 	strb.w	r3, [sp, #16]
 8003b52:	f83a 3014 	ldrh.w	r3, [sl, r4, lsl #1]
 8003b56:	aa05      	add	r2, sp, #20
 8003b58:	f822 3014 	strh.w	r3, [r2, r4, lsl #1]
 8003b5c:	fa4b f304 	asr.w	r3, fp, r4
 8003b60:	07d8      	lsls	r0, r3, #31
 8003b62:	d518      	bpl.n	8003b96 <limits_go_home+0x72>
 8003b64:	4b78      	ldr	r3, [pc, #480]	; (8003d48 <limits_go_home+0x224>)
 8003b66:	eb03 0384 	add.w	r3, r3, r4, lsl #2
 8003b6a:	6c98      	ldr	r0, [r3, #72]	; 0x48
 8003b6c:	f7fc fc60 	bl	8000430 <__aeabi_f2d>
 8003b70:	4642      	mov	r2, r8
 8003b72:	464b      	mov	r3, r9
 8003b74:	f7fc fcb0 	bl	80004d8 <__aeabi_dmul>
 8003b78:	4606      	mov	r6, r0
 8003b7a:	460f      	mov	r7, r1
 8003b7c:	4628      	mov	r0, r5
 8003b7e:	f7fc fc57 	bl	8000430 <__aeabi_f2d>
 8003b82:	4632      	mov	r2, r6
 8003b84:	463b      	mov	r3, r7
 8003b86:	f7fc ff37 	bl	80009f8 <__aeabi_dcmpgt>
 8003b8a:	b920      	cbnz	r0, 8003b96 <limits_go_home+0x72>
 8003b8c:	4630      	mov	r0, r6
 8003b8e:	4639      	mov	r1, r7
 8003b90:	f7fc ff9a 	bl	8000ac8 <__aeabi_d2f>
 8003b94:	4605      	mov	r5, r0
 8003b96:	3401      	adds	r4, #1
 8003b98:	2c06      	cmp	r4, #6
 8003b9a:	d1da      	bne.n	8003b52 <limits_go_home+0x2e>
 8003b9c:	2404      	movs	r4, #4
 8003b9e:	2701      	movs	r7, #1
 8003ba0:	4e69      	ldr	r6, [pc, #420]	; (8003d48 <limits_go_home+0x224>)
 8003ba2:	f8d6 a080 	ldr.w	sl, [r6, #128]	; 0x80
 8003ba6:	f10d 0820 	add.w	r8, sp, #32
 8003baa:	4640      	mov	r0, r8
 8003bac:	4967      	ldr	r1, [pc, #412]	; (8003d4c <limits_go_home+0x228>)
 8003bae:	f003 fbe3 	bl	8007378 <system_convert_array_steps_to_mpos>
 8003bb2:	2000      	movs	r0, #0
 8003bb4:	4603      	mov	r3, r0
 8003bb6:	4681      	mov	r9, r0
 8003bb8:	4686      	mov	lr, r0
 8003bba:	f896 c079 	ldrb.w	ip, [r6, #121]	; 0x79
 8003bbe:	f105 4200 	add.w	r2, r5, #2147483648	; 0x80000000
 8003bc2:	fa4b f103 	asr.w	r1, fp, r3
 8003bc6:	07c9      	lsls	r1, r1, #31
 8003bc8:	d515      	bpl.n	8003bf6 <limits_go_home+0xd2>
 8003bca:	4960      	ldr	r1, [pc, #384]	; (8003d4c <limits_go_home+0x228>)
 8003bcc:	3001      	adds	r0, #1
 8003bce:	f841 e023 	str.w	lr, [r1, r3, lsl #2]
 8003bd2:	fa4c f103 	asr.w	r1, ip, r3
 8003bd6:	07c9      	lsls	r1, r1, #31
 8003bd8:	b2c0      	uxtb	r0, r0
 8003bda:	d503      	bpl.n	8003be4 <limits_go_home+0xc0>
 8003bdc:	b127      	cbz	r7, 8003be8 <limits_go_home+0xc4>
 8003bde:	f848 2023 	str.w	r2, [r8, r3, lsl #2]
 8003be2:	e003      	b.n	8003bec <limits_go_home+0xc8>
 8003be4:	2f00      	cmp	r7, #0
 8003be6:	d0fa      	beq.n	8003bde <limits_go_home+0xba>
 8003be8:	f848 5023 	str.w	r5, [r8, r3, lsl #2]
 8003bec:	a905      	add	r1, sp, #20
 8003bee:	f831 1013 	ldrh.w	r1, [r1, r3, lsl #1]
 8003bf2:	ea49 0901 	orr.w	r9, r9, r1
 8003bf6:	3301      	adds	r3, #1
 8003bf8:	2b06      	cmp	r3, #6
 8003bfa:	d1e2      	bne.n	8003bc2 <limits_go_home+0x9e>
 8003bfc:	f7fd f86a 	bl	8000cd4 <__aeabi_ui2f>
 8003c00:	f004 fda8 	bl	8008754 <sqrtf>
 8003c04:	9b01      	ldr	r3, [sp, #4]
 8003c06:	4601      	mov	r1, r0
 8003c08:	f8a3 9006 	strh.w	r9, [r3, #6]
 8003c0c:	4650      	mov	r0, sl
 8003c0e:	f7fd f8b9 	bl	8000d84 <__aeabi_fmul>
 8003c12:	a902      	add	r1, sp, #8
 8003c14:	9002      	str	r0, [sp, #8]
 8003c16:	a808      	add	r0, sp, #32
 8003c18:	f000 fe6e 	bl	80048f8 <plan_buffer_line>
 8003c1c:	2304      	movs	r3, #4
 8003c1e:	9a01      	ldr	r2, [sp, #4]
 8003c20:	f641 6806 	movw	r8, #7686	; 0x1e06
 8003c24:	7113      	strb	r3, [r2, #4]
 8003c26:	f002 ff73 	bl	8006b10 <st_prep_buffer>
 8003c2a:	f002 fcd9 	bl	80065e0 <st_wake_up>
 8003c2e:	4d48      	ldr	r5, [pc, #288]	; (8003d50 <limits_go_home+0x22c>)
 8003c30:	b1a7      	cbz	r7, 8003c5c <limits_go_home+0x138>
 8003c32:	f7ff ff39 	bl	8003aa8 <limits_get_state>
 8003c36:	2300      	movs	r3, #0
 8003c38:	aa05      	add	r2, sp, #20
 8003c3a:	f832 2013 	ldrh.w	r2, [r2, r3, lsl #1]
 8003c3e:	ea12 0f09 	tst.w	r2, r9
 8003c42:	d005      	beq.n	8003c50 <limits_go_home+0x12c>
 8003c44:	fa40 f103 	asr.w	r1, r0, r3
 8003c48:	07c9      	lsls	r1, r1, #31
 8003c4a:	bf48      	it	mi
 8003c4c:	ea29 0902 	bicmi.w	r9, r9, r2
 8003c50:	3301      	adds	r3, #1
 8003c52:	2b06      	cmp	r3, #6
 8003c54:	d1f0      	bne.n	8003c38 <limits_go_home+0x114>
 8003c56:	9b01      	ldr	r3, [sp, #4]
 8003c58:	f8a3 9006 	strh.w	r9, [r3, #6]
 8003c5c:	f002 ff58 	bl	8006b10 <st_prep_buffer>
 8003c60:	782b      	ldrb	r3, [r5, #0]
 8003c62:	f013 0f34 	tst.w	r3, #52	; 0x34
 8003c66:	d05a      	beq.n	8003d1e <limits_go_home+0x1fa>
 8003c68:	782d      	ldrb	r5, [r5, #0]
 8003c6a:	b2ed      	uxtb	r5, r5
 8003c6c:	06eb      	lsls	r3, r5, #27
 8003c6e:	d502      	bpl.n	8003c76 <limits_go_home+0x152>
 8003c70:	2006      	movs	r0, #6
 8003c72:	f003 fd47 	bl	8007704 <system_set_exec_alarm>
 8003c76:	06a8      	lsls	r0, r5, #26
 8003c78:	d502      	bpl.n	8003c80 <limits_go_home+0x15c>
 8003c7a:	2007      	movs	r0, #7
 8003c7c:	f003 fd42 	bl	8007704 <system_set_exec_alarm>
 8003c80:	2f00      	cmp	r7, #0
 8003c82:	d15a      	bne.n	8003d3a <limits_go_home+0x216>
 8003c84:	f7ff ff10 	bl	8003aa8 <limits_get_state>
 8003c88:	ea1b 0f00 	tst.w	fp, r0
 8003c8c:	d002      	beq.n	8003c94 <limits_go_home+0x170>
 8003c8e:	2008      	movs	r0, #8
 8003c90:	f003 fd38 	bl	8007704 <system_set_exec_alarm>
 8003c94:	4b2f      	ldr	r3, [pc, #188]	; (8003d54 <limits_go_home+0x230>)
 8003c96:	781b      	ldrb	r3, [r3, #0]
 8003c98:	b133      	cbz	r3, 8003ca8 <limits_go_home+0x184>
 8003c9a:	f000 fb0b 	bl	80042b4 <mc_reset>
 8003c9e:	f001 fab9 	bl	8005214 <protocol_execute_realtime>
 8003ca2:	b00f      	add	sp, #60	; 0x3c
 8003ca4:	e8bd 8ff0 	ldmia.w	sp!, {r4, r5, r6, r7, r8, r9, sl, fp, pc}
 8003ca8:	2004      	movs	r0, #4
 8003caa:	f003 fd21 	bl	80076f0 <system_clear_exec_state_flag>
 8003cae:	f002 feab 	bl	8006a08 <st_reset>
 8003cb2:	f8b6 0084 	ldrh.w	r0, [r6, #132]	; 0x84
 8003cb6:	f000 fbe1 	bl	800447c <delay_ms>
 8003cba:	f097 0701 	eors.w	r7, r7, #1
 8003cbe:	d032      	beq.n	8003d26 <limits_go_home+0x202>
 8003cc0:	4925      	ldr	r1, [pc, #148]	; (8003d58 <limits_go_home+0x234>)
 8003cc2:	f8d6 0088 	ldr.w	r0, [r6, #136]	; 0x88
 8003cc6:	f7fd f85d 	bl	8000d84 <__aeabi_fmul>
 8003cca:	4605      	mov	r5, r0
 8003ccc:	f8d6 a07c 	ldr.w	sl, [r6, #124]	; 0x7c
 8003cd0:	3c01      	subs	r4, #1
 8003cd2:	f014 04ff 	ands.w	r4, r4, #255	; 0xff
 8003cd6:	f47f af66 	bne.w	8003ba6 <limits_go_home+0x82>
 8003cda:	4d1b      	ldr	r5, [pc, #108]	; (8003d48 <limits_go_home+0x224>)
 8003cdc:	4f1b      	ldr	r7, [pc, #108]	; (8003d4c <limits_go_home+0x228>)
 8003cde:	fa4b f304 	asr.w	r3, fp, r4
 8003ce2:	07d9      	lsls	r1, r3, #31
 8003ce4:	d512      	bpl.n	8003d0c <limits_go_home+0x1e8>
 8003ce6:	f896 3079 	ldrb.w	r3, [r6, #121]	; 0x79
 8003cea:	4123      	asrs	r3, r4
 8003cec:	07da      	lsls	r2, r3, #31
 8003cee:	d51f      	bpl.n	8003d30 <limits_go_home+0x20c>
 8003cf0:	f8d6 1088 	ldr.w	r1, [r6, #136]	; 0x88
 8003cf4:	6ca8      	ldr	r0, [r5, #72]	; 0x48
 8003cf6:	f7fc ff3d 	bl	8000b74 <__addsf3>
 8003cfa:	6829      	ldr	r1, [r5, #0]
 8003cfc:	f7fd f842 	bl	8000d84 <__aeabi_fmul>
 8003d00:	f7fc fb96 	bl	8000430 <__aeabi_f2d>
 8003d04:	f004 fb6c 	bl	80083e0 <lround>
 8003d08:	f847 0024 	str.w	r0, [r7, r4, lsl #2]
 8003d0c:	3401      	adds	r4, #1
 8003d0e:	2c06      	cmp	r4, #6
 8003d10:	f105 0504 	add.w	r5, r5, #4
 8003d14:	d1e3      	bne.n	8003cde <limits_go_home+0x1ba>
 8003d16:	2300      	movs	r3, #0
 8003d18:	9a01      	ldr	r2, [sp, #4]
 8003d1a:	7113      	strb	r3, [r2, #4]
 8003d1c:	e7c1      	b.n	8003ca2 <limits_go_home+0x17e>
 8003d1e:	ea19 0f08 	tst.w	r9, r8
 8003d22:	d185      	bne.n	8003c30 <limits_go_home+0x10c>
 8003d24:	e7c3      	b.n	8003cae <limits_go_home+0x18a>
 8003d26:	f8d6 5088 	ldr.w	r5, [r6, #136]	; 0x88
 8003d2a:	f8d6 a080 	ldr.w	sl, [r6, #128]	; 0x80
 8003d2e:	e7cf      	b.n	8003cd0 <limits_go_home+0x1ac>
 8003d30:	f8d6 0088 	ldr.w	r0, [r6, #136]	; 0x88
 8003d34:	f100 4000 	add.w	r0, r0, #2147483648	; 0x80000000
 8003d38:	e7df      	b.n	8003cfa <limits_go_home+0x1d6>
 8003d3a:	076b      	lsls	r3, r5, #29
 8003d3c:	d5aa      	bpl.n	8003c94 <limits_go_home+0x170>
 8003d3e:	2009      	movs	r0, #9
 8003d40:	e7a6      	b.n	8003c90 <limits_go_home+0x16c>
 8003d42:	bf00      	nop
 8003d44:	200038d4 	.word	0x200038d4
 8003d48:	20003f70 	.word	0x20003f70
 8003d4c:	20003904 	.word	0x20003904
 8003d50:	200038e9 	.word	0x200038e9
 8003d54:	2000391c 	.word	0x2000391c
 8003d58:	40a00000 	.word	0x40a00000
 8003d5c:	08009a5a 	.word	0x08009a5a

08003d60 <limits_soft_check>:
 8003d60:	b510      	push	{r4, lr}
 8003d62:	f003 fb17 	bl	8007394 <system_check_travel_limits>
 8003d66:	b1c0      	cbz	r0, 8003d9a <limits_soft_check+0x3a>
 8003d68:	2201      	movs	r2, #1
 8003d6a:	4c0c      	ldr	r4, [pc, #48]	; (8003d9c <limits_soft_check+0x3c>)
 8003d6c:	7820      	ldrb	r0, [r4, #0]
 8003d6e:	70e2      	strb	r2, [r4, #3]
 8003d70:	2808      	cmp	r0, #8
 8003d72:	d008      	beq.n	8003d86 <limits_soft_check+0x26>
 8003d74:	f000 fa9e 	bl	80042b4 <mc_reset>
 8003d78:	2002      	movs	r0, #2
 8003d7a:	f003 fcc3 	bl	8007704 <system_set_exec_alarm>
 8003d7e:	e8bd 4010 	ldmia.w	sp!, {r4, lr}
 8003d82:	f001 ba47 	b.w	8005214 <protocol_execute_realtime>
 8003d86:	f003 fb23 	bl	80073d0 <system_set_exec_state_flag>
 8003d8a:	f001 fa43 	bl	8005214 <protocol_execute_realtime>
 8003d8e:	7863      	ldrb	r3, [r4, #1]
 8003d90:	b91b      	cbnz	r3, 8003d9a <limits_soft_check+0x3a>
 8003d92:	7823      	ldrb	r3, [r4, #0]
 8003d94:	2b00      	cmp	r3, #0
 8003d96:	d1f8      	bne.n	8003d8a <limits_soft_check+0x2a>
 8003d98:	e7ec      	b.n	8003d74 <limits_soft_check+0x14>
 8003d9a:	bd10      	pop	{r4, pc}
 8003d9c:	200038d4 	.word	0x200038d4

08003da0 <mc_line>:
 8003da0:	b5f8      	push	{r3, r4, r5, r6, r7, lr}
 8003da2:	4c17      	ldr	r4, [pc, #92]	; (8003e00 <mc_line+0x60>)
 8003da4:	4607      	mov	r7, r0
 8003da6:	f894 2078 	ldrb.w	r2, [r4, #120]	; 0x78
 8003daa:	460d      	mov	r5, r1
 8003dac:	f012 0f20 	tst.w	r2, #32
 8003db0:	4e14      	ldr	r6, [pc, #80]	; (8003e04 <mc_line+0x64>)
 8003db2:	d004      	beq.n	8003dbe <mc_line+0x1e>
 8003db4:	7833      	ldrb	r3, [r6, #0]
 8003db6:	2b20      	cmp	r3, #32
 8003db8:	d001      	beq.n	8003dbe <mc_line+0x1e>
 8003dba:	f7ff ffd1 	bl	8003d60 <limits_soft_check>
 8003dbe:	7833      	ldrb	r3, [r6, #0]
 8003dc0:	2b02      	cmp	r3, #2
 8003dc2:	d01b      	beq.n	8003dfc <mc_line+0x5c>
 8003dc4:	f001 fa26 	bl	8005214 <protocol_execute_realtime>
 8003dc8:	7873      	ldrb	r3, [r6, #1]
 8003dca:	b9bb      	cbnz	r3, 8003dfc <mc_line+0x5c>
 8003dcc:	f000 fcf8 	bl	80047c0 <plan_check_full_buffer>
 8003dd0:	b110      	cbz	r0, 8003dd8 <mc_line+0x38>
 8003dd2:	f001 f861 	bl	8004e98 <protocol_auto_cycle_start>
 8003dd6:	e7f5      	b.n	8003dc4 <mc_line+0x24>
 8003dd8:	4629      	mov	r1, r5
 8003dda:	4638      	mov	r0, r7
 8003ddc:	f000 fd8c 	bl	80048f8 <plan_buffer_line>
 8003de0:	b960      	cbnz	r0, 8003dfc <mc_line+0x5c>
 8003de2:	f894 3078 	ldrb.w	r3, [r4, #120]	; 0x78
 8003de6:	079a      	lsls	r2, r3, #30
 8003de8:	d508      	bpl.n	8003dfc <mc_line+0x5c>
 8003dea:	7a2b      	ldrb	r3, [r5, #8]
 8003dec:	06db      	lsls	r3, r3, #27
 8003dee:	d505      	bpl.n	8003dfc <mc_line+0x5c>
 8003df0:	6869      	ldr	r1, [r5, #4]
 8003df2:	2010      	movs	r0, #16
 8003df4:	e8bd 40f8 	ldmia.w	sp!, {r3, r4, r5, r6, r7, lr}
 8003df8:	f002 bbe0 	b.w	80065bc <spindle_sync>
 8003dfc:	bdf8      	pop	{r3, r4, r5, r6, r7, pc}
 8003dfe:	bf00      	nop
 8003e00:	20003f70 	.word	0x20003f70
 8003e04:	200038d4 	.word	0x200038d4

08003e08 <mc_arc>:
 8003e08:	e92d 4ff0 	stmdb	sp!, {r4, r5, r6, r7, r8, r9, sl, fp, lr}
 8003e0c:	461c      	mov	r4, r3
 8003e0e:	b08f      	sub	sp, #60	; 0x3c
 8003e10:	f89d 5064 	ldrb.w	r5, [sp, #100]	; 0x64
 8003e14:	9201      	str	r2, [sp, #4]
 8003e16:	00ab      	lsls	r3, r5, #2
 8003e18:	441a      	add	r2, r3
 8003e1a:	18e3      	adds	r3, r4, r3
 8003e1c:	f854 7025 	ldr.w	r7, [r4, r5, lsl #2]
 8003e20:	9309      	str	r3, [sp, #36]	; 0x24
 8003e22:	9b01      	ldr	r3, [sp, #4]
 8003e24:	9003      	str	r0, [sp, #12]
 8003e26:	9102      	str	r1, [sp, #8]
 8003e28:	4638      	mov	r0, r7
 8003e2a:	f853 1025 	ldr.w	r1, [r3, r5, lsl #2]
 8003e2e:	9208      	str	r2, [sp, #32]
 8003e30:	f7fc fea0 	bl	8000b74 <__addsf3>
 8003e34:	f89d 8068 	ldrb.w	r8, [sp, #104]	; 0x68
 8003e38:	9a01      	ldr	r2, [sp, #4]
 8003e3a:	ea4f 0388 	mov.w	r3, r8, lsl #2
 8003e3e:	441a      	add	r2, r3
 8003e40:	18e3      	adds	r3, r4, r3
 8003e42:	930b      	str	r3, [sp, #44]	; 0x2c
 8003e44:	f854 4028 	ldr.w	r4, [r4, r8, lsl #2]
 8003e48:	9b01      	ldr	r3, [sp, #4]
 8003e4a:	9004      	str	r0, [sp, #16]
 8003e4c:	f853 1028 	ldr.w	r1, [r3, r8, lsl #2]
 8003e50:	4620      	mov	r0, r4
 8003e52:	920a      	str	r2, [sp, #40]	; 0x28
 8003e54:	f7fc fe8e 	bl	8000b74 <__addsf3>
 8003e58:	9b03      	ldr	r3, [sp, #12]
 8003e5a:	9904      	ldr	r1, [sp, #16]
 8003e5c:	9005      	str	r0, [sp, #20]
 8003e5e:	f853 0025 	ldr.w	r0, [r3, r5, lsl #2]
 8003e62:	f7fc fe85 	bl	8000b70 <__aeabi_fsub>
 8003e66:	9b03      	ldr	r3, [sp, #12]
 8003e68:	4605      	mov	r5, r0
 8003e6a:	9905      	ldr	r1, [sp, #20]
 8003e6c:	f853 0028 	ldr.w	r0, [r3, r8, lsl #2]
 8003e70:	f7fc fe7e 	bl	8000b70 <__aeabi_fsub>
 8003e74:	f107 4700 	add.w	r7, r7, #2147483648	; 0x80000000
 8003e78:	4680      	mov	r8, r0
 8003e7a:	4629      	mov	r1, r5
 8003e7c:	4638      	mov	r0, r7
 8003e7e:	f7fc ff81 	bl	8000d84 <__aeabi_fmul>
 8003e82:	f104 4400 	add.w	r4, r4, #2147483648	; 0x80000000
 8003e86:	4682      	mov	sl, r0
 8003e88:	4641      	mov	r1, r8
 8003e8a:	4620      	mov	r0, r4
 8003e8c:	f7fc ff7a 	bl	8000d84 <__aeabi_fmul>
 8003e90:	4601      	mov	r1, r0
 8003e92:	4650      	mov	r0, sl
 8003e94:	f7fc fe6e 	bl	8000b74 <__addsf3>
 8003e98:	4641      	mov	r1, r8
 8003e9a:	4682      	mov	sl, r0
 8003e9c:	4638      	mov	r0, r7
 8003e9e:	f7fc ff71 	bl	8000d84 <__aeabi_fmul>
 8003ea2:	4629      	mov	r1, r5
 8003ea4:	4680      	mov	r8, r0
 8003ea6:	4620      	mov	r0, r4
 8003ea8:	f7fc ff6c 	bl	8000d84 <__aeabi_fmul>
 8003eac:	4601      	mov	r1, r0
 8003eae:	4640      	mov	r0, r8
 8003eb0:	f7fc fe5e 	bl	8000b70 <__aeabi_fsub>
 8003eb4:	4651      	mov	r1, sl
 8003eb6:	9e18      	ldr	r6, [sp, #96]	; 0x60
 8003eb8:	f89d b06c 	ldrb.w	fp, [sp, #108]	; 0x6c
 8003ebc:	f89d 9070 	ldrb.w	r9, [sp, #112]	; 0x70
 8003ec0:	f004 fc46 	bl	8008750 <atan2f>
 8003ec4:	4605      	mov	r5, r0
 8003ec6:	f1b9 0f00 	cmp.w	r9, #0
 8003eca:	d04e      	beq.n	8003f6a <mc_arc+0x162>
 8003ecc:	f7fc fab0 	bl	8000430 <__aeabi_f2d>
 8003ed0:	a39b      	add	r3, pc, #620	; (adr r3, 8004140 <mc_arc+0x338>)
 8003ed2:	e9d3 2300 	ldrd	r2, r3, [r3]
 8003ed6:	4680      	mov	r8, r0
 8003ed8:	4689      	mov	r9, r1
 8003eda:	f7fc fd83 	bl	80009e4 <__aeabi_dcmpge>
 8003ede:	b148      	cbz	r0, 8003ef4 <mc_arc+0xec>
 8003ee0:	a399      	add	r3, pc, #612	; (adr r3, 8004148 <mc_arc+0x340>)
 8003ee2:	e9d3 2300 	ldrd	r2, r3, [r3]
 8003ee6:	4640      	mov	r0, r8
 8003ee8:	4649      	mov	r1, r9
 8003eea:	f7fc f941 	bl	8000170 <__aeabi_dsub>
 8003eee:	f7fc fdeb 	bl	8000ac8 <__aeabi_d2f>
 8003ef2:	4605      	mov	r5, r0
 8003ef4:	4b9a      	ldr	r3, [pc, #616]	; (8004160 <mc_arc+0x358>)
 8003ef6:	4631      	mov	r1, r6
 8003ef8:	f8d3 806c 	ldr.w	r8, [r3, #108]	; 0x6c
 8003efc:	4630      	mov	r0, r6
 8003efe:	f7fc fe39 	bl	8000b74 <__addsf3>
 8003f02:	4641      	mov	r1, r8
 8003f04:	f7fc fe34 	bl	8000b70 <__aeabi_fsub>
 8003f08:	4641      	mov	r1, r8
 8003f0a:	f7fc ff3b 	bl	8000d84 <__aeabi_fmul>
 8003f0e:	f004 fc21 	bl	8008754 <sqrtf>
 8003f12:	4682      	mov	sl, r0
 8003f14:	4628      	mov	r0, r5
 8003f16:	f7fc fa8b 	bl	8000430 <__aeabi_f2d>
 8003f1a:	2200      	movs	r2, #0
 8003f1c:	4b91      	ldr	r3, [pc, #580]	; (8004164 <mc_arc+0x35c>)
 8003f1e:	f7fc fadb 	bl	80004d8 <__aeabi_dmul>
 8003f22:	4680      	mov	r8, r0
 8003f24:	4630      	mov	r0, r6
 8003f26:	4689      	mov	r9, r1
 8003f28:	f7fc fa82 	bl	8000430 <__aeabi_f2d>
 8003f2c:	4602      	mov	r2, r0
 8003f2e:	460b      	mov	r3, r1
 8003f30:	4640      	mov	r0, r8
 8003f32:	4649      	mov	r1, r9
 8003f34:	f7fc fad0 	bl	80004d8 <__aeabi_dmul>
 8003f38:	4680      	mov	r8, r0
 8003f3a:	4650      	mov	r0, sl
 8003f3c:	f021 4600 	bic.w	r6, r1, #2147483648	; 0x80000000
 8003f40:	f7fc fa76 	bl	8000430 <__aeabi_f2d>
 8003f44:	4602      	mov	r2, r0
 8003f46:	460b      	mov	r3, r1
 8003f48:	4640      	mov	r0, r8
 8003f4a:	4631      	mov	r1, r6
 8003f4c:	f7fc fbee 	bl	800072c <__aeabi_ddiv>
 8003f50:	f004 f9c2 	bl	80082d8 <floor>
 8003f54:	f7fc fd98 	bl	8000a88 <__aeabi_d2uiz>
 8003f58:	b286      	uxth	r6, r0
 8003f5a:	b9ce      	cbnz	r6, 8003f90 <mc_arc+0x188>
 8003f5c:	9902      	ldr	r1, [sp, #8]
 8003f5e:	9803      	ldr	r0, [sp, #12]
 8003f60:	b00f      	add	sp, #60	; 0x3c
 8003f62:	e8bd 4ff0 	ldmia.w	sp!, {r4, r5, r6, r7, r8, r9, sl, fp, lr}
 8003f66:	f7ff bf1b 	b.w	8003da0 <mc_line>
 8003f6a:	f7fc fa61 	bl	8000430 <__aeabi_f2d>
 8003f6e:	a378      	add	r3, pc, #480	; (adr r3, 8004150 <mc_arc+0x348>)
 8003f70:	e9d3 2300 	ldrd	r2, r3, [r3]
 8003f74:	4680      	mov	r8, r0
 8003f76:	4689      	mov	r9, r1
 8003f78:	f7fc fd2a 	bl	80009d0 <__aeabi_dcmple>
 8003f7c:	2800      	cmp	r0, #0
 8003f7e:	d0b9      	beq.n	8003ef4 <mc_arc+0xec>
 8003f80:	a371      	add	r3, pc, #452	; (adr r3, 8004148 <mc_arc+0x340>)
 8003f82:	e9d3 2300 	ldrd	r2, r3, [r3]
 8003f86:	4640      	mov	r0, r8
 8003f88:	4649      	mov	r1, r9
 8003f8a:	f7fc f8f3 	bl	8000174 <__adddf3>
 8003f8e:	e7ae      	b.n	8003eee <mc_arc+0xe6>
 8003f90:	9b02      	ldr	r3, [sp, #8]
 8003f92:	f893 8008 	ldrb.w	r8, [r3, #8]
 8003f96:	f018 0f08 	tst.w	r8, #8
 8003f9a:	d00d      	beq.n	8003fb8 <mc_arc+0x1b0>
 8003f9c:	4630      	mov	r0, r6
 8003f9e:	f7fc fe9d 	bl	8000cdc <__aeabi_i2f>
 8003fa2:	9b02      	ldr	r3, [sp, #8]
 8003fa4:	4601      	mov	r1, r0
 8003fa6:	6818      	ldr	r0, [r3, #0]
 8003fa8:	f7fc feec 	bl	8000d84 <__aeabi_fmul>
 8003fac:	9b02      	ldr	r3, [sp, #8]
 8003fae:	f028 0808 	bic.w	r8, r8, #8
 8003fb2:	6018      	str	r0, [r3, #0]
 8003fb4:	f883 8008 	strb.w	r8, [r3, #8]
 8003fb8:	4630      	mov	r0, r6
 8003fba:	f7fc fe8f 	bl	8000cdc <__aeabi_i2f>
 8003fbe:	4680      	mov	r8, r0
 8003fc0:	4601      	mov	r1, r0
 8003fc2:	4628      	mov	r0, r5
 8003fc4:	f7fc ff92 	bl	8000eec <__aeabi_fdiv>
 8003fc8:	9b01      	ldr	r3, [sp, #4]
 8003fca:	4682      	mov	sl, r0
 8003fcc:	eb03 038b 	add.w	r3, r3, fp, lsl #2
 8003fd0:	9306      	str	r3, [sp, #24]
 8003fd2:	9b01      	ldr	r3, [sp, #4]
 8003fd4:	f853 102b 	ldr.w	r1, [r3, fp, lsl #2]
 8003fd8:	9b03      	ldr	r3, [sp, #12]
 8003fda:	f853 002b 	ldr.w	r0, [r3, fp, lsl #2]
 8003fde:	f7fc fdc7 	bl	8000b70 <__aeabi_fsub>
 8003fe2:	4641      	mov	r1, r8
 8003fe4:	f7fc ff82 	bl	8000eec <__aeabi_fdiv>
 8003fe8:	4651      	mov	r1, sl
 8003fea:	900c      	str	r0, [sp, #48]	; 0x30
 8003fec:	4650      	mov	r0, sl
 8003fee:	f7fc fec9 	bl	8000d84 <__aeabi_fmul>
 8003ff2:	4601      	mov	r1, r0
 8003ff4:	f04f 4080 	mov.w	r0, #1073741824	; 0x40000000
 8003ff8:	f7fc fdba 	bl	8000b70 <__aeabi_fsub>
 8003ffc:	4605      	mov	r5, r0
 8003ffe:	4650      	mov	r0, sl
 8004000:	f7fc fa16 	bl	8000430 <__aeabi_f2d>
 8004004:	a354      	add	r3, pc, #336	; (adr r3, 8004158 <mc_arc+0x350>)
 8004006:	e9d3 2300 	ldrd	r2, r3, [r3]
 800400a:	f7fc fa65 	bl	80004d8 <__aeabi_dmul>
 800400e:	4680      	mov	r8, r0
 8004010:	4628      	mov	r0, r5
 8004012:	4689      	mov	r9, r1
 8004014:	f7fc fa0c 	bl	8000430 <__aeabi_f2d>
 8004018:	2200      	movs	r2, #0
 800401a:	4b53      	ldr	r3, [pc, #332]	; (8004168 <mc_arc+0x360>)
 800401c:	f7fc f8aa 	bl	8000174 <__adddf3>
 8004020:	4602      	mov	r2, r0
 8004022:	460b      	mov	r3, r1
 8004024:	4640      	mov	r0, r8
 8004026:	4649      	mov	r1, r9
 8004028:	f7fc fa56 	bl	80004d8 <__aeabi_dmul>
 800402c:	f7fc fd4c 	bl	8000ac8 <__aeabi_d2f>
 8004030:	f04f 517c 	mov.w	r1, #1056964608	; 0x3f000000
 8004034:	9007      	str	r0, [sp, #28]
 8004036:	4628      	mov	r0, r5
 8004038:	f7fc fea4 	bl	8000d84 <__aeabi_fmul>
 800403c:	2501      	movs	r5, #1
 800403e:	4680      	mov	r8, r0
 8004040:	f04f 0900 	mov.w	r9, #0
 8004044:	b2ab      	uxth	r3, r5
 8004046:	429e      	cmp	r6, r3
 8004048:	d988      	bls.n	8003f5c <mc_arc+0x154>
 800404a:	f1b9 0f0b 	cmp.w	r9, #11
 800404e:	d83f      	bhi.n	80040d0 <mc_arc+0x2c8>
 8004050:	9907      	ldr	r1, [sp, #28]
 8004052:	4638      	mov	r0, r7
 8004054:	f7fc fe96 	bl	8000d84 <__aeabi_fmul>
 8004058:	4641      	mov	r1, r8
 800405a:	4683      	mov	fp, r0
 800405c:	4620      	mov	r0, r4
 800405e:	f7fc fe91 	bl	8000d84 <__aeabi_fmul>
 8004062:	4601      	mov	r1, r0
 8004064:	4658      	mov	r0, fp
 8004066:	f7fc fd85 	bl	8000b74 <__addsf3>
 800406a:	4641      	mov	r1, r8
 800406c:	4683      	mov	fp, r0
 800406e:	4638      	mov	r0, r7
 8004070:	f7fc fe88 	bl	8000d84 <__aeabi_fmul>
 8004074:	9907      	ldr	r1, [sp, #28]
 8004076:	4607      	mov	r7, r0
 8004078:	4620      	mov	r0, r4
 800407a:	f7fc fe83 	bl	8000d84 <__aeabi_fmul>
 800407e:	4601      	mov	r1, r0
 8004080:	4638      	mov	r0, r7
 8004082:	f7fc fd75 	bl	8000b70 <__aeabi_fsub>
 8004086:	465c      	mov	r4, fp
 8004088:	4607      	mov	r7, r0
 800408a:	f109 0901 	add.w	r9, r9, #1
 800408e:	fa5f f989 	uxtb.w	r9, r9
 8004092:	9904      	ldr	r1, [sp, #16]
 8004094:	4638      	mov	r0, r7
 8004096:	f7fc fd6d 	bl	8000b74 <__addsf3>
 800409a:	9b08      	ldr	r3, [sp, #32]
 800409c:	9905      	ldr	r1, [sp, #20]
 800409e:	6018      	str	r0, [r3, #0]
 80040a0:	4620      	mov	r0, r4
 80040a2:	f7fc fd67 	bl	8000b74 <__addsf3>
 80040a6:	9b0a      	ldr	r3, [sp, #40]	; 0x28
 80040a8:	990c      	ldr	r1, [sp, #48]	; 0x30
 80040aa:	6018      	str	r0, [r3, #0]
 80040ac:	9b06      	ldr	r3, [sp, #24]
 80040ae:	3501      	adds	r5, #1
 80040b0:	6818      	ldr	r0, [r3, #0]
 80040b2:	f7fc fd5f 	bl	8000b74 <__addsf3>
 80040b6:	9b06      	ldr	r3, [sp, #24]
 80040b8:	9902      	ldr	r1, [sp, #8]
 80040ba:	6018      	str	r0, [r3, #0]
 80040bc:	9801      	ldr	r0, [sp, #4]
 80040be:	f7ff fe6f 	bl	8003da0 <mc_line>
 80040c2:	4b2a      	ldr	r3, [pc, #168]	; (800416c <mc_arc+0x364>)
 80040c4:	785b      	ldrb	r3, [r3, #1]
 80040c6:	2b00      	cmp	r3, #0
 80040c8:	d0bc      	beq.n	8004044 <mc_arc+0x23c>
 80040ca:	b00f      	add	sp, #60	; 0x3c
 80040cc:	e8bd 8ff0 	ldmia.w	sp!, {r4, r5, r6, r7, r8, r9, sl, fp, pc}
 80040d0:	4628      	mov	r0, r5
 80040d2:	f7fc fe03 	bl	8000cdc <__aeabi_i2f>
 80040d6:	4651      	mov	r1, sl
 80040d8:	f7fc fe54 	bl	8000d84 <__aeabi_fmul>
 80040dc:	4607      	mov	r7, r0
 80040de:	f004 fa79 	bl	80085d4 <cosf>
 80040e2:	4604      	mov	r4, r0
 80040e4:	4638      	mov	r0, r7
 80040e6:	f004 faa9 	bl	800863c <sinf>
 80040ea:	9b09      	ldr	r3, [sp, #36]	; 0x24
 80040ec:	9a0b      	ldr	r2, [sp, #44]	; 0x2c
 80040ee:	681b      	ldr	r3, [r3, #0]
 80040f0:	4683      	mov	fp, r0
 80040f2:	f103 4300 	add.w	r3, r3, #2147483648	; 0x80000000
 80040f6:	4619      	mov	r1, r3
 80040f8:	4620      	mov	r0, r4
 80040fa:	f8d2 9000 	ldr.w	r9, [r2]
 80040fe:	930d      	str	r3, [sp, #52]	; 0x34
 8004100:	f7fc fe40 	bl	8000d84 <__aeabi_fmul>
 8004104:	4649      	mov	r1, r9
 8004106:	4607      	mov	r7, r0
 8004108:	4658      	mov	r0, fp
 800410a:	f7fc fe3b 	bl	8000d84 <__aeabi_fmul>
 800410e:	4601      	mov	r1, r0
 8004110:	4638      	mov	r0, r7
 8004112:	f7fc fd2f 	bl	8000b74 <__addsf3>
 8004116:	9b0d      	ldr	r3, [sp, #52]	; 0x34
 8004118:	4607      	mov	r7, r0
 800411a:	4619      	mov	r1, r3
 800411c:	4658      	mov	r0, fp
 800411e:	f7fc fe31 	bl	8000d84 <__aeabi_fmul>
 8004122:	4649      	mov	r1, r9
 8004124:	4683      	mov	fp, r0
 8004126:	4620      	mov	r0, r4
 8004128:	f7fc fe2c 	bl	8000d84 <__aeabi_fmul>
 800412c:	4601      	mov	r1, r0
 800412e:	4658      	mov	r0, fp
 8004130:	f7fc fd1e 	bl	8000b70 <__aeabi_fsub>
 8004134:	f04f 0900 	mov.w	r9, #0
 8004138:	4604      	mov	r4, r0
 800413a:	e7aa      	b.n	8004092 <mc_arc+0x28a>
 800413c:	f3af 8000 	nop.w
 8004140:	a0b5ed8d 	.word	0xa0b5ed8d
 8004144:	bea0c6f7 	.word	0xbea0c6f7
 8004148:	54442d18 	.word	0x54442d18
 800414c:	401921fb 	.word	0x401921fb
 8004150:	a0b5ed8d 	.word	0xa0b5ed8d
 8004154:	3ea0c6f7 	.word	0x3ea0c6f7
 8004158:	5c7dda4b 	.word	0x5c7dda4b
 800415c:	3fc55555 	.word	0x3fc55555
 8004160:	20003f70 	.word	0x20003f70
 8004164:	3fe00000 	.word	0x3fe00000
 8004168:	40100000 	.word	0x40100000
 800416c:	200038d4 	.word	0x200038d4

08004170 <mc_dwell>:
 8004170:	b510      	push	{r4, lr}
 8004172:	4b07      	ldr	r3, [pc, #28]	; (8004190 <mc_dwell+0x20>)
 8004174:	4604      	mov	r4, r0
 8004176:	781b      	ldrb	r3, [r3, #0]
 8004178:	2b02      	cmp	r3, #2
 800417a:	d007      	beq.n	800418c <mc_dwell+0x1c>
 800417c:	f001 f9b2 	bl	80054e4 <protocol_buffer_synchronize>
 8004180:	4620      	mov	r0, r4
 8004182:	e8bd 4010 	ldmia.w	sp!, {r4, lr}
 8004186:	2100      	movs	r1, #0
 8004188:	f000 b954 	b.w	8004434 <delay_sec>
 800418c:	bd10      	pop	{r4, pc}
 800418e:	bf00      	nop
 8004190:	200038d4 	.word	0x200038d4

08004194 <mc_homing_cycle>:
 8004194:	b510      	push	{r4, lr}
 8004196:	4604      	mov	r4, r0
 8004198:	f7ff fc7e 	bl	8003a98 <limits_disable>
 800419c:	b1bc      	cbz	r4, 80041ce <mc_homing_cycle+0x3a>
 800419e:	4620      	mov	r0, r4
 80041a0:	f7ff fcc0 	bl	8003b24 <limits_go_home>
 80041a4:	f001 f836 	bl	8005214 <protocol_execute_realtime>
 80041a8:	4b0c      	ldr	r3, [pc, #48]	; (80041dc <mc_homing_cycle+0x48>)
 80041aa:	785b      	ldrb	r3, [r3, #1]
 80041ac:	b9a3      	cbnz	r3, 80041d8 <mc_homing_cycle+0x44>
 80041ae:	f7fe fc25 	bl	80029fc <gc_sync_position>
 80041b2:	f000 fd25 	bl	8004c00 <plan_sync_position>
 80041b6:	f44f 427c 	mov.w	r2, #64512	; 0xfc00
 80041ba:	4b09      	ldr	r3, [pc, #36]	; (80041e0 <mc_homing_cycle+0x4c>)
 80041bc:	2028      	movs	r0, #40	; 0x28
 80041be:	615a      	str	r2, [r3, #20]
 80041c0:	f7fd f8c4 	bl	800134c <HAL_NVIC_ClearPendingIRQ>
 80041c4:	e8bd 4010 	ldmia.w	sp!, {r4, lr}
 80041c8:	2028      	movs	r0, #40	; 0x28
 80041ca:	f7fd b89d 	b.w	8001308 <HAL_NVIC_EnableIRQ>
 80041ce:	2004      	movs	r0, #4
 80041d0:	f7ff fca8 	bl	8003b24 <limits_go_home>
 80041d4:	2003      	movs	r0, #3
 80041d6:	e7e3      	b.n	80041a0 <mc_homing_cycle+0xc>
 80041d8:	bd10      	pop	{r4, pc}
 80041da:	bf00      	nop
 80041dc:	200038d4 	.word	0x200038d4
 80041e0:	40010400 	.word	0x40010400

080041e4 <mc_probe_cycle>:
 80041e4:	e92d 43f8 	stmdb	sp!, {r3, r4, r5, r6, r7, r8, r9, lr}
 80041e8:	4c2e      	ldr	r4, [pc, #184]	; (80042a4 <mc_probe_cycle+0xc0>)
 80041ea:	4606      	mov	r6, r0
 80041ec:	7823      	ldrb	r3, [r4, #0]
 80041ee:	4689      	mov	r9, r1
 80041f0:	2b02      	cmp	r3, #2
 80041f2:	4690      	mov	r8, r2
 80041f4:	4627      	mov	r7, r4
 80041f6:	d052      	beq.n	800429e <mc_probe_cycle+0xba>
 80041f8:	f001 f974 	bl	80054e4 <protocol_buffer_synchronize>
 80041fc:	7865      	ldrb	r5, [r4, #1]
 80041fe:	b115      	cbz	r5, 8004206 <mc_probe_cycle+0x22>
 8004200:	2002      	movs	r0, #2
 8004202:	e8bd 83f8 	ldmia.w	sp!, {r3, r4, r5, r6, r7, r8, r9, pc}
 8004206:	f3c8 00c0 	ubfx	r0, r8, #3, #1
 800420a:	7165      	strb	r5, [r4, #5]
 800420c:	f000 fdfe 	bl	8004e0c <probe_configure_invert_mask>
 8004210:	f000 fe16 	bl	8004e40 <probe_get_state>
 8004214:	b140      	cbz	r0, 8004228 <mc_probe_cycle+0x44>
 8004216:	2004      	movs	r0, #4
 8004218:	f003 fa74 	bl	8007704 <system_set_exec_alarm>
 800421c:	f000 fffa 	bl	8005214 <protocol_execute_realtime>
 8004220:	4628      	mov	r0, r5
 8004222:	f000 fdf3 	bl	8004e0c <probe_configure_invert_mask>
 8004226:	e7eb      	b.n	8004200 <mc_probe_cycle+0x1c>
 8004228:	4630      	mov	r0, r6
 800422a:	4649      	mov	r1, r9
 800422c:	f7ff fdb8 	bl	8003da0 <mc_line>
 8004230:	2301      	movs	r3, #1
 8004232:	4e1d      	ldr	r6, [pc, #116]	; (80042a8 <mc_probe_cycle+0xc4>)
 8004234:	2002      	movs	r0, #2
 8004236:	7033      	strb	r3, [r6, #0]
 8004238:	f003 f8ca 	bl	80073d0 <system_set_exec_state_flag>
 800423c:	f000 ffea 	bl	8005214 <protocol_execute_realtime>
 8004240:	787b      	ldrb	r3, [r7, #1]
 8004242:	2b00      	cmp	r3, #0
 8004244:	d1dc      	bne.n	8004200 <mc_probe_cycle+0x1c>
 8004246:	783b      	ldrb	r3, [r7, #0]
 8004248:	2b00      	cmp	r3, #0
 800424a:	d1f7      	bne.n	800423c <mc_probe_cycle+0x58>
 800424c:	7833      	ldrb	r3, [r6, #0]
 800424e:	2b01      	cmp	r3, #1
 8004250:	d122      	bne.n	8004298 <mc_probe_cycle+0xb4>
 8004252:	f018 0f10 	tst.w	r8, #16
 8004256:	d01b      	beq.n	8004290 <mc_probe_cycle+0xac>
 8004258:	4c14      	ldr	r4, [pc, #80]	; (80042ac <mc_probe_cycle+0xc8>)
 800425a:	4d15      	ldr	r5, [pc, #84]	; (80042b0 <mc_probe_cycle+0xcc>)
 800425c:	cd0f      	ldmia	r5!, {r0, r1, r2, r3}
 800425e:	c40f      	stmia	r4!, {r0, r1, r2, r3}
 8004260:	e895 0003 	ldmia.w	r5, {r0, r1}
 8004264:	e884 0003 	stmia.w	r4, {r0, r1}
 8004268:	2000      	movs	r0, #0
 800426a:	7030      	strb	r0, [r6, #0]
 800426c:	f000 fdce 	bl	8004e0c <probe_configure_invert_mask>
 8004270:	f000 ffd0 	bl	8005214 <protocol_execute_realtime>
 8004274:	f002 fbc8 	bl	8006a08 <st_reset>
 8004278:	f000 fa48 	bl	800470c <plan_reset>
 800427c:	f000 fcc0 	bl	8004c00 <plan_sync_position>
 8004280:	f001 fabe 	bl	8005800 <report_probe_parameters>
 8004284:	7978      	ldrb	r0, [r7, #5]
 8004286:	3000      	adds	r0, #0
 8004288:	bf18      	it	ne
 800428a:	2001      	movne	r0, #1
 800428c:	e8bd 83f8 	ldmia.w	sp!, {r3, r4, r5, r6, r7, r8, r9, pc}
 8004290:	2005      	movs	r0, #5
 8004292:	f003 fa37 	bl	8007704 <system_set_exec_alarm>
 8004296:	e7e7      	b.n	8004268 <mc_probe_cycle+0x84>
 8004298:	2301      	movs	r3, #1
 800429a:	717b      	strb	r3, [r7, #5]
 800429c:	e7e4      	b.n	8004268 <mc_probe_cycle+0x84>
 800429e:	2000      	movs	r0, #0
 80042a0:	e8bd 83f8 	ldmia.w	sp!, {r3, r4, r5, r6, r7, r8, r9, pc}
 80042a4:	200038d4 	.word	0x200038d4
 80042a8:	200038ea 	.word	0x200038ea
 80042ac:	200038ec 	.word	0x200038ec
 80042b0:	20003904 	.word	0x20003904

080042b4 <mc_reset>:
 80042b4:	b508      	push	{r3, lr}
 80042b6:	4b11      	ldr	r3, [pc, #68]	; (80042fc <mc_reset+0x48>)
 80042b8:	781b      	ldrb	r3, [r3, #0]
 80042ba:	06db      	lsls	r3, r3, #27
 80042bc:	d41d      	bmi.n	80042fa <mc_reset+0x46>
 80042be:	2010      	movs	r0, #16
 80042c0:	f003 f886 	bl	80073d0 <system_set_exec_state_flag>
 80042c4:	f002 f8b2 	bl	800642c <spindle_stop>
 80042c8:	f7fe fa9e 	bl	8002808 <coolant_stop>
 80042cc:	4a0c      	ldr	r2, [pc, #48]	; (8004300 <mc_reset+0x4c>)
 80042ce:	7813      	ldrb	r3, [r2, #0]
 80042d0:	f013 0f2c 	tst.w	r3, #44	; 0x2c
 80042d4:	d103      	bne.n	80042de <mc_reset+0x2a>
 80042d6:	7912      	ldrb	r2, [r2, #4]
 80042d8:	f012 0f06 	tst.w	r2, #6
 80042dc:	d00d      	beq.n	80042fa <mc_reset+0x46>
 80042de:	2b04      	cmp	r3, #4
 80042e0:	d109      	bne.n	80042f6 <mc_reset+0x42>
 80042e2:	4b08      	ldr	r3, [pc, #32]	; (8004304 <mc_reset+0x50>)
 80042e4:	781b      	ldrb	r3, [r3, #0]
 80042e6:	b913      	cbnz	r3, 80042ee <mc_reset+0x3a>
 80042e8:	2006      	movs	r0, #6
 80042ea:	f003 fa0b 	bl	8007704 <system_set_exec_alarm>
 80042ee:	e8bd 4008 	ldmia.w	sp!, {r3, lr}
 80042f2:	f002 b9b9 	b.w	8006668 <st_go_idle>
 80042f6:	2003      	movs	r0, #3
 80042f8:	e7f7      	b.n	80042ea <mc_reset+0x36>
 80042fa:	bd08      	pop	{r3, pc}
 80042fc:	200038e9 	.word	0x200038e9
 8004300:	200038d4 	.word	0x200038d4
 8004304:	2000391c 	.word	0x2000391c

08004308 <read_float>:
 8004308:	e92d 4ff7 	stmdb	sp!, {r0, r1, r2, r4, r5, r6, r7, r8, r9, sl, fp, lr}
 800430c:	780b      	ldrb	r3, [r1, #0]
 800430e:	4693      	mov	fp, r2
 8004310:	18c2      	adds	r2, r0, r3
 8004312:	5cc3      	ldrb	r3, [r0, r3]
 8004314:	4606      	mov	r6, r0
 8004316:	2b2d      	cmp	r3, #45	; 0x2d
 8004318:	468a      	mov	sl, r1
 800431a:	d118      	bne.n	800434e <read_float+0x46>
 800431c:	2701      	movs	r7, #1
 800431e:	7853      	ldrb	r3, [r2, #1]
 8004320:	1c95      	adds	r5, r2, #2
 8004322:	2100      	movs	r1, #0
 8004324:	460a      	mov	r2, r1
 8004326:	460c      	mov	r4, r1
 8004328:	4608      	mov	r0, r1
 800432a:	3b30      	subs	r3, #48	; 0x30
 800432c:	b2db      	uxtb	r3, r3
 800432e:	2b09      	cmp	r3, #9
 8004330:	d819      	bhi.n	8004366 <read_float+0x5e>
 8004332:	3201      	adds	r2, #1
 8004334:	b2d2      	uxtb	r2, r2
 8004336:	2a08      	cmp	r2, #8
 8004338:	d810      	bhi.n	800435c <read_float+0x54>
 800433a:	b109      	cbz	r1, 8004340 <read_float+0x38>
 800433c:	3c01      	subs	r4, #1
 800433e:	b264      	sxtb	r4, r4
 8004340:	eb00 0080 	add.w	r0, r0, r0, lsl #2
 8004344:	eb03 0040 	add.w	r0, r3, r0, lsl #1
 8004348:	f815 3b01 	ldrb.w	r3, [r5], #1
 800434c:	e7ed      	b.n	800432a <read_float+0x22>
 800434e:	2b2b      	cmp	r3, #43	; 0x2b
 8004350:	bf12      	itee	ne
 8004352:	1c55      	addne	r5, r2, #1
 8004354:	1c95      	addeq	r5, r2, #2
 8004356:	7853      	ldrbeq	r3, [r2, #1]
 8004358:	2700      	movs	r7, #0
 800435a:	e7e2      	b.n	8004322 <read_float+0x1a>
 800435c:	2900      	cmp	r1, #0
 800435e:	d1f3      	bne.n	8004348 <read_float+0x40>
 8004360:	3401      	adds	r4, #1
 8004362:	b264      	sxtb	r4, r4
 8004364:	e7f0      	b.n	8004348 <read_float+0x40>
 8004366:	2bfe      	cmp	r3, #254	; 0xfe
 8004368:	d102      	bne.n	8004370 <read_float+0x68>
 800436a:	b909      	cbnz	r1, 8004370 <read_float+0x68>
 800436c:	2101      	movs	r1, #1
 800436e:	e7eb      	b.n	8004348 <read_float+0x40>
 8004370:	b31a      	cbz	r2, 80043ba <read_float+0xb2>
 8004372:	f7fc fcaf 	bl	8000cd4 <__aeabi_ui2f>
 8004376:	2100      	movs	r1, #0
 8004378:	9001      	str	r0, [sp, #4]
 800437a:	f7fc fe97 	bl	80010ac <__aeabi_fcmpeq>
 800437e:	9b01      	ldr	r3, [sp, #4]
 8004380:	b988      	cbnz	r0, 80043a6 <read_float+0x9e>
 8004382:	f20f 097c 	addw	r9, pc, #124	; 0x7c
 8004386:	e9d9 8900 	ldrd	r8, r9, [r9]
 800438a:	1c62      	adds	r2, r4, #1
 800438c:	db19      	blt.n	80043c2 <read_float+0xba>
 800438e:	d125      	bne.n	80043dc <read_float+0xd4>
 8004390:	4618      	mov	r0, r3
 8004392:	f7fc f84d 	bl	8000430 <__aeabi_f2d>
 8004396:	a31c      	add	r3, pc, #112	; (adr r3, 8004408 <read_float+0x100>)
 8004398:	e9d3 2300 	ldrd	r2, r3, [r3]
 800439c:	f7fc f89c 	bl	80004d8 <__aeabi_dmul>
 80043a0:	f7fc fb92 	bl	8000ac8 <__aeabi_d2f>
 80043a4:	4603      	mov	r3, r0
 80043a6:	b10f      	cbz	r7, 80043ac <read_float+0xa4>
 80043a8:	f103 4300 	add.w	r3, r3, #2147483648	; 0x80000000
 80043ac:	2201      	movs	r2, #1
 80043ae:	1bad      	subs	r5, r5, r6
 80043b0:	3d01      	subs	r5, #1
 80043b2:	f8cb 3000 	str.w	r3, [fp]
 80043b6:	f88a 5000 	strb.w	r5, [sl]
 80043ba:	4610      	mov	r0, r2
 80043bc:	b003      	add	sp, #12
 80043be:	e8bd 8ff0 	ldmia.w	sp!, {r4, r5, r6, r7, r8, r9, sl, fp, pc}
 80043c2:	4618      	mov	r0, r3
 80043c4:	f7fc f834 	bl	8000430 <__aeabi_f2d>
 80043c8:	464b      	mov	r3, r9
 80043ca:	4642      	mov	r2, r8
 80043cc:	f7fc f884 	bl	80004d8 <__aeabi_dmul>
 80043d0:	f7fc fb7a 	bl	8000ac8 <__aeabi_d2f>
 80043d4:	3402      	adds	r4, #2
 80043d6:	4603      	mov	r3, r0
 80043d8:	b264      	sxtb	r4, r4
 80043da:	e7d6      	b.n	800438a <read_float+0x82>
 80043dc:	2c00      	cmp	r4, #0
 80043de:	d0e2      	beq.n	80043a6 <read_float+0x9e>
 80043e0:	f8df 802c 	ldr.w	r8, [pc, #44]	; 8004410 <read_float+0x108>
 80043e4:	4618      	mov	r0, r3
 80043e6:	4641      	mov	r1, r8
 80043e8:	f7fc fccc 	bl	8000d84 <__aeabi_fmul>
 80043ec:	3c01      	subs	r4, #1
 80043ee:	b2e2      	uxtb	r2, r4
 80043f0:	4603      	mov	r3, r0
 80043f2:	b254      	sxtb	r4, r2
 80043f4:	2a00      	cmp	r2, #0
 80043f6:	d1f5      	bne.n	80043e4 <read_float+0xdc>
 80043f8:	e7d5      	b.n	80043a6 <read_float+0x9e>
 80043fa:	bf00      	nop
 80043fc:	f3af 8000 	nop.w
 8004400:	47ae147b 	.word	0x47ae147b
 8004404:	3f847ae1 	.word	0x3f847ae1
 8004408:	9999999a 	.word	0x9999999a
 800440c:	3fb99999 	.word	0x3fb99999
 8004410:	41200000 	.word	0x41200000

08004414 <_delay_ms>:
 8004414:	f44f 727a 	mov.w	r2, #1000	; 0x3e8
 8004418:	4b05      	ldr	r3, [pc, #20]	; (8004430 <_delay_ms+0x1c>)
 800441a:	681b      	ldr	r3, [r3, #0]
 800441c:	fbb3 f3f2 	udiv	r3, r3, r2
 8004420:	2200      	movs	r2, #0
 8004422:	429a      	cmp	r2, r3
 8004424:	d100      	bne.n	8004428 <_delay_ms+0x14>
 8004426:	4770      	bx	lr
 8004428:	bf00      	nop
 800442a:	3201      	adds	r2, #1
 800442c:	e7f9      	b.n	8004422 <_delay_ms+0xe>
 800442e:	bf00      	nop
 8004430:	20000008 	.word	0x20000008

08004434 <delay_sec>:
 8004434:	b570      	push	{r4, r5, r6, lr}
 8004436:	460e      	mov	r6, r1
 8004438:	490e      	ldr	r1, [pc, #56]	; (8004474 <delay_sec+0x40>)
 800443a:	f7fc fca3 	bl	8000d84 <__aeabi_fmul>
 800443e:	f7fb fff7 	bl	8000430 <__aeabi_f2d>
 8004442:	f003 fec5 	bl	80081d0 <ceil>
 8004446:	f7fc fb1f 	bl	8000a88 <__aeabi_d2uiz>
 800444a:	4d0b      	ldr	r5, [pc, #44]	; (8004478 <delay_sec+0x44>)
 800444c:	b284      	uxth	r4, r0
 800444e:	b17c      	cbz	r4, 8004470 <delay_sec+0x3c>
 8004450:	786b      	ldrb	r3, [r5, #1]
 8004452:	b96b      	cbnz	r3, 8004470 <delay_sec+0x3c>
 8004454:	b93e      	cbnz	r6, 8004466 <delay_sec+0x32>
 8004456:	f000 fedd 	bl	8005214 <protocol_execute_realtime>
 800445a:	2032      	movs	r0, #50	; 0x32
 800445c:	3c01      	subs	r4, #1
 800445e:	f7fc fefb 	bl	8001258 <HAL_Delay>
 8004462:	b2a4      	uxth	r4, r4
 8004464:	e7f3      	b.n	800444e <delay_sec+0x1a>
 8004466:	f000 fd21 	bl	8004eac <protocol_exec_rt_system>
 800446a:	78ab      	ldrb	r3, [r5, #2]
 800446c:	079b      	lsls	r3, r3, #30
 800446e:	d5f4      	bpl.n	800445a <delay_sec+0x26>
 8004470:	bd70      	pop	{r4, r5, r6, pc}
 8004472:	bf00      	nop
 8004474:	41a00000 	.word	0x41a00000
 8004478:	200038d4 	.word	0x200038d4

0800447c <delay_ms>:
 800447c:	4601      	mov	r1, r0
 800447e:	b508      	push	{r3, lr}
 8004480:	b901      	cbnz	r1, 8004484 <delay_ms+0x8>
 8004482:	bd08      	pop	{r3, pc}
 8004484:	2001      	movs	r0, #1
 8004486:	f7ff ffc5 	bl	8004414 <_delay_ms>
 800448a:	3901      	subs	r1, #1
 800448c:	b289      	uxth	r1, r1
 800448e:	e7f7      	b.n	8004480 <delay_ms+0x4>

08004490 <hypot_f>:
 8004490:	b538      	push	{r3, r4, r5, lr}
 8004492:	460d      	mov	r5, r1
 8004494:	4601      	mov	r1, r0
 8004496:	f7fc fc75 	bl	8000d84 <__aeabi_fmul>
 800449a:	4629      	mov	r1, r5
 800449c:	4604      	mov	r4, r0
 800449e:	4628      	mov	r0, r5
 80044a0:	f7fc fc70 	bl	8000d84 <__aeabi_fmul>
 80044a4:	4601      	mov	r1, r0
 80044a6:	4620      	mov	r0, r4
 80044a8:	f7fc fb64 	bl	8000b74 <__addsf3>
 80044ac:	e8bd 4038 	ldmia.w	sp!, {r3, r4, r5, lr}
 80044b0:	f004 b950 	b.w	8008754 <sqrtf>

080044b4 <convert_delta_vector_to_unit_vector>:
 80044b4:	e92d 43f8 	stmdb	sp!, {r3, r4, r5, r6, r7, r8, r9, lr}
 80044b8:	2600      	movs	r6, #0
 80044ba:	1f04      	subs	r4, r0, #4
 80044bc:	4625      	mov	r5, r4
 80044be:	46b1      	mov	r9, r6
 80044c0:	f100 0714 	add.w	r7, r0, #20
 80044c4:	f855 8f04 	ldr.w	r8, [r5, #4]!
 80044c8:	4649      	mov	r1, r9
 80044ca:	4640      	mov	r0, r8
 80044cc:	f7fc fdee 	bl	80010ac <__aeabi_fcmpeq>
 80044d0:	b940      	cbnz	r0, 80044e4 <convert_delta_vector_to_unit_vector+0x30>
 80044d2:	4641      	mov	r1, r8
 80044d4:	4640      	mov	r0, r8
 80044d6:	f7fc fc55 	bl	8000d84 <__aeabi_fmul>
 80044da:	4601      	mov	r1, r0
 80044dc:	4630      	mov	r0, r6
 80044de:	f7fc fb49 	bl	8000b74 <__addsf3>
 80044e2:	4606      	mov	r6, r0
 80044e4:	42bd      	cmp	r5, r7
 80044e6:	d1ed      	bne.n	80044c4 <convert_delta_vector_to_unit_vector+0x10>
 80044e8:	4630      	mov	r0, r6
 80044ea:	f004 f933 	bl	8008754 <sqrtf>
 80044ee:	4601      	mov	r1, r0
 80044f0:	4606      	mov	r6, r0
 80044f2:	f04f 507e 	mov.w	r0, #1065353216	; 0x3f800000
 80044f6:	f7fc fcf9 	bl	8000eec <__aeabi_fdiv>
 80044fa:	4607      	mov	r7, r0
 80044fc:	6861      	ldr	r1, [r4, #4]
 80044fe:	4638      	mov	r0, r7
 8004500:	f7fc fc40 	bl	8000d84 <__aeabi_fmul>
 8004504:	f844 0f04 	str.w	r0, [r4, #4]!
 8004508:	42ac      	cmp	r4, r5
 800450a:	d1f7      	bne.n	80044fc <convert_delta_vector_to_unit_vector+0x48>
 800450c:	4630      	mov	r0, r6
 800450e:	e8bd 83f8 	ldmia.w	sp!, {r3, r4, r5, r6, r7, r8, r9, pc}
	...

08004514 <limit_value_by_axis_maximum>:
 8004514:	e92d 43f8 	stmdb	sp!, {r3, r4, r5, r6, r7, r8, r9, lr}
 8004518:	4607      	mov	r7, r0
 800451a:	4688      	mov	r8, r1
 800451c:	2400      	movs	r4, #0
 800451e:	f04f 0900 	mov.w	r9, #0
 8004522:	4d0d      	ldr	r5, [pc, #52]	; (8004558 <limit_value_by_axis_maximum+0x44>)
 8004524:	f858 6024 	ldr.w	r6, [r8, r4, lsl #2]
 8004528:	4649      	mov	r1, r9
 800452a:	4630      	mov	r0, r6
 800452c:	f7fc fdbe 	bl	80010ac <__aeabi_fcmpeq>
 8004530:	b960      	cbnz	r0, 800454c <limit_value_by_axis_maximum+0x38>
 8004532:	4631      	mov	r1, r6
 8004534:	f857 0024 	ldr.w	r0, [r7, r4, lsl #2]
 8004538:	f7fc fcd8 	bl	8000eec <__aeabi_fdiv>
 800453c:	f020 4600 	bic.w	r6, r0, #2147483648	; 0x80000000
 8004540:	4629      	mov	r1, r5
 8004542:	4630      	mov	r0, r6
 8004544:	f7fc fdda 	bl	80010fc <__aeabi_fcmpgt>
 8004548:	b900      	cbnz	r0, 800454c <limit_value_by_axis_maximum+0x38>
 800454a:	4635      	mov	r5, r6
 800454c:	3401      	adds	r4, #1
 800454e:	2c06      	cmp	r4, #6
 8004550:	d1e8      	bne.n	8004524 <limit_value_by_axis_maximum+0x10>
 8004552:	4628      	mov	r0, r5
 8004554:	e8bd 83f8 	ldmia.w	sp!, {r3, r4, r5, r6, r7, r8, r9, pc}
 8004558:	7f7fffff 	.word	0x7f7fffff

0800455c <planner_recalculate>:
 800455c:	e92d 4ff0 	stmdb	sp!, {r4, r5, r6, r7, r8, r9, sl, fp, lr}
 8004560:	4f5c      	ldr	r7, [pc, #368]	; (80046d4 <planner_recalculate+0x178>)
 8004562:	4e5d      	ldr	r6, [pc, #372]	; (80046d8 <planner_recalculate+0x17c>)
 8004564:	783c      	ldrb	r4, [r7, #0]
 8004566:	f896 9000 	ldrb.w	r9, [r6]
 800456a:	2c00      	cmp	r4, #0
 800456c:	bf08      	it	eq
 800456e:	24c8      	moveq	r4, #200	; 0xc8
 8004570:	3c01      	subs	r4, #1
 8004572:	b2e4      	uxtb	r4, r4
 8004574:	45a1      	cmp	r9, r4
 8004576:	b085      	sub	sp, #20
 8004578:	d03c      	beq.n	80045f4 <planner_recalculate+0x98>
 800457a:	4d58      	ldr	r5, [pc, #352]	; (80046dc <planner_recalculate+0x180>)
 800457c:	ea4f 1884 	mov.w	r8, r4, lsl #6
 8004580:	eb05 0b08 	add.w	fp, r5, r8
 8004584:	f8db 1028 	ldr.w	r1, [fp, #40]	; 0x28
 8004588:	f8db a024 	ldr.w	sl, [fp, #36]	; 0x24
 800458c:	4608      	mov	r0, r1
 800458e:	f7fc faf1 	bl	8000b74 <__addsf3>
 8004592:	f8db 102c 	ldr.w	r1, [fp, #44]	; 0x2c
 8004596:	f7fc fbf5 	bl	8000d84 <__aeabi_fmul>
 800459a:	4683      	mov	fp, r0
 800459c:	4601      	mov	r1, r0
 800459e:	4650      	mov	r0, sl
 80045a0:	f7fc fd8e 	bl	80010c0 <__aeabi_fcmplt>
 80045a4:	b900      	cbnz	r0, 80045a8 <planner_recalculate+0x4c>
 80045a6:	46da      	mov	sl, fp
 80045a8:	2c00      	cmp	r4, #0
 80045aa:	bf08      	it	eq
 80045ac:	24c8      	moveq	r4, #200	; 0xc8
 80045ae:	3c01      	subs	r4, #1
 80045b0:	b2e4      	uxtb	r4, r4
 80045b2:	44a8      	add	r8, r5
 80045b4:	45a1      	cmp	r9, r4
 80045b6:	f8c8 a020 	str.w	sl, [r8, #32]
 80045ba:	d14c      	bne.n	8004656 <planner_recalculate+0xfa>
 80045bc:	4b48      	ldr	r3, [pc, #288]	; (80046e0 <planner_recalculate+0x184>)
 80045be:	781b      	ldrb	r3, [r3, #0]
 80045c0:	454b      	cmp	r3, r9
 80045c2:	d101      	bne.n	80045c8 <planner_recalculate+0x6c>
 80045c4:	f002 fa8e 	bl	8006ae4 <st_update_plan_block_parameters>
 80045c8:	f896 a000 	ldrb.w	sl, [r6]
 80045cc:	f04f 0800 	mov.w	r8, #0
 80045d0:	f10a 0401 	add.w	r4, sl, #1
 80045d4:	b2e4      	uxtb	r4, r4
 80045d6:	2cc8      	cmp	r4, #200	; 0xc8
 80045d8:	bf08      	it	eq
 80045da:	2400      	moveq	r4, #0
 80045dc:	783b      	ldrb	r3, [r7, #0]
 80045de:	eb05 1b8a 	add.w	fp, r5, sl, lsl #6
 80045e2:	9303      	str	r3, [sp, #12]
 80045e4:	9b03      	ldr	r3, [sp, #12]
 80045e6:	429c      	cmp	r4, r3
 80045e8:	d13c      	bne.n	8004664 <planner_recalculate+0x108>
 80045ea:	f1b8 0f00 	cmp.w	r8, #0
 80045ee:	d001      	beq.n	80045f4 <planner_recalculate+0x98>
 80045f0:	f886 a000 	strb.w	sl, [r6]
 80045f4:	b005      	add	sp, #20
 80045f6:	e8bd 8ff0 	ldmia.w	sp!, {r4, r5, r6, r7, r8, r9, sl, fp, pc}
 80045fa:	2c00      	cmp	r4, #0
 80045fc:	46a2      	mov	sl, r4
 80045fe:	eb05 1b84 	add.w	fp, r5, r4, lsl #6
 8004602:	bf08      	it	eq
 8004604:	24c8      	moveq	r4, #200	; 0xc8
 8004606:	4b36      	ldr	r3, [pc, #216]	; (80046e0 <planner_recalculate+0x184>)
 8004608:	3c01      	subs	r4, #1
 800460a:	781b      	ldrb	r3, [r3, #0]
 800460c:	b2e4      	uxtb	r4, r4
 800460e:	42a3      	cmp	r3, r4
 8004610:	d101      	bne.n	8004616 <planner_recalculate+0xba>
 8004612:	f002 fa67 	bl	8006ae4 <st_update_plan_block_parameters>
 8004616:	eb05 1a8a 	add.w	sl, r5, sl, lsl #6
 800461a:	f8da 9024 	ldr.w	r9, [sl, #36]	; 0x24
 800461e:	f8da 0020 	ldr.w	r0, [sl, #32]
 8004622:	4649      	mov	r1, r9
 8004624:	f7fc fd42 	bl	80010ac <__aeabi_fcmpeq>
 8004628:	b9a0      	cbnz	r0, 8004654 <planner_recalculate+0xf8>
 800462a:	f8da 1028 	ldr.w	r1, [sl, #40]	; 0x28
 800462e:	4608      	mov	r0, r1
 8004630:	f7fc faa0 	bl	8000b74 <__addsf3>
 8004634:	f8da 102c 	ldr.w	r1, [sl, #44]	; 0x2c
 8004638:	f7fc fba4 	bl	8000d84 <__aeabi_fmul>
 800463c:	f8d8 1020 	ldr.w	r1, [r8, #32]
 8004640:	f7fc fa98 	bl	8000b74 <__addsf3>
 8004644:	4680      	mov	r8, r0
 8004646:	4601      	mov	r1, r0
 8004648:	4648      	mov	r0, r9
 800464a:	f7fc fd57 	bl	80010fc <__aeabi_fcmpgt>
 800464e:	b130      	cbz	r0, 800465e <planner_recalculate+0x102>
 8004650:	f8ca 8020 	str.w	r8, [sl, #32]
 8004654:	46d8      	mov	r8, fp
 8004656:	7833      	ldrb	r3, [r6, #0]
 8004658:	42a3      	cmp	r3, r4
 800465a:	d1ce      	bne.n	80045fa <planner_recalculate+0x9e>
 800465c:	e7b4      	b.n	80045c8 <planner_recalculate+0x6c>
 800465e:	f8ca 9020 	str.w	r9, [sl, #32]
 8004662:	e7f7      	b.n	8004654 <planner_recalculate+0xf8>
 8004664:	f8db 3020 	ldr.w	r3, [fp, #32]
 8004668:	01a7      	lsls	r7, r4, #6
 800466a:	eb05 0907 	add.w	r9, r5, r7
 800466e:	9301      	str	r3, [sp, #4]
 8004670:	f8d9 3020 	ldr.w	r3, [r9, #32]
 8004674:	9801      	ldr	r0, [sp, #4]
 8004676:	4619      	mov	r1, r3
 8004678:	9302      	str	r3, [sp, #8]
 800467a:	f7fc fd21 	bl	80010c0 <__aeabi_fcmplt>
 800467e:	b1b0      	cbz	r0, 80046ae <planner_recalculate+0x152>
 8004680:	f8db 1028 	ldr.w	r1, [fp, #40]	; 0x28
 8004684:	4608      	mov	r0, r1
 8004686:	f7fc fa75 	bl	8000b74 <__addsf3>
 800468a:	f8db 102c 	ldr.w	r1, [fp, #44]	; 0x2c
 800468e:	f7fc fb79 	bl	8000d84 <__aeabi_fmul>
 8004692:	9901      	ldr	r1, [sp, #4]
 8004694:	f7fc fa6e 	bl	8000b74 <__addsf3>
 8004698:	4683      	mov	fp, r0
 800469a:	4601      	mov	r1, r0
 800469c:	9802      	ldr	r0, [sp, #8]
 800469e:	f7fc fd2d 	bl	80010fc <__aeabi_fcmpgt>
 80046a2:	b120      	cbz	r0, 80046ae <planner_recalculate+0x152>
 80046a4:	46a2      	mov	sl, r4
 80046a6:	f04f 0801 	mov.w	r8, #1
 80046aa:	f8c9 b020 	str.w	fp, [r9, #32]
 80046ae:	442f      	add	r7, r5
 80046b0:	6a79      	ldr	r1, [r7, #36]	; 0x24
 80046b2:	6a38      	ldr	r0, [r7, #32]
 80046b4:	f7fc fcfa 	bl	80010ac <__aeabi_fcmpeq>
 80046b8:	2800      	cmp	r0, #0
 80046ba:	bf18      	it	ne
 80046bc:	46a2      	movne	sl, r4
 80046be:	f104 0401 	add.w	r4, r4, #1
 80046c2:	b2e4      	uxtb	r4, r4
 80046c4:	bf18      	it	ne
 80046c6:	f04f 0801 	movne.w	r8, #1
 80046ca:	2cc8      	cmp	r4, #200	; 0xc8
 80046cc:	bf08      	it	eq
 80046ce:	2400      	moveq	r4, #0
 80046d0:	46cb      	mov	fp, r9
 80046d2:	e787      	b.n	80045e4 <planner_recalculate+0x88>
 80046d4:	20003298 	.word	0x20003298
 80046d8:	20003299 	.word	0x20003299
 80046dc:	20000098 	.word	0x20000098
 80046e0:	2000329a 	.word	0x2000329a

080046e4 <plan_reset_buffer>:
 80046e4:	2300      	movs	r3, #0
 80046e6:	2101      	movs	r1, #1
 80046e8:	4a04      	ldr	r2, [pc, #16]	; (80046fc <plan_reset_buffer+0x18>)
 80046ea:	7013      	strb	r3, [r2, #0]
 80046ec:	4a04      	ldr	r2, [pc, #16]	; (8004700 <plan_reset_buffer+0x1c>)
 80046ee:	7013      	strb	r3, [r2, #0]
 80046f0:	4a04      	ldr	r2, [pc, #16]	; (8004704 <plan_reset_buffer+0x20>)
 80046f2:	7011      	strb	r1, [r2, #0]
 80046f4:	4a04      	ldr	r2, [pc, #16]	; (8004708 <plan_reset_buffer+0x24>)
 80046f6:	7013      	strb	r3, [r2, #0]
 80046f8:	4770      	bx	lr
 80046fa:	bf00      	nop
 80046fc:	2000329a 	.word	0x2000329a
 8004700:	20003298 	.word	0x20003298
 8004704:	2000329b 	.word	0x2000329b
 8004708:	20003299 	.word	0x20003299

0800470c <plan_reset>:
 800470c:	b508      	push	{r3, lr}
 800470e:	2234      	movs	r2, #52	; 0x34
 8004710:	2100      	movs	r1, #0
 8004712:	4803      	ldr	r0, [pc, #12]	; (8004720 <plan_reset+0x14>)
 8004714:	f003 f925 	bl	8007962 <memset>
 8004718:	e8bd 4008 	ldmia.w	sp!, {r3, lr}
 800471c:	f7ff bfe2 	b.w	80046e4 <plan_reset_buffer>
 8004720:	2000329c 	.word	0x2000329c

08004724 <plan_discard_current_block>:
 8004724:	b510      	push	{r4, lr}
 8004726:	4b09      	ldr	r3, [pc, #36]	; (800474c <plan_discard_current_block+0x28>)
 8004728:	4a09      	ldr	r2, [pc, #36]	; (8004750 <plan_discard_current_block+0x2c>)
 800472a:	7819      	ldrb	r1, [r3, #0]
 800472c:	7812      	ldrb	r2, [r2, #0]
 800472e:	428a      	cmp	r2, r1
 8004730:	461a      	mov	r2, r3
 8004732:	d00a      	beq.n	800474a <plan_discard_current_block+0x26>
 8004734:	1c4b      	adds	r3, r1, #1
 8004736:	b2db      	uxtb	r3, r3
 8004738:	2bc8      	cmp	r3, #200	; 0xc8
 800473a:	bf08      	it	eq
 800473c:	2300      	moveq	r3, #0
 800473e:	4805      	ldr	r0, [pc, #20]	; (8004754 <plan_discard_current_block+0x30>)
 8004740:	7013      	strb	r3, [r2, #0]
 8004742:	7804      	ldrb	r4, [r0, #0]
 8004744:	428c      	cmp	r4, r1
 8004746:	bf08      	it	eq
 8004748:	7003      	strbeq	r3, [r0, #0]
 800474a:	bd10      	pop	{r4, pc}
 800474c:	2000329a 	.word	0x2000329a
 8004750:	20003298 	.word	0x20003298
 8004754:	20003299 	.word	0x20003299

08004758 <plan_get_system_motion_block>:
 8004758:	4b02      	ldr	r3, [pc, #8]	; (8004764 <plan_get_system_motion_block+0xc>)
 800475a:	7818      	ldrb	r0, [r3, #0]
 800475c:	4b02      	ldr	r3, [pc, #8]	; (8004768 <plan_get_system_motion_block+0x10>)
 800475e:	eb03 1080 	add.w	r0, r3, r0, lsl #6
 8004762:	4770      	bx	lr
 8004764:	20003298 	.word	0x20003298
 8004768:	20000098 	.word	0x20000098

0800476c <plan_get_current_block>:
 800476c:	4b05      	ldr	r3, [pc, #20]	; (8004784 <plan_get_current_block+0x18>)
 800476e:	4a06      	ldr	r2, [pc, #24]	; (8004788 <plan_get_current_block+0x1c>)
 8004770:	781b      	ldrb	r3, [r3, #0]
 8004772:	7812      	ldrb	r2, [r2, #0]
 8004774:	429a      	cmp	r2, r3
 8004776:	bf1a      	itte	ne
 8004778:	4804      	ldrne	r0, [pc, #16]	; (800478c <plan_get_current_block+0x20>)
 800477a:	eb00 1083 	addne.w	r0, r0, r3, lsl #6
 800477e:	2000      	moveq	r0, #0
 8004780:	4770      	bx	lr
 8004782:	bf00      	nop
 8004784:	2000329a 	.word	0x2000329a
 8004788:	20003298 	.word	0x20003298
 800478c:	20000098 	.word	0x20000098

08004790 <plan_get_exec_block_exit_speed_sqr>:
 8004790:	4b08      	ldr	r3, [pc, #32]	; (80047b4 <plan_get_exec_block_exit_speed_sqr+0x24>)
 8004792:	4a09      	ldr	r2, [pc, #36]	; (80047b8 <plan_get_exec_block_exit_speed_sqr+0x28>)
 8004794:	781b      	ldrb	r3, [r3, #0]
 8004796:	7812      	ldrb	r2, [r2, #0]
 8004798:	3301      	adds	r3, #1
 800479a:	b2db      	uxtb	r3, r3
 800479c:	2bc8      	cmp	r3, #200	; 0xc8
 800479e:	bf08      	it	eq
 80047a0:	2300      	moveq	r3, #0
 80047a2:	429a      	cmp	r2, r3
 80047a4:	bf1d      	ittte	ne
 80047a6:	4a05      	ldrne	r2, [pc, #20]	; (80047bc <plan_get_exec_block_exit_speed_sqr+0x2c>)
 80047a8:	eb02 1383 	addne.w	r3, r2, r3, lsl #6
 80047ac:	6a18      	ldrne	r0, [r3, #32]
 80047ae:	2000      	moveq	r0, #0
 80047b0:	4770      	bx	lr
 80047b2:	bf00      	nop
 80047b4:	2000329a 	.word	0x2000329a
 80047b8:	20003298 	.word	0x20003298
 80047bc:	20000098 	.word	0x20000098

080047c0 <plan_check_full_buffer>:
 80047c0:	4b03      	ldr	r3, [pc, #12]	; (80047d0 <plan_check_full_buffer+0x10>)
 80047c2:	7818      	ldrb	r0, [r3, #0]
 80047c4:	4b03      	ldr	r3, [pc, #12]	; (80047d4 <plan_check_full_buffer+0x14>)
 80047c6:	781b      	ldrb	r3, [r3, #0]
 80047c8:	1ac3      	subs	r3, r0, r3
 80047ca:	4258      	negs	r0, r3
 80047cc:	4158      	adcs	r0, r3
 80047ce:	4770      	bx	lr
 80047d0:	2000329a 	.word	0x2000329a
 80047d4:	2000329b 	.word	0x2000329b

080047d8 <plan_compute_profile_nominal_speed>:
 80047d8:	b5f8      	push	{r3, r4, r5, r6, r7, lr}
 80047da:	7f43      	ldrb	r3, [r0, #29]
 80047dc:	4605      	mov	r5, r0
 80047de:	07da      	lsls	r2, r3, #31
 80047e0:	6b84      	ldr	r4, [r0, #56]	; 0x38
 80047e2:	d520      	bpl.n	8004826 <plan_compute_profile_nominal_speed+0x4e>
 80047e4:	4b24      	ldr	r3, [pc, #144]	; (8004878 <plan_compute_profile_nominal_speed+0xa0>)
 80047e6:	7a58      	ldrb	r0, [r3, #9]
 80047e8:	f7fb fe10 	bl	800040c <__aeabi_i2d>
 80047ec:	a320      	add	r3, pc, #128	; (adr r3, 8004870 <plan_compute_profile_nominal_speed+0x98>)
 80047ee:	e9d3 2300 	ldrd	r2, r3, [r3]
 80047f2:	f7fb fe71 	bl	80004d8 <__aeabi_dmul>
 80047f6:	4606      	mov	r6, r0
 80047f8:	4620      	mov	r0, r4
 80047fa:	460f      	mov	r7, r1
 80047fc:	f7fb fe18 	bl	8000430 <__aeabi_f2d>
 8004800:	4602      	mov	r2, r0
 8004802:	460b      	mov	r3, r1
 8004804:	4630      	mov	r0, r6
 8004806:	4639      	mov	r1, r7
 8004808:	f7fb fe66 	bl	80004d8 <__aeabi_dmul>
 800480c:	f7fc f95c 	bl	8000ac8 <__aeabi_d2f>
 8004810:	4604      	mov	r4, r0
 8004812:	f04f 517e 	mov.w	r1, #1065353216	; 0x3f800000
 8004816:	4620      	mov	r0, r4
 8004818:	f7fc fc70 	bl	80010fc <__aeabi_fcmpgt>
 800481c:	b908      	cbnz	r0, 8004822 <plan_compute_profile_nominal_speed+0x4a>
 800481e:	f04f 547e 	mov.w	r4, #1065353216	; 0x3f800000
 8004822:	4620      	mov	r0, r4
 8004824:	bdf8      	pop	{r3, r4, r5, r6, r7, pc}
 8004826:	075b      	lsls	r3, r3, #29
 8004828:	d416      	bmi.n	8004858 <plan_compute_profile_nominal_speed+0x80>
 800482a:	4b13      	ldr	r3, [pc, #76]	; (8004878 <plan_compute_profile_nominal_speed+0xa0>)
 800482c:	7a18      	ldrb	r0, [r3, #8]
 800482e:	f7fb fded 	bl	800040c <__aeabi_i2d>
 8004832:	a30f      	add	r3, pc, #60	; (adr r3, 8004870 <plan_compute_profile_nominal_speed+0x98>)
 8004834:	e9d3 2300 	ldrd	r2, r3, [r3]
 8004838:	f7fb fe4e 	bl	80004d8 <__aeabi_dmul>
 800483c:	4606      	mov	r6, r0
 800483e:	4620      	mov	r0, r4
 8004840:	460f      	mov	r7, r1
 8004842:	f7fb fdf5 	bl	8000430 <__aeabi_f2d>
 8004846:	4602      	mov	r2, r0
 8004848:	460b      	mov	r3, r1
 800484a:	4630      	mov	r0, r6
 800484c:	4639      	mov	r1, r7
 800484e:	f7fb fe43 	bl	80004d8 <__aeabi_dmul>
 8004852:	f7fc f939 	bl	8000ac8 <__aeabi_d2f>
 8004856:	4604      	mov	r4, r0
 8004858:	6b6d      	ldr	r5, [r5, #52]	; 0x34
 800485a:	4620      	mov	r0, r4
 800485c:	4629      	mov	r1, r5
 800485e:	f7fc fc4d 	bl	80010fc <__aeabi_fcmpgt>
 8004862:	2800      	cmp	r0, #0
 8004864:	d0d5      	beq.n	8004812 <plan_compute_profile_nominal_speed+0x3a>
 8004866:	462c      	mov	r4, r5
 8004868:	e7d3      	b.n	8004812 <plan_compute_profile_nominal_speed+0x3a>
 800486a:	bf00      	nop
 800486c:	f3af 8000 	nop.w
 8004870:	47ae147b 	.word	0x47ae147b
 8004874:	3f847ae1 	.word	0x3f847ae1
 8004878:	200038d4 	.word	0x200038d4

0800487c <plan_update_velocity_profile_parameters>:
 800487c:	e92d 47f0 	stmdb	sp!, {r4, r5, r6, r7, r8, r9, sl, lr}
 8004880:	4b18      	ldr	r3, [pc, #96]	; (80048e4 <plan_update_velocity_profile_parameters+0x68>)
 8004882:	4e19      	ldr	r6, [pc, #100]	; (80048e8 <plan_update_velocity_profile_parameters+0x6c>)
 8004884:	781c      	ldrb	r4, [r3, #0]
 8004886:	4b19      	ldr	r3, [pc, #100]	; (80048ec <plan_update_velocity_profile_parameters+0x70>)
 8004888:	f8df 8068 	ldr.w	r8, [pc, #104]	; 80048f4 <plan_update_velocity_profile_parameters+0x78>
 800488c:	f893 9000 	ldrb.w	r9, [r3]
 8004890:	454c      	cmp	r4, r9
 8004892:	d103      	bne.n	800489c <plan_update_velocity_profile_parameters+0x20>
 8004894:	4b16      	ldr	r3, [pc, #88]	; (80048f0 <plan_update_velocity_profile_parameters+0x74>)
 8004896:	631e      	str	r6, [r3, #48]	; 0x30
 8004898:	e8bd 87f0 	ldmia.w	sp!, {r4, r5, r6, r7, r8, r9, sl, pc}
 800489c:	01a5      	lsls	r5, r4, #6
 800489e:	eb08 0a05 	add.w	sl, r8, r5
 80048a2:	4650      	mov	r0, sl
 80048a4:	f7ff ff98 	bl	80047d8 <plan_compute_profile_nominal_speed>
 80048a8:	4607      	mov	r7, r0
 80048aa:	4601      	mov	r1, r0
 80048ac:	4630      	mov	r0, r6
 80048ae:	f7fc fc07 	bl	80010c0 <__aeabi_fcmplt>
 80048b2:	b1a0      	cbz	r0, 80048de <plan_update_velocity_profile_parameters+0x62>
 80048b4:	4631      	mov	r1, r6
 80048b6:	4630      	mov	r0, r6
 80048b8:	f7fc fa64 	bl	8000d84 <__aeabi_fmul>
 80048bc:	4445      	add	r5, r8
 80048be:	6b2e      	ldr	r6, [r5, #48]	; 0x30
 80048c0:	f8ca 0024 	str.w	r0, [sl, #36]	; 0x24
 80048c4:	4631      	mov	r1, r6
 80048c6:	6a68      	ldr	r0, [r5, #36]	; 0x24
 80048c8:	f7fc fc18 	bl	80010fc <__aeabi_fcmpgt>
 80048cc:	b100      	cbz	r0, 80048d0 <plan_update_velocity_profile_parameters+0x54>
 80048ce:	626e      	str	r6, [r5, #36]	; 0x24
 80048d0:	3401      	adds	r4, #1
 80048d2:	b2e4      	uxtb	r4, r4
 80048d4:	2cc8      	cmp	r4, #200	; 0xc8
 80048d6:	bf08      	it	eq
 80048d8:	2400      	moveq	r4, #0
 80048da:	463e      	mov	r6, r7
 80048dc:	e7d8      	b.n	8004890 <plan_update_velocity_profile_parameters+0x14>
 80048de:	4639      	mov	r1, r7
 80048e0:	4638      	mov	r0, r7
 80048e2:	e7e9      	b.n	80048b8 <plan_update_velocity_profile_parameters+0x3c>
 80048e4:	2000329a 	.word	0x2000329a
 80048e8:	7f7fffff 	.word	0x7f7fffff
 80048ec:	20003298 	.word	0x20003298
 80048f0:	2000329c 	.word	0x2000329c
 80048f4:	20000098 	.word	0x20000098

080048f8 <plan_buffer_line>:
 80048f8:	e92d 4ff0 	stmdb	sp!, {r4, r5, r6, r7, r8, r9, sl, fp, lr}
 80048fc:	4cb2      	ldr	r4, [pc, #712]	; (8004bc8 <plan_buffer_line+0x2d0>)
 80048fe:	468a      	mov	sl, r1
 8004900:	7826      	ldrb	r6, [r4, #0]
 8004902:	4db2      	ldr	r5, [pc, #712]	; (8004bcc <plan_buffer_line+0x2d4>)
 8004904:	01b6      	lsls	r6, r6, #6
 8004906:	b09d      	sub	sp, #116	; 0x74
 8004908:	19af      	adds	r7, r5, r6
 800490a:	9002      	str	r0, [sp, #8]
 800490c:	2240      	movs	r2, #64	; 0x40
 800490e:	2100      	movs	r1, #0
 8004910:	4638      	mov	r0, r7
 8004912:	f003 f826 	bl	8007962 <memset>
 8004916:	f04f 0800 	mov.w	r8, #0
 800491a:	f89a 3008 	ldrb.w	r3, [sl, #8]
 800491e:	f8da 2004 	ldr.w	r2, [sl, #4]
 8004922:	f013 0f02 	tst.w	r3, #2
 8004926:	bf14      	ite	ne
 8004928:	f8df e2d0 	ldrne.w	lr, [pc, #720]	; 8004bfc <plan_buffer_line+0x304>
 800492c:	f8df e2b0 	ldreq.w	lr, [pc, #688]	; 8004be0 <plan_buffer_line+0x2e8>
 8004930:	9401      	str	r4, [sp, #4]
 8004932:	777b      	strb	r3, [r7, #29]
 8004934:	63fa      	str	r2, [r7, #60]	; 0x3c
 8004936:	ac0a      	add	r4, sp, #40	; 0x28
 8004938:	e8be 000f 	ldmia.w	lr!, {r0, r1, r2, r3}
 800493c:	c40f      	stmia	r4!, {r0, r1, r2, r3}
 800493e:	e89e 0003 	ldmia.w	lr, {r0, r1}
 8004942:	e884 0003 	stmia.w	r4, {r0, r1}
 8004946:	f8df b2b0 	ldr.w	fp, [pc, #688]	; 8004bf8 <plan_buffer_line+0x300>
 800494a:	9b02      	ldr	r3, [sp, #8]
 800494c:	f85b 1028 	ldr.w	r1, [fp, r8, lsl #2]
 8004950:	f853 0028 	ldr.w	r0, [r3, r8, lsl #2]
 8004954:	f7fc fa16 	bl	8000d84 <__aeabi_fmul>
 8004958:	f7fb fd6a 	bl	8000430 <__aeabi_f2d>
 800495c:	f003 fd40 	bl	80083e0 <lround>
 8004960:	ab04      	add	r3, sp, #16
 8004962:	f843 0028 	str.w	r0, [r3, r8, lsl #2]
 8004966:	ab0a      	add	r3, sp, #40	; 0x28
 8004968:	f853 3028 	ldr.w	r3, [r3, r8, lsl #2]
 800496c:	1ac0      	subs	r0, r0, r3
 800496e:	ea80 74e0 	eor.w	r4, r0, r0, asr #31
 8004972:	eba4 74e0 	sub.w	r4, r4, r0, asr #31
 8004976:	19ab      	adds	r3, r5, r6
 8004978:	f847 4028 	str.w	r4, [r7, r8, lsl #2]
 800497c:	6999      	ldr	r1, [r3, #24]
 800497e:	9303      	str	r3, [sp, #12]
 8004980:	428c      	cmp	r4, r1
 8004982:	bf38      	it	cc
 8004984:	460c      	movcc	r4, r1
 8004986:	619c      	str	r4, [r3, #24]
 8004988:	f7fc f9a8 	bl	8000cdc <__aeabi_i2f>
 800498c:	f85b 1028 	ldr.w	r1, [fp, r8, lsl #2]
 8004990:	f7fc faac 	bl	8000eec <__aeabi_fdiv>
 8004994:	46a1      	mov	r9, r4
 8004996:	ac10      	add	r4, sp, #64	; 0x40
 8004998:	f844 0028 	str.w	r0, [r4, r8, lsl #2]
 800499c:	2100      	movs	r1, #0
 800499e:	f7fc fb8f 	bl	80010c0 <__aeabi_fcmplt>
 80049a2:	9b03      	ldr	r3, [sp, #12]
 80049a4:	b128      	cbz	r0, 80049b2 <plan_buffer_line+0xba>
 80049a6:	498a      	ldr	r1, [pc, #552]	; (8004bd0 <plan_buffer_line+0x2d8>)
 80049a8:	f811 0018 	ldrb.w	r0, [r1, r8, lsl #1]
 80049ac:	7f19      	ldrb	r1, [r3, #28]
 80049ae:	4301      	orrs	r1, r0
 80049b0:	7719      	strb	r1, [r3, #28]
 80049b2:	f108 0801 	add.w	r8, r8, #1
 80049b6:	f1b8 0f06 	cmp.w	r8, #6
 80049ba:	d1c6      	bne.n	800494a <plan_buffer_line+0x52>
 80049bc:	f1b9 0f00 	cmp.w	r9, #0
 80049c0:	f000 80f4 	beq.w	8004bac <plan_buffer_line+0x2b4>
 80049c4:	4620      	mov	r0, r4
 80049c6:	f7ff fd75 	bl	80044b4 <convert_delta_vector_to_unit_vector>
 80049ca:	eb05 0906 	add.w	r9, r5, r6
 80049ce:	f8c9 002c 	str.w	r0, [r9, #44]	; 0x2c
 80049d2:	4621      	mov	r1, r4
 80049d4:	487f      	ldr	r0, [pc, #508]	; (8004bd4 <plan_buffer_line+0x2dc>)
 80049d6:	f7ff fd9d 	bl	8004514 <limit_value_by_axis_maximum>
 80049da:	4621      	mov	r1, r4
 80049dc:	f8c9 0028 	str.w	r0, [r9, #40]	; 0x28
 80049e0:	487d      	ldr	r0, [pc, #500]	; (8004bd8 <plan_buffer_line+0x2e0>)
 80049e2:	f7ff fd97 	bl	8004514 <limit_value_by_axis_maximum>
 80049e6:	f899 801d 	ldrb.w	r8, [r9, #29]
 80049ea:	f8c9 0034 	str.w	r0, [r9, #52]	; 0x34
 80049ee:	f018 0f01 	tst.w	r8, #1
 80049f2:	d051      	beq.n	8004a98 <plan_buffer_line+0x1a0>
 80049f4:	f8c9 0038 	str.w	r0, [r9, #56]	; 0x38
 80049f8:	9b01      	ldr	r3, [sp, #4]
 80049fa:	f04f 0a00 	mov.w	sl, #0
 80049fe:	781a      	ldrb	r2, [r3, #0]
 8004a00:	4b76      	ldr	r3, [pc, #472]	; (8004bdc <plan_buffer_line+0x2e4>)
 8004a02:	781b      	ldrb	r3, [r3, #0]
 8004a04:	429a      	cmp	r2, r3
 8004a06:	d002      	beq.n	8004a0e <plan_buffer_line+0x116>
 8004a08:	f018 0802 	ands.w	r8, r8, #2
 8004a0c:	d050      	beq.n	8004ab0 <plan_buffer_line+0x1b8>
 8004a0e:	19ab      	adds	r3, r5, r6
 8004a10:	f8c3 a020 	str.w	sl, [r3, #32]
 8004a14:	f8c3 a030 	str.w	sl, [r3, #48]	; 0x30
 8004a18:	eb05 0906 	add.w	r9, r5, r6
 8004a1c:	f899 301d 	ldrb.w	r3, [r9, #29]
 8004a20:	079b      	lsls	r3, r3, #30
 8004a22:	d437      	bmi.n	8004a94 <plan_buffer_line+0x19c>
 8004a24:	4638      	mov	r0, r7
 8004a26:	f7ff fed7 	bl	80047d8 <plan_compute_profile_nominal_speed>
 8004a2a:	4f6d      	ldr	r7, [pc, #436]	; (8004be0 <plan_buffer_line+0x2e8>)
 8004a2c:	4680      	mov	r8, r0
 8004a2e:	f8d7 a030 	ldr.w	sl, [r7, #48]	; 0x30
 8004a32:	4651      	mov	r1, sl
 8004a34:	f7fc fb62 	bl	80010fc <__aeabi_fcmpgt>
 8004a38:	2800      	cmp	r0, #0
 8004a3a:	f000 80b4 	beq.w	8004ba6 <plan_buffer_line+0x2ae>
 8004a3e:	4651      	mov	r1, sl
 8004a40:	4650      	mov	r0, sl
 8004a42:	f7fc f99f 	bl	8000d84 <__aeabi_fmul>
 8004a46:	4435      	add	r5, r6
 8004a48:	6b2e      	ldr	r6, [r5, #48]	; 0x30
 8004a4a:	f8c9 0024 	str.w	r0, [r9, #36]	; 0x24
 8004a4e:	4631      	mov	r1, r6
 8004a50:	6a68      	ldr	r0, [r5, #36]	; 0x24
 8004a52:	f7fc fb53 	bl	80010fc <__aeabi_fcmpgt>
 8004a56:	b100      	cbz	r0, 8004a5a <plan_buffer_line+0x162>
 8004a58:	626e      	str	r6, [r5, #36]	; 0x24
 8004a5a:	4d62      	ldr	r5, [pc, #392]	; (8004be4 <plan_buffer_line+0x2ec>)
 8004a5c:	cc0f      	ldmia	r4!, {r0, r1, r2, r3}
 8004a5e:	f8c7 8030 	str.w	r8, [r7, #48]	; 0x30
 8004a62:	c50f      	stmia	r5!, {r0, r1, r2, r3}
 8004a64:	e894 0003 	ldmia.w	r4, {r0, r1}
 8004a68:	ac04      	add	r4, sp, #16
 8004a6a:	e885 0003 	stmia.w	r5, {r0, r1}
 8004a6e:	cc0f      	ldmia	r4!, {r0, r1, r2, r3}
 8004a70:	3d28      	subs	r5, #40	; 0x28
 8004a72:	c50f      	stmia	r5!, {r0, r1, r2, r3}
 8004a74:	e894 0003 	ldmia.w	r4, {r0, r1}
 8004a78:	4a5b      	ldr	r2, [pc, #364]	; (8004be8 <plan_buffer_line+0x2f0>)
 8004a7a:	e885 0003 	stmia.w	r5, {r0, r1}
 8004a7e:	7813      	ldrb	r3, [r2, #0]
 8004a80:	9901      	ldr	r1, [sp, #4]
 8004a82:	700b      	strb	r3, [r1, #0]
 8004a84:	3301      	adds	r3, #1
 8004a86:	b2db      	uxtb	r3, r3
 8004a88:	2bc8      	cmp	r3, #200	; 0xc8
 8004a8a:	bf08      	it	eq
 8004a8c:	2300      	moveq	r3, #0
 8004a8e:	7013      	strb	r3, [r2, #0]
 8004a90:	f7ff fd64 	bl	800455c <planner_recalculate>
 8004a94:	2001      	movs	r0, #1
 8004a96:	e08a      	b.n	8004bae <plan_buffer_line+0x2b6>
 8004a98:	f8da 1000 	ldr.w	r1, [sl]
 8004a9c:	f018 0f08 	tst.w	r8, #8
 8004aa0:	f8c9 1038 	str.w	r1, [r9, #56]	; 0x38
 8004aa4:	d0a8      	beq.n	80049f8 <plan_buffer_line+0x100>
 8004aa6:	f8d9 002c 	ldr.w	r0, [r9, #44]	; 0x2c
 8004aaa:	f7fc f96b 	bl	8000d84 <__aeabi_fmul>
 8004aae:	e7a1      	b.n	80049f4 <plan_buffer_line+0xfc>
 8004ab0:	46d1      	mov	r9, sl
 8004ab2:	f10d 0b58 	add.w	fp, sp, #88	; 0x58
 8004ab6:	4b4a      	ldr	r3, [pc, #296]	; (8004be0 <plan_buffer_line+0x2e8>)
 8004ab8:	4443      	add	r3, r8
 8004aba:	699a      	ldr	r2, [r3, #24]
 8004abc:	f854 3008 	ldr.w	r3, [r4, r8]
 8004ac0:	4610      	mov	r0, r2
 8004ac2:	4619      	mov	r1, r3
 8004ac4:	9303      	str	r3, [sp, #12]
 8004ac6:	9202      	str	r2, [sp, #8]
 8004ac8:	f7fc f95c 	bl	8000d84 <__aeabi_fmul>
 8004acc:	4601      	mov	r1, r0
 8004ace:	4648      	mov	r0, r9
 8004ad0:	f7fc f84e 	bl	8000b70 <__aeabi_fsub>
 8004ad4:	9a02      	ldr	r2, [sp, #8]
 8004ad6:	9b03      	ldr	r3, [sp, #12]
 8004ad8:	4681      	mov	r9, r0
 8004ada:	4611      	mov	r1, r2
 8004adc:	4618      	mov	r0, r3
 8004ade:	f7fc f847 	bl	8000b70 <__aeabi_fsub>
 8004ae2:	f84b 0008 	str.w	r0, [fp, r8]
 8004ae6:	f108 0804 	add.w	r8, r8, #4
 8004aea:	f1b8 0f18 	cmp.w	r8, #24
 8004aee:	d1e2      	bne.n	8004ab6 <plan_buffer_line+0x1be>
 8004af0:	4648      	mov	r0, r9
 8004af2:	f7fb fc9d 	bl	8000430 <__aeabi_f2d>
 8004af6:	a330      	add	r3, pc, #192	; (adr r3, 8004bb8 <plan_buffer_line+0x2c0>)
 8004af8:	e9d3 2300 	ldrd	r2, r3, [r3]
 8004afc:	4680      	mov	r8, r0
 8004afe:	4689      	mov	r9, r1
 8004b00:	f7fb ff7a 	bl	80009f8 <__aeabi_dcmpgt>
 8004b04:	b108      	cbz	r0, 8004b0a <plan_buffer_line+0x212>
 8004b06:	19ab      	adds	r3, r5, r6
 8004b08:	e784      	b.n	8004a14 <plan_buffer_line+0x11c>
 8004b0a:	a32d      	add	r3, pc, #180	; (adr r3, 8004bc0 <plan_buffer_line+0x2c8>)
 8004b0c:	e9d3 2300 	ldrd	r2, r3, [r3]
 8004b10:	4640      	mov	r0, r8
 8004b12:	4649      	mov	r1, r9
 8004b14:	f7fb ff52 	bl	80009bc <__aeabi_dcmplt>
 8004b18:	b118      	cbz	r0, 8004b22 <plan_buffer_line+0x22a>
 8004b1a:	4a34      	ldr	r2, [pc, #208]	; (8004bec <plan_buffer_line+0x2f4>)
 8004b1c:	19ab      	adds	r3, r5, r6
 8004b1e:	631a      	str	r2, [r3, #48]	; 0x30
 8004b20:	e77a      	b.n	8004a18 <plan_buffer_line+0x120>
 8004b22:	4658      	mov	r0, fp
 8004b24:	f7ff fcc6 	bl	80044b4 <convert_delta_vector_to_unit_vector>
 8004b28:	4659      	mov	r1, fp
 8004b2a:	482a      	ldr	r0, [pc, #168]	; (8004bd4 <plan_buffer_line+0x2dc>)
 8004b2c:	f7ff fcf2 	bl	8004514 <limit_value_by_axis_maximum>
 8004b30:	4642      	mov	r2, r8
 8004b32:	464b      	mov	r3, r9
 8004b34:	4683      	mov	fp, r0
 8004b36:	492e      	ldr	r1, [pc, #184]	; (8004bf0 <plan_buffer_line+0x2f8>)
 8004b38:	2000      	movs	r0, #0
 8004b3a:	f7fb fb19 	bl	8000170 <__aeabi_dsub>
 8004b3e:	2200      	movs	r2, #0
 8004b40:	4b2c      	ldr	r3, [pc, #176]	; (8004bf4 <plan_buffer_line+0x2fc>)
 8004b42:	f7fb fcc9 	bl	80004d8 <__aeabi_dmul>
 8004b46:	f7fb ffbf 	bl	8000ac8 <__aeabi_d2f>
 8004b4a:	f003 fe03 	bl	8008754 <sqrtf>
 8004b4e:	4682      	mov	sl, r0
 8004b50:	4b29      	ldr	r3, [pc, #164]	; (8004bf8 <plan_buffer_line+0x300>)
 8004b52:	4658      	mov	r0, fp
 8004b54:	6e99      	ldr	r1, [r3, #104]	; 0x68
 8004b56:	f7fc f915 	bl	8000d84 <__aeabi_fmul>
 8004b5a:	4651      	mov	r1, sl
 8004b5c:	f7fc f912 	bl	8000d84 <__aeabi_fmul>
 8004b60:	f7fb fc66 	bl	8000430 <__aeabi_f2d>
 8004b64:	4680      	mov	r8, r0
 8004b66:	4650      	mov	r0, sl
 8004b68:	4689      	mov	r9, r1
 8004b6a:	f7fb fc61 	bl	8000430 <__aeabi_f2d>
 8004b6e:	4602      	mov	r2, r0
 8004b70:	460b      	mov	r3, r1
 8004b72:	2000      	movs	r0, #0
 8004b74:	491e      	ldr	r1, [pc, #120]	; (8004bf0 <plan_buffer_line+0x2f8>)
 8004b76:	f7fb fafb 	bl	8000170 <__aeabi_dsub>
 8004b7a:	4602      	mov	r2, r0
 8004b7c:	460b      	mov	r3, r1
 8004b7e:	4640      	mov	r0, r8
 8004b80:	4649      	mov	r1, r9
 8004b82:	f7fb fdd3 	bl	800072c <__aeabi_ddiv>
 8004b86:	2200      	movs	r2, #0
 8004b88:	2300      	movs	r3, #0
 8004b8a:	4680      	mov	r8, r0
 8004b8c:	4689      	mov	r9, r1
 8004b8e:	f7fb ff15 	bl	80009bc <__aeabi_dcmplt>
 8004b92:	b930      	cbnz	r0, 8004ba2 <plan_buffer_line+0x2aa>
 8004b94:	4640      	mov	r0, r8
 8004b96:	4649      	mov	r1, r9
 8004b98:	f7fb ff96 	bl	8000ac8 <__aeabi_d2f>
 8004b9c:	19ab      	adds	r3, r5, r6
 8004b9e:	6318      	str	r0, [r3, #48]	; 0x30
 8004ba0:	e73a      	b.n	8004a18 <plan_buffer_line+0x120>
 8004ba2:	2000      	movs	r0, #0
 8004ba4:	e7fa      	b.n	8004b9c <plan_buffer_line+0x2a4>
 8004ba6:	4641      	mov	r1, r8
 8004ba8:	4640      	mov	r0, r8
 8004baa:	e74a      	b.n	8004a42 <plan_buffer_line+0x14a>
 8004bac:	4648      	mov	r0, r9
 8004bae:	b01d      	add	sp, #116	; 0x74
 8004bb0:	e8bd 8ff0 	ldmia.w	sp!, {r4, r5, r6, r7, r8, r9, sl, fp, pc}
 8004bb4:	f3af 8000 	nop.w
 8004bb8:	e7210be9 	.word	0xe7210be9
 8004bbc:	3feffffd 	.word	0x3feffffd
 8004bc0:	e7210be9 	.word	0xe7210be9
 8004bc4:	bfeffffd 	.word	0xbfeffffd
 8004bc8:	20003298 	.word	0x20003298
 8004bcc:	20000098 	.word	0x20000098
 8004bd0:	08009a42 	.word	0x08009a42
 8004bd4:	20004018 	.word	0x20004018
 8004bd8:	20003f88 	.word	0x20003f88
 8004bdc:	2000329a 	.word	0x2000329a
 8004be0:	2000329c 	.word	0x2000329c
 8004be4:	200032b4 	.word	0x200032b4
 8004be8:	2000329b 	.word	0x2000329b
 8004bec:	7f7fffff 	.word	0x7f7fffff
 8004bf0:	3ff00000 	.word	0x3ff00000
 8004bf4:	3fe00000 	.word	0x3fe00000
 8004bf8:	20003f70 	.word	0x20003f70
 8004bfc:	20003904 	.word	0x20003904

08004c00 <plan_sync_position>:
 8004c00:	2300      	movs	r3, #0
 8004c02:	4a05      	ldr	r2, [pc, #20]	; (8004c18 <plan_sync_position+0x18>)
 8004c04:	4805      	ldr	r0, [pc, #20]	; (8004c1c <plan_sync_position+0x1c>)
 8004c06:	f850 1023 	ldr.w	r1, [r0, r3, lsl #2]
 8004c0a:	f842 1023 	str.w	r1, [r2, r3, lsl #2]
 8004c0e:	3301      	adds	r3, #1
 8004c10:	2b06      	cmp	r3, #6
 8004c12:	d1f8      	bne.n	8004c06 <plan_sync_position+0x6>
 8004c14:	4770      	bx	lr
 8004c16:	bf00      	nop
 8004c18:	2000329c 	.word	0x2000329c
 8004c1c:	20003904 	.word	0x20003904

08004c20 <plan_get_block_buffer_available>:
 8004c20:	4b06      	ldr	r3, [pc, #24]	; (8004c3c <plan_get_block_buffer_available+0x1c>)
 8004c22:	781a      	ldrb	r2, [r3, #0]
 8004c24:	4b06      	ldr	r3, [pc, #24]	; (8004c40 <plan_get_block_buffer_available+0x20>)
 8004c26:	781b      	ldrb	r3, [r3, #0]
 8004c28:	429a      	cmp	r2, r3
 8004c2a:	bf2c      	ite	cs
 8004c2c:	f1a3 0039 	subcs.w	r0, r3, #57	; 0x39
 8004c30:	f103 30ff 	addcc.w	r0, r3, #4294967295
 8004c34:	1a80      	subs	r0, r0, r2
 8004c36:	b2c0      	uxtb	r0, r0
 8004c38:	4770      	bx	lr
 8004c3a:	bf00      	nop
 8004c3c:	20003298 	.word	0x20003298
 8004c40:	2000329a 	.word	0x2000329a

08004c44 <plan_cycle_reinitialize>:
 8004c44:	b508      	push	{r3, lr}
 8004c46:	f001 ff4d 	bl	8006ae4 <st_update_plan_block_parameters>
 8004c4a:	4b04      	ldr	r3, [pc, #16]	; (8004c5c <plan_cycle_reinitialize+0x18>)
 8004c4c:	781a      	ldrb	r2, [r3, #0]
 8004c4e:	4b04      	ldr	r3, [pc, #16]	; (8004c60 <plan_cycle_reinitialize+0x1c>)
 8004c50:	701a      	strb	r2, [r3, #0]
 8004c52:	e8bd 4008 	ldmia.w	sp!, {r3, lr}
 8004c56:	f7ff bc81 	b.w	800455c <planner_recalculate>
 8004c5a:	bf00      	nop
 8004c5c:	2000329a 	.word	0x2000329a
 8004c60:	20003299 	.word	0x20003299

08004c64 <printString>:
 8004c64:	b510      	push	{r4, lr}
 8004c66:	1e44      	subs	r4, r0, #1
 8004c68:	f814 0f01 	ldrb.w	r0, [r4, #1]!
 8004c6c:	b900      	cbnz	r0, 8004c70 <printString+0xc>
 8004c6e:	bd10      	pop	{r4, pc}
 8004c70:	f001 f8b7 	bl	8005de2 <serial_write>
 8004c74:	e7f8      	b.n	8004c68 <printString+0x4>

08004c76 <print_uint8_base10>:
 8004c76:	2863      	cmp	r0, #99	; 0x63
 8004c78:	b538      	push	{r3, r4, r5, lr}
 8004c7a:	d91d      	bls.n	8004cb8 <print_uint8_base10+0x42>
 8004c7c:	240a      	movs	r4, #10
 8004c7e:	fbb0 f3f4 	udiv	r3, r0, r4
 8004c82:	fb04 0413 	mls	r4, r4, r3, r0
 8004c86:	3430      	adds	r4, #48	; 0x30
 8004c88:	b2e4      	uxtb	r4, r4
 8004c8a:	b2d8      	uxtb	r0, r3
 8004c8c:	250a      	movs	r5, #10
 8004c8e:	fbb0 f3f5 	udiv	r3, r0, r5
 8004c92:	fb05 0513 	mls	r5, r5, r3, r0
 8004c96:	3530      	adds	r5, #48	; 0x30
 8004c98:	b2ed      	uxtb	r5, r5
 8004c9a:	b2d8      	uxtb	r0, r3
 8004c9c:	3030      	adds	r0, #48	; 0x30
 8004c9e:	b2c0      	uxtb	r0, r0
 8004ca0:	f001 f89f 	bl	8005de2 <serial_write>
 8004ca4:	b115      	cbz	r5, 8004cac <print_uint8_base10+0x36>
 8004ca6:	4628      	mov	r0, r5
 8004ca8:	f001 f89b 	bl	8005de2 <serial_write>
 8004cac:	b154      	cbz	r4, 8004cc4 <print_uint8_base10+0x4e>
 8004cae:	4620      	mov	r0, r4
 8004cb0:	e8bd 4038 	ldmia.w	sp!, {r3, r4, r5, lr}
 8004cb4:	f001 b895 	b.w	8005de2 <serial_write>
 8004cb8:	2809      	cmp	r0, #9
 8004cba:	f04f 0400 	mov.w	r4, #0
 8004cbe:	d8e5      	bhi.n	8004c8c <print_uint8_base10+0x16>
 8004cc0:	4625      	mov	r5, r4
 8004cc2:	e7eb      	b.n	8004c9c <print_uint8_base10+0x26>
 8004cc4:	bd38      	pop	{r3, r4, r5, pc}
	...

08004cc8 <printFloat>:
 8004cc8:	b5f0      	push	{r4, r5, r6, r7, lr}
 8004cca:	460d      	mov	r5, r1
 8004ccc:	b085      	sub	sp, #20
 8004cce:	2100      	movs	r1, #0
 8004cd0:	4604      	mov	r4, r0
 8004cd2:	f7fc f9f5 	bl	80010c0 <__aeabi_fcmplt>
 8004cd6:	b120      	cbz	r0, 8004ce2 <printFloat+0x1a>
 8004cd8:	202d      	movs	r0, #45	; 0x2d
 8004cda:	f001 f882 	bl	8005de2 <serial_write>
 8004cde:	f104 4400 	add.w	r4, r4, #2147483648	; 0x80000000
 8004ce2:	462e      	mov	r6, r5
 8004ce4:	4f28      	ldr	r7, [pc, #160]	; (8004d88 <printFloat+0xc0>)
 8004ce6:	2e01      	cmp	r6, #1
 8004ce8:	d82a      	bhi.n	8004d40 <printFloat+0x78>
 8004cea:	086b      	lsrs	r3, r5, #1
 8004cec:	ebc3 13c3 	rsb	r3, r3, r3, lsl #7
 8004cf0:	eb05 0343 	add.w	r3, r5, r3, lsl #1
 8004cf4:	f013 0fff 	tst.w	r3, #255	; 0xff
 8004cf8:	d004      	beq.n	8004d04 <printFloat+0x3c>
 8004cfa:	4620      	mov	r0, r4
 8004cfc:	4923      	ldr	r1, [pc, #140]	; (8004d8c <printFloat+0xc4>)
 8004cfe:	f7fc f841 	bl	8000d84 <__aeabi_fmul>
 8004d02:	4604      	mov	r4, r0
 8004d04:	f04f 517c 	mov.w	r1, #1056964608	; 0x3f000000
 8004d08:	4620      	mov	r0, r4
 8004d0a:	f7fb ff33 	bl	8000b74 <__addsf3>
 8004d0e:	f7fc fa15 	bl	800113c <__aeabi_f2iz>
 8004d12:	2300      	movs	r3, #0
 8004d14:	220a      	movs	r2, #10
 8004d16:	b2dc      	uxtb	r4, r3
 8004d18:	3301      	adds	r3, #1
 8004d1a:	b9c8      	cbnz	r0, 8004d50 <printFloat+0x88>
 8004d1c:	2230      	movs	r2, #48	; 0x30
 8004d1e:	1e63      	subs	r3, r4, #1
 8004d20:	446b      	add	r3, sp
 8004d22:	42ac      	cmp	r4, r5
 8004d24:	d31f      	bcc.n	8004d66 <printFloat+0x9e>
 8004d26:	d106      	bne.n	8004d36 <printFloat+0x6e>
 8004d28:	aa04      	add	r2, sp, #16
 8004d2a:	1c63      	adds	r3, r4, #1
 8004d2c:	4414      	add	r4, r2
 8004d2e:	2230      	movs	r2, #48	; 0x30
 8004d30:	f804 2c10 	strb.w	r2, [r4, #-16]
 8004d34:	b2dc      	uxtb	r4, r3
 8004d36:	eb0d 0604 	add.w	r6, sp, r4
 8004d3a:	b9cc      	cbnz	r4, 8004d70 <printFloat+0xa8>
 8004d3c:	b005      	add	sp, #20
 8004d3e:	bdf0      	pop	{r4, r5, r6, r7, pc}
 8004d40:	4620      	mov	r0, r4
 8004d42:	4639      	mov	r1, r7
 8004d44:	f7fc f81e 	bl	8000d84 <__aeabi_fmul>
 8004d48:	3e02      	subs	r6, #2
 8004d4a:	4604      	mov	r4, r0
 8004d4c:	b2f6      	uxtb	r6, r6
 8004d4e:	e7ca      	b.n	8004ce6 <printFloat+0x1e>
 8004d50:	a904      	add	r1, sp, #16
 8004d52:	440c      	add	r4, r1
 8004d54:	fbb0 f1f2 	udiv	r1, r0, r2
 8004d58:	fb02 0011 	mls	r0, r2, r1, r0
 8004d5c:	3030      	adds	r0, #48	; 0x30
 8004d5e:	f804 0c10 	strb.w	r0, [r4, #-16]
 8004d62:	4608      	mov	r0, r1
 8004d64:	e7d7      	b.n	8004d16 <printFloat+0x4e>
 8004d66:	3401      	adds	r4, #1
 8004d68:	b2e4      	uxtb	r4, r4
 8004d6a:	f803 2f01 	strb.w	r2, [r3, #1]!
 8004d6e:	e7d8      	b.n	8004d22 <printFloat+0x5a>
 8004d70:	42ac      	cmp	r4, r5
 8004d72:	d102      	bne.n	8004d7a <printFloat+0xb2>
 8004d74:	202e      	movs	r0, #46	; 0x2e
 8004d76:	f001 f834 	bl	8005de2 <serial_write>
 8004d7a:	f816 0d01 	ldrb.w	r0, [r6, #-1]!
 8004d7e:	3c01      	subs	r4, #1
 8004d80:	f001 f82f 	bl	8005de2 <serial_write>
 8004d84:	b2e4      	uxtb	r4, r4
 8004d86:	e7d8      	b.n	8004d3a <printFloat+0x72>
 8004d88:	42c80000 	.word	0x42c80000
 8004d8c:	41200000 	.word	0x41200000

08004d90 <printFloat_CoordValue>:
 8004d90:	b508      	push	{r3, lr}
 8004d92:	4b0d      	ldr	r3, [pc, #52]	; (8004dc8 <printFloat_CoordValue+0x38>)
 8004d94:	f893 3078 	ldrb.w	r3, [r3, #120]	; 0x78
 8004d98:	07db      	lsls	r3, r3, #31
 8004d9a:	d50d      	bpl.n	8004db8 <printFloat_CoordValue+0x28>
 8004d9c:	f7fb fb48 	bl	8000430 <__aeabi_f2d>
 8004da0:	a307      	add	r3, pc, #28	; (adr r3, 8004dc0 <printFloat_CoordValue+0x30>)
 8004da2:	e9d3 2300 	ldrd	r2, r3, [r3]
 8004da6:	f7fb fb97 	bl	80004d8 <__aeabi_dmul>
 8004daa:	f7fb fe8d 	bl	8000ac8 <__aeabi_d2f>
 8004dae:	2104      	movs	r1, #4
 8004db0:	e8bd 4008 	ldmia.w	sp!, {r3, lr}
 8004db4:	f7ff bf88 	b.w	8004cc8 <printFloat>
 8004db8:	2103      	movs	r1, #3
 8004dba:	e7f9      	b.n	8004db0 <printFloat_CoordValue+0x20>
 8004dbc:	f3af 8000 	nop.w
 8004dc0:	57e16865 	.word	0x57e16865
 8004dc4:	3fa42851 	.word	0x3fa42851
 8004dc8:	20003f70 	.word	0x20003f70
 8004dcc:	00000000 	.word	0x00000000

08004dd0 <printFloat_RateValue>:
 8004dd0:	b508      	push	{r3, lr}
 8004dd2:	4b0d      	ldr	r3, [pc, #52]	; (8004e08 <printFloat_RateValue+0x38>)
 8004dd4:	f893 1078 	ldrb.w	r1, [r3, #120]	; 0x78
 8004dd8:	f011 0101 	ands.w	r1, r1, #1
 8004ddc:	d009      	beq.n	8004df2 <printFloat_RateValue+0x22>
 8004dde:	f7fb fb27 	bl	8000430 <__aeabi_f2d>
 8004de2:	a307      	add	r3, pc, #28	; (adr r3, 8004e00 <printFloat_RateValue+0x30>)
 8004de4:	e9d3 2300 	ldrd	r2, r3, [r3]
 8004de8:	f7fb fb76 	bl	80004d8 <__aeabi_dmul>
 8004dec:	f7fb fe6c 	bl	8000ac8 <__aeabi_d2f>
 8004df0:	2101      	movs	r1, #1
 8004df2:	e8bd 4008 	ldmia.w	sp!, {r3, lr}
 8004df6:	f7ff bf67 	b.w	8004cc8 <printFloat>
 8004dfa:	bf00      	nop
 8004dfc:	f3af 8000 	nop.w
 8004e00:	57e16865 	.word	0x57e16865
 8004e04:	3fa42851 	.word	0x3fa42851
 8004e08:	20003f70 	.word	0x20003f70

08004e0c <probe_configure_invert_mask>:
 8004e0c:	2200      	movs	r2, #0
 8004e0e:	4b08      	ldr	r3, [pc, #32]	; (8004e30 <probe_configure_invert_mask+0x24>)
 8004e10:	801a      	strh	r2, [r3, #0]
 8004e12:	4a08      	ldr	r2, [pc, #32]	; (8004e34 <probe_configure_invert_mask+0x28>)
 8004e14:	f992 2078 	ldrsb.w	r2, [r2, #120]	; 0x78
 8004e18:	2a00      	cmp	r2, #0
 8004e1a:	bfa4      	itt	ge
 8004e1c:	f44f 4200 	movge.w	r2, #32768	; 0x8000
 8004e20:	801a      	strhge	r2, [r3, #0]
 8004e22:	b118      	cbz	r0, 8004e2c <probe_configure_invert_mask+0x20>
 8004e24:	881a      	ldrh	r2, [r3, #0]
 8004e26:	f482 4200 	eor.w	r2, r2, #32768	; 0x8000
 8004e2a:	801a      	strh	r2, [r3, #0]
 8004e2c:	4770      	bx	lr
 8004e2e:	bf00      	nop
 8004e30:	20003df0 	.word	0x20003df0
 8004e34:	20003f70 	.word	0x20003f70

08004e38 <probe_init>:
 8004e38:	2000      	movs	r0, #0
 8004e3a:	f7ff bfe7 	b.w	8004e0c <probe_configure_invert_mask>
	...

08004e40 <probe_get_state>:
 8004e40:	4b04      	ldr	r3, [pc, #16]	; (8004e54 <probe_get_state+0x14>)
 8004e42:	4a05      	ldr	r2, [pc, #20]	; (8004e58 <probe_get_state+0x18>)
 8004e44:	689b      	ldr	r3, [r3, #8]
 8004e46:	8810      	ldrh	r0, [r2, #0]
 8004e48:	f403 4300 	and.w	r3, r3, #32768	; 0x8000
 8004e4c:	1a1b      	subs	r3, r3, r0
 8004e4e:	4258      	negs	r0, r3
 8004e50:	4158      	adcs	r0, r3
 8004e52:	4770      	bx	lr
 8004e54:	40010800 	.word	0x40010800
 8004e58:	20003df0 	.word	0x20003df0

08004e5c <probe_state_monitor>:
 8004e5c:	b538      	push	{r3, r4, r5, lr}
 8004e5e:	f7ff ffef 	bl	8004e40 <probe_get_state>
 8004e62:	b178      	cbz	r0, 8004e84 <probe_state_monitor+0x28>
 8004e64:	2200      	movs	r2, #0
 8004e66:	4b08      	ldr	r3, [pc, #32]	; (8004e88 <probe_state_monitor+0x2c>)
 8004e68:	4c08      	ldr	r4, [pc, #32]	; (8004e8c <probe_state_monitor+0x30>)
 8004e6a:	4d09      	ldr	r5, [pc, #36]	; (8004e90 <probe_state_monitor+0x34>)
 8004e6c:	701a      	strb	r2, [r3, #0]
 8004e6e:	cd0f      	ldmia	r5!, {r0, r1, r2, r3}
 8004e70:	c40f      	stmia	r4!, {r0, r1, r2, r3}
 8004e72:	e895 0003 	ldmia.w	r5, {r0, r1}
 8004e76:	4a07      	ldr	r2, [pc, #28]	; (8004e94 <probe_state_monitor+0x38>)
 8004e78:	e884 0003 	stmia.w	r4, {r0, r1}
 8004e7c:	7813      	ldrb	r3, [r2, #0]
 8004e7e:	f043 0340 	orr.w	r3, r3, #64	; 0x40
 8004e82:	7013      	strb	r3, [r2, #0]
 8004e84:	bd38      	pop	{r3, r4, r5, pc}
 8004e86:	bf00      	nop
 8004e88:	200038ea 	.word	0x200038ea
 8004e8c:	200038ec 	.word	0x200038ec
 8004e90:	20003904 	.word	0x20003904
 8004e94:	200038e9 	.word	0x200038e9

08004e98 <protocol_auto_cycle_start>:
 8004e98:	b508      	push	{r3, lr}
 8004e9a:	f7ff fc67 	bl	800476c <plan_get_current_block>
 8004e9e:	b120      	cbz	r0, 8004eaa <protocol_auto_cycle_start+0x12>
 8004ea0:	e8bd 4008 	ldmia.w	sp!, {r3, lr}
 8004ea4:	2002      	movs	r0, #2
 8004ea6:	f002 ba93 	b.w	80073d0 <system_set_exec_state_flag>
 8004eaa:	bd08      	pop	{r3, pc}

08004eac <protocol_exec_rt_system>:
 8004eac:	b5f8      	push	{r3, r4, r5, r6, r7, lr}
 8004eae:	4b38      	ldr	r3, [pc, #224]	; (8004f90 <protocol_exec_rt_system+0xe4>)
 8004eb0:	4c38      	ldr	r4, [pc, #224]	; (8004f94 <protocol_exec_rt_system+0xe8>)
 8004eb2:	781b      	ldrb	r3, [r3, #0]
 8004eb4:	4e38      	ldr	r6, [pc, #224]	; (8004f98 <protocol_exec_rt_system+0xec>)
 8004eb6:	f003 05ff 	and.w	r5, r3, #255	; 0xff
 8004eba:	b14b      	cbz	r3, 8004ed0 <protocol_exec_rt_system+0x24>
 8004ebc:	2701      	movs	r7, #1
 8004ebe:	4628      	mov	r0, r5
 8004ec0:	3d01      	subs	r5, #1
 8004ec2:	7027      	strb	r7, [r4, #0]
 8004ec4:	f000 fb7a 	bl	80055bc <report_alarm_message>
 8004ec8:	42bd      	cmp	r5, r7
 8004eca:	d90c      	bls.n	8004ee6 <protocol_exec_rt_system+0x3a>
 8004ecc:	f002 fc24 	bl	8007718 <system_clear_exec_alarm>
 8004ed0:	7833      	ldrb	r3, [r6, #0]
 8004ed2:	f003 05ff 	and.w	r5, r3, #255	; 0xff
 8004ed6:	2b00      	cmp	r3, #0
 8004ed8:	f000 80ba 	beq.w	8005050 <protocol_exec_rt_system+0x1a4>
 8004edc:	06e8      	lsls	r0, r5, #27
 8004ede:	d50c      	bpl.n	8004efa <protocol_exec_rt_system+0x4e>
 8004ee0:	2301      	movs	r3, #1
 8004ee2:	7063      	strb	r3, [r4, #1]
 8004ee4:	bdf8      	pop	{r3, r4, r5, r6, r7, pc}
 8004ee6:	4638      	mov	r0, r7
 8004ee8:	f000 fb7a 	bl	80055e0 <report_feedback_message>
 8004eec:	2010      	movs	r0, #16
 8004eee:	f002 fbff 	bl	80076f0 <system_clear_exec_state_flag>
 8004ef2:	7833      	ldrb	r3, [r6, #0]
 8004ef4:	06dd      	lsls	r5, r3, #27
 8004ef6:	d5fc      	bpl.n	8004ef2 <protocol_exec_rt_system+0x46>
 8004ef8:	e7e8      	b.n	8004ecc <protocol_exec_rt_system+0x20>
 8004efa:	07e9      	lsls	r1, r5, #31
 8004efc:	d504      	bpl.n	8004f08 <protocol_exec_rt_system+0x5c>
 8004efe:	f000 fde5 	bl	8005acc <report_realtime_status>
 8004f02:	2001      	movs	r0, #1
 8004f04:	f002 fbf4 	bl	80076f0 <system_clear_exec_state_flag>
 8004f08:	f015 0fe8 	tst.w	r5, #232	; 0xe8
 8004f0c:	d05a      	beq.n	8004fc4 <protocol_exec_rt_system+0x118>
 8004f0e:	7823      	ldrb	r3, [r4, #0]
 8004f10:	b26e      	sxtb	r6, r5
 8004f12:	f013 0f03 	tst.w	r3, #3
 8004f16:	d147      	bne.n	8004fa8 <protocol_exec_rt_system+0xfc>
 8004f18:	f013 0f28 	tst.w	r3, #40	; 0x28
 8004f1c:	d010      	beq.n	8004f40 <protocol_exec_rt_system+0x94>
 8004f1e:	78a3      	ldrb	r3, [r4, #2]
 8004f20:	f013 0fc0 	tst.w	r3, #192	; 0xc0
 8004f24:	d10c      	bne.n	8004f40 <protocol_exec_rt_system+0x94>
 8004f26:	f001 fddd 	bl	8006ae4 <st_update_plan_block_parameters>
 8004f2a:	2302      	movs	r3, #2
 8004f2c:	7123      	strb	r3, [r4, #4]
 8004f2e:	7823      	ldrb	r3, [r4, #0]
 8004f30:	2b20      	cmp	r3, #32
 8004f32:	d105      	bne.n	8004f40 <protocol_exec_rt_system+0x94>
 8004f34:	2e00      	cmp	r6, #0
 8004f36:	db07      	blt.n	8004f48 <protocol_exec_rt_system+0x9c>
 8004f38:	78a3      	ldrb	r3, [r4, #2]
 8004f3a:	f063 037f 	orn	r3, r3, #127	; 0x7f
 8004f3e:	70a3      	strb	r3, [r4, #2]
 8004f40:	7823      	ldrb	r3, [r4, #0]
 8004f42:	b90b      	cbnz	r3, 8004f48 <protocol_exec_rt_system+0x9c>
 8004f44:	2201      	movs	r2, #1
 8004f46:	70a2      	strb	r2, [r4, #2]
 8004f48:	066a      	lsls	r2, r5, #25
 8004f4a:	d505      	bpl.n	8004f58 <protocol_exec_rt_system+0xac>
 8004f4c:	069f      	lsls	r7, r3, #26
 8004f4e:	bf5e      	ittt	pl
 8004f50:	78a2      	ldrbpl	r2, [r4, #2]
 8004f52:	f042 0240 	orrpl.w	r2, r2, #64	; 0x40
 8004f56:	70a2      	strbpl	r2, [r4, #2]
 8004f58:	0728      	lsls	r0, r5, #28
 8004f5a:	d504      	bpl.n	8004f66 <protocol_exec_rt_system+0xba>
 8004f5c:	f013 0fe0 	tst.w	r3, #224	; 0xe0
 8004f60:	bf04      	itt	eq
 8004f62:	2310      	moveq	r3, #16
 8004f64:	7023      	strbeq	r3, [r4, #0]
 8004f66:	06a9      	lsls	r1, r5, #26
 8004f68:	d51e      	bpl.n	8004fa8 <protocol_exec_rt_system+0xfc>
 8004f6a:	2006      	movs	r0, #6
 8004f6c:	f000 fb38 	bl	80055e0 <report_feedback_message>
 8004f70:	78a3      	ldrb	r3, [r4, #2]
 8004f72:	061a      	lsls	r2, r3, #24
 8004f74:	d414      	bmi.n	8004fa0 <protocol_exec_rt_system+0xf4>
 8004f76:	7822      	ldrb	r2, [r4, #0]
 8004f78:	2a40      	cmp	r2, #64	; 0x40
 8004f7a:	d10f      	bne.n	8004f9c <protocol_exec_rt_system+0xf0>
 8004f7c:	071f      	lsls	r7, r3, #28
 8004f7e:	d504      	bpl.n	8004f8a <protocol_exec_rt_system+0xde>
 8004f80:	f023 031c 	bic.w	r3, r3, #28
 8004f84:	f043 0302 	orr.w	r3, r3, #2
 8004f88:	70a3      	strb	r3, [r4, #2]
 8004f8a:	2340      	movs	r3, #64	; 0x40
 8004f8c:	7023      	strb	r3, [r4, #0]
 8004f8e:	e007      	b.n	8004fa0 <protocol_exec_rt_system+0xf4>
 8004f90:	2000391c 	.word	0x2000391c
 8004f94:	200038d4 	.word	0x200038d4
 8004f98:	200038e9 	.word	0x200038e9
 8004f9c:	2a80      	cmp	r2, #128	; 0x80
 8004f9e:	d1f4      	bne.n	8004f8a <protocol_exec_rt_system+0xde>
 8004fa0:	78a3      	ldrb	r3, [r4, #2]
 8004fa2:	f043 0320 	orr.w	r3, r3, #32
 8004fa6:	70a3      	strb	r3, [r4, #2]
 8004fa8:	2e00      	cmp	r6, #0
 8004faa:	da08      	bge.n	8004fbe <protocol_exec_rt_system+0x112>
 8004fac:	7823      	ldrb	r3, [r4, #0]
 8004fae:	2b01      	cmp	r3, #1
 8004fb0:	bf02      	ittt	eq
 8004fb2:	78a3      	ldrbeq	r3, [r4, #2]
 8004fb4:	f043 0305 	orreq.w	r3, r3, #5
 8004fb8:	70a3      	strbeq	r3, [r4, #2]
 8004fba:	2380      	movs	r3, #128	; 0x80
 8004fbc:	7023      	strb	r3, [r4, #0]
 8004fbe:	20e8      	movs	r0, #232	; 0xe8
 8004fc0:	f002 fb96 	bl	80076f0 <system_clear_exec_state_flag>
 8004fc4:	07a8      	lsls	r0, r5, #30
 8004fc6:	d523      	bpl.n	8005010 <protocol_exec_rt_system+0x164>
 8004fc8:	f015 0f68 	tst.w	r5, #104	; 0x68
 8004fcc:	d11d      	bne.n	800500a <protocol_exec_rt_system+0x15e>
 8004fce:	7823      	ldrb	r3, [r4, #0]
 8004fd0:	2b40      	cmp	r3, #64	; 0x40
 8004fd2:	d107      	bne.n	8004fe4 <protocol_exec_rt_system+0x138>
 8004fd4:	78a3      	ldrb	r3, [r4, #2]
 8004fd6:	f013 0220 	ands.w	r2, r3, #32
 8004fda:	d103      	bne.n	8004fe4 <protocol_exec_rt_system+0x138>
 8004fdc:	06d9      	lsls	r1, r3, #27
 8004fde:	f140 80d4 	bpl.w	800518a <protocol_exec_rt_system+0x2de>
 8004fe2:	7022      	strb	r2, [r4, #0]
 8004fe4:	7823      	ldrb	r3, [r4, #0]
 8004fe6:	2b00      	cmp	r3, #0
 8004fe8:	f000 80d5 	beq.w	8005196 <protocol_exec_rt_system+0x2ea>
 8004fec:	06df      	lsls	r7, r3, #27
 8004fee:	d50c      	bpl.n	800500a <protocol_exec_rt_system+0x15e>
 8004ff0:	78a2      	ldrb	r2, [r4, #2]
 8004ff2:	07d6      	lsls	r6, r2, #31
 8004ff4:	d509      	bpl.n	800500a <protocol_exec_rt_system+0x15e>
 8004ff6:	2b10      	cmp	r3, #16
 8004ff8:	f040 80cd 	bne.w	8005196 <protocol_exec_rt_system+0x2ea>
 8004ffc:	7ae3      	ldrb	r3, [r4, #11]
 8004ffe:	2b00      	cmp	r3, #0
 8005000:	f000 80c9 	beq.w	8005196 <protocol_exec_rt_system+0x2ea>
 8005004:	f043 0308 	orr.w	r3, r3, #8
 8005008:	72e3      	strb	r3, [r4, #11]
 800500a:	2002      	movs	r0, #2
 800500c:	f002 fb70 	bl	80076f0 <system_clear_exec_state_flag>
 8005010:	0768      	lsls	r0, r5, #29
 8005012:	d51d      	bpl.n	8005050 <protocol_exec_rt_system+0x1a4>
 8005014:	7823      	ldrb	r3, [r4, #0]
 8005016:	f013 0fd0 	tst.w	r3, #208	; 0xd0
 800501a:	f000 80d1 	beq.w	80051c0 <protocol_exec_rt_system+0x314>
 800501e:	78e3      	ldrb	r3, [r4, #3]
 8005020:	2b00      	cmp	r3, #0
 8005022:	f040 80cd 	bne.w	80051c0 <protocol_exec_rt_system+0x314>
 8005026:	f994 3002 	ldrsb.w	r3, [r4, #2]
 800502a:	2b00      	cmp	r3, #0
 800502c:	f2c0 80c8 	blt.w	80051c0 <protocol_exec_rt_system+0x314>
 8005030:	f7ff fe08 	bl	8004c44 <plan_cycle_reinitialize>
 8005034:	7923      	ldrb	r3, [r4, #4]
 8005036:	0799      	lsls	r1, r3, #30
 8005038:	bf48      	it	mi
 800503a:	78a2      	ldrbmi	r2, [r4, #2]
 800503c:	f023 0306 	bic.w	r3, r3, #6
 8005040:	bf44      	itt	mi
 8005042:	f042 0201 	orrmi.w	r2, r2, #1
 8005046:	70a2      	strbmi	r2, [r4, #2]
 8005048:	7123      	strb	r3, [r4, #4]
 800504a:	2004      	movs	r0, #4
 800504c:	f002 fb50 	bl	80076f0 <system_clear_exec_state_flag>
 8005050:	4b6d      	ldr	r3, [pc, #436]	; (8005208 <protocol_exec_rt_system+0x35c>)
 8005052:	781b      	ldrb	r3, [r3, #0]
 8005054:	f003 05ff 	and.w	r5, r3, #255	; 0xff
 8005058:	2b00      	cmp	r3, #0
 800505a:	d038      	beq.n	80050ce <protocol_exec_rt_system+0x222>
 800505c:	f002 fb78 	bl	8007750 <system_clear_exec_motion_overrides>
 8005060:	7a20      	ldrb	r0, [r4, #8]
 8005062:	f015 0f01 	tst.w	r5, #1
 8005066:	bf0c      	ite	eq
 8005068:	4603      	moveq	r3, r0
 800506a:	2364      	movne	r3, #100	; 0x64
 800506c:	07aa      	lsls	r2, r5, #30
 800506e:	bf44      	itt	mi
 8005070:	330a      	addmi	r3, #10
 8005072:	b2db      	uxtbmi	r3, r3
 8005074:	076f      	lsls	r7, r5, #29
 8005076:	bf44      	itt	mi
 8005078:	3b0a      	submi	r3, #10
 800507a:	b2db      	uxtbmi	r3, r3
 800507c:	072e      	lsls	r6, r5, #28
 800507e:	bf44      	itt	mi
 8005080:	3301      	addmi	r3, #1
 8005082:	b2db      	uxtbmi	r3, r3
 8005084:	06e9      	lsls	r1, r5, #27
 8005086:	bf44      	itt	mi
 8005088:	f103 33ff 	addmi.w	r3, r3, #4294967295
 800508c:	b2db      	uxtbmi	r3, r3
 800508e:	2bc8      	cmp	r3, #200	; 0xc8
 8005090:	bf28      	it	cs
 8005092:	23c8      	movcs	r3, #200	; 0xc8
 8005094:	2b0a      	cmp	r3, #10
 8005096:	bf38      	it	cc
 8005098:	230a      	movcc	r3, #10
 800509a:	7a61      	ldrb	r1, [r4, #9]
 800509c:	f015 0f20 	tst.w	r5, #32
 80050a0:	bf14      	ite	ne
 80050a2:	2264      	movne	r2, #100	; 0x64
 80050a4:	460a      	moveq	r2, r1
 80050a6:	f015 0f40 	tst.w	r5, #64	; 0x40
 80050aa:	bf18      	it	ne
 80050ac:	2232      	movne	r2, #50	; 0x32
 80050ae:	f015 0f80 	tst.w	r5, #128	; 0x80
 80050b2:	bf18      	it	ne
 80050b4:	2219      	movne	r2, #25
 80050b6:	4298      	cmp	r0, r3
 80050b8:	d101      	bne.n	80050be <protocol_exec_rt_system+0x212>
 80050ba:	428a      	cmp	r2, r1
 80050bc:	d007      	beq.n	80050ce <protocol_exec_rt_system+0x222>
 80050be:	7223      	strb	r3, [r4, #8]
 80050c0:	2300      	movs	r3, #0
 80050c2:	7262      	strb	r2, [r4, #9]
 80050c4:	7323      	strb	r3, [r4, #12]
 80050c6:	f7ff fbd9 	bl	800487c <plan_update_velocity_profile_parameters>
 80050ca:	f7ff fdbb 	bl	8004c44 <plan_cycle_reinitialize>
 80050ce:	4b4f      	ldr	r3, [pc, #316]	; (800520c <protocol_exec_rt_system+0x360>)
 80050d0:	781b      	ldrb	r3, [r3, #0]
 80050d2:	f003 06ff 	and.w	r6, r3, #255	; 0xff
 80050d6:	2b00      	cmp	r3, #0
 80050d8:	d04f      	beq.n	800517a <protocol_exec_rt_system+0x2ce>
 80050da:	f002 fb41 	bl	8007760 <system_clear_exec_accessory_overrides>
 80050de:	7aa2      	ldrb	r2, [r4, #10]
 80050e0:	f016 0f01 	tst.w	r6, #1
 80050e4:	bf0c      	ite	eq
 80050e6:	4613      	moveq	r3, r2
 80050e8:	2364      	movne	r3, #100	; 0x64
 80050ea:	07b7      	lsls	r7, r6, #30
 80050ec:	bf44      	itt	mi
 80050ee:	330a      	addmi	r3, #10
 80050f0:	b2db      	uxtbmi	r3, r3
 80050f2:	0775      	lsls	r5, r6, #29
 80050f4:	bf44      	itt	mi
 80050f6:	3b0a      	submi	r3, #10
 80050f8:	b2db      	uxtbmi	r3, r3
 80050fa:	0730      	lsls	r0, r6, #28
 80050fc:	bf44      	itt	mi
 80050fe:	3301      	addmi	r3, #1
 8005100:	b2db      	uxtbmi	r3, r3
 8005102:	06f1      	lsls	r1, r6, #27
 8005104:	bf44      	itt	mi
 8005106:	f103 33ff 	addmi.w	r3, r3, #4294967295
 800510a:	b2db      	uxtbmi	r3, r3
 800510c:	2bc8      	cmp	r3, #200	; 0xc8
 800510e:	bf28      	it	cs
 8005110:	23c8      	movcs	r3, #200	; 0xc8
 8005112:	2b0a      	cmp	r3, #10
 8005114:	bf38      	it	cc
 8005116:	230a      	movcc	r3, #10
 8005118:	429a      	cmp	r2, r3
 800511a:	d006      	beq.n	800512a <protocol_exec_rt_system+0x27e>
 800511c:	72a3      	strb	r3, [r4, #10]
 800511e:	2300      	movs	r3, #0
 8005120:	7922      	ldrb	r2, [r4, #4]
 8005122:	7323      	strb	r3, [r4, #12]
 8005124:	f042 0208 	orr.w	r2, r2, #8
 8005128:	7122      	strb	r2, [r4, #4]
 800512a:	06b7      	lsls	r7, r6, #26
 800512c:	d507      	bpl.n	800513e <protocol_exec_rt_system+0x292>
 800512e:	7823      	ldrb	r3, [r4, #0]
 8005130:	2b10      	cmp	r3, #16
 8005132:	d104      	bne.n	800513e <protocol_exec_rt_system+0x292>
 8005134:	7ae3      	ldrb	r3, [r4, #11]
 8005136:	2b00      	cmp	r3, #0
 8005138:	d15f      	bne.n	80051fa <protocol_exec_rt_system+0x34e>
 800513a:	2302      	movs	r3, #2
 800513c:	72e3      	strb	r3, [r4, #11]
 800513e:	f016 0fc0 	tst.w	r6, #192	; 0xc0
 8005142:	d01a      	beq.n	800517a <protocol_exec_rt_system+0x2ce>
 8005144:	7823      	ldrb	r3, [r4, #0]
 8005146:	b113      	cbz	r3, 800514e <protocol_exec_rt_system+0x2a2>
 8005148:	f013 0f18 	tst.w	r3, #24
 800514c:	d015      	beq.n	800517a <protocol_exec_rt_system+0x2ce>
 800514e:	4f30      	ldr	r7, [pc, #192]	; (8005210 <protocol_exec_rt_system+0x364>)
 8005150:	0630      	lsls	r0, r6, #24
 8005152:	7a3d      	ldrb	r5, [r7, #8]
 8005154:	d505      	bpl.n	8005162 <protocol_exec_rt_system+0x2b6>
 8005156:	0629      	lsls	r1, r5, #24
 8005158:	bf4c      	ite	mi
 800515a:	f005 057f 	andmi.w	r5, r5, #127	; 0x7f
 800515e:	f045 0580 	orrpl.w	r5, r5, #128	; 0x80
 8005162:	0672      	lsls	r2, r6, #25
 8005164:	d505      	bpl.n	8005172 <protocol_exec_rt_system+0x2c6>
 8005166:	066b      	lsls	r3, r5, #25
 8005168:	bf4c      	ite	mi
 800516a:	f005 05bf 	andmi.w	r5, r5, #191	; 0xbf
 800516e:	f045 0540 	orrpl.w	r5, r5, #64	; 0x40
 8005172:	4628      	mov	r0, r5
 8005174:	f7fd fb5a 	bl	800282c <coolant_set_state>
 8005178:	723d      	strb	r5, [r7, #8]
 800517a:	7823      	ldrb	r3, [r4, #0]
 800517c:	f013 0ffc 	tst.w	r3, #252	; 0xfc
 8005180:	d040      	beq.n	8005204 <protocol_exec_rt_system+0x358>
 8005182:	e8bd 40f8 	ldmia.w	sp!, {r3, r4, r5, r6, r7, lr}
 8005186:	f001 bcc3 	b.w	8006b10 <st_prep_buffer>
 800518a:	075a      	lsls	r2, r3, #29
 800518c:	bf44      	itt	mi
 800518e:	f043 0308 	orrmi.w	r3, r3, #8
 8005192:	70a3      	strbmi	r3, [r4, #2]
 8005194:	e726      	b.n	8004fe4 <protocol_exec_rt_system+0x138>
 8005196:	2300      	movs	r3, #0
 8005198:	7123      	strb	r3, [r4, #4]
 800519a:	f7ff fae7 	bl	800476c <plan_get_current_block>
 800519e:	b158      	cbz	r0, 80051b8 <protocol_exec_rt_system+0x30c>
 80051a0:	78a3      	ldrb	r3, [r4, #2]
 80051a2:	f013 0340 	ands.w	r3, r3, #64	; 0x40
 80051a6:	d107      	bne.n	80051b8 <protocol_exec_rt_system+0x30c>
 80051a8:	70a3      	strb	r3, [r4, #2]
 80051aa:	2308      	movs	r3, #8
 80051ac:	7023      	strb	r3, [r4, #0]
 80051ae:	f001 fcaf 	bl	8006b10 <st_prep_buffer>
 80051b2:	f001 fa15 	bl	80065e0 <st_wake_up>
 80051b6:	e728      	b.n	800500a <protocol_exec_rt_system+0x15e>
 80051b8:	2300      	movs	r3, #0
 80051ba:	70a3      	strb	r3, [r4, #2]
 80051bc:	7023      	strb	r3, [r4, #0]
 80051be:	e724      	b.n	800500a <protocol_exec_rt_system+0x15e>
 80051c0:	f994 3002 	ldrsb.w	r3, [r4, #2]
 80051c4:	2b00      	cmp	r3, #0
 80051c6:	da09      	bge.n	80051dc <protocol_exec_rt_system+0x330>
 80051c8:	2300      	movs	r3, #0
 80051ca:	7123      	strb	r3, [r4, #4]
 80051cc:	f7ff fa9e 	bl	800470c <plan_reset>
 80051d0:	f001 fc1a 	bl	8006a08 <st_reset>
 80051d4:	f7fd fc12 	bl	80029fc <gc_sync_position>
 80051d8:	f7ff fd12 	bl	8004c00 <plan_sync_position>
 80051dc:	78a3      	ldrb	r3, [r4, #2]
 80051de:	f013 0220 	ands.w	r2, r3, #32
 80051e2:	bf1f      	itttt	ne
 80051e4:	f003 037f 	andne.w	r3, r3, #127	; 0x7f
 80051e8:	f043 0301 	orrne.w	r3, r3, #1
 80051ec:	70a3      	strbne	r3, [r4, #2]
 80051ee:	2340      	movne	r3, #64	; 0x40
 80051f0:	bf0a      	itet	eq
 80051f2:	70a2      	strbeq	r2, [r4, #2]
 80051f4:	7023      	strbne	r3, [r4, #0]
 80051f6:	7022      	strbeq	r2, [r4, #0]
 80051f8:	e727      	b.n	800504a <protocol_exec_rt_system+0x19e>
 80051fa:	07dd      	lsls	r5, r3, #31
 80051fc:	d59f      	bpl.n	800513e <protocol_exec_rt_system+0x292>
 80051fe:	f043 0304 	orr.w	r3, r3, #4
 8005202:	e79b      	b.n	800513c <protocol_exec_rt_system+0x290>
 8005204:	bdf8      	pop	{r3, r4, r5, r6, r7, pc}
 8005206:	bf00      	nop
 8005208:	200038d0 	.word	0x200038d0
 800520c:	200038e8 	.word	0x200038e8
 8005210:	20003d20 	.word	0x20003d20

08005214 <protocol_execute_realtime>:
 8005214:	e92d 4ff8 	stmdb	sp!, {r3, r4, r5, r6, r7, r8, r9, sl, fp, lr}
 8005218:	4c66      	ldr	r4, [pc, #408]	; (80053b4 <protocol_execute_realtime+0x1a0>)
 800521a:	f7ff fe47 	bl	8004eac <protocol_exec_rt_system>
 800521e:	78a3      	ldrb	r3, [r4, #2]
 8005220:	b1ab      	cbz	r3, 800524e <protocol_execute_realtime+0x3a>
 8005222:	f7ff faa3 	bl	800476c <plan_get_current_block>
 8005226:	b9a0      	cbnz	r0, 8005252 <protocol_execute_realtime+0x3e>
 8005228:	4b63      	ldr	r3, [pc, #396]	; (80053b8 <protocol_execute_realtime+0x1a4>)
 800522a:	7a5d      	ldrb	r5, [r3, #9]
 800522c:	7a1a      	ldrb	r2, [r3, #8]
 800522e:	691f      	ldr	r7, [r3, #16]
 8005230:	4315      	orrs	r5, r2
 8005232:	4e62      	ldr	r6, [pc, #392]	; (80053bc <protocol_execute_realtime+0x1a8>)
 8005234:	f896 3078 	ldrb.w	r3, [r6, #120]	; 0x78
 8005238:	079b      	lsls	r3, r3, #30
 800523a:	d502      	bpl.n	8005242 <protocol_execute_realtime+0x2e>
 800523c:	2020      	movs	r0, #32
 800523e:	f002 fa7d 	bl	800773c <system_set_exec_accessory_override_flag>
 8005242:	f04f 0800 	mov.w	r8, #0
 8005246:	f04f 4a81 	mov.w	sl, #1082130432	; 0x40800000
 800524a:	78a3      	ldrb	r3, [r4, #2]
 800524c:	b923      	cbnz	r3, 8005258 <protocol_execute_realtime+0x44>
 800524e:	e8bd 8ff8 	ldmia.w	sp!, {r3, r4, r5, r6, r7, r8, r9, sl, fp, pc}
 8005252:	7f45      	ldrb	r5, [r0, #29]
 8005254:	6bc7      	ldr	r7, [r0, #60]	; 0x3c
 8005256:	e7ec      	b.n	8005232 <protocol_execute_realtime+0x1e>
 8005258:	f894 9001 	ldrb.w	r9, [r4, #1]
 800525c:	f1b9 0f00 	cmp.w	r9, #0
 8005260:	d1f5      	bne.n	800524e <protocol_execute_realtime+0x3a>
 8005262:	07d8      	lsls	r0, r3, #31
 8005264:	d515      	bpl.n	8005292 <protocol_execute_realtime+0x7e>
 8005266:	7821      	ldrb	r1, [r4, #0]
 8005268:	f011 00c0 	ands.w	r0, r1, #192	; 0xc0
 800526c:	d067      	beq.n	800533e <protocol_execute_realtime+0x12a>
 800526e:	f013 0b04 	ands.w	fp, r3, #4
 8005272:	d111      	bne.n	8005298 <protocol_execute_realtime+0x84>
 8005274:	4641      	mov	r1, r8
 8005276:	4658      	mov	r0, fp
 8005278:	f884 b00b 	strb.w	fp, [r4, #11]
 800527c:	f001 f972 	bl	8006564 <spindle_set_state>
 8005280:	4658      	mov	r0, fp
 8005282:	f7fd fad3 	bl	800282c <coolant_set_state>
 8005286:	78a3      	ldrb	r3, [r4, #2]
 8005288:	f023 0302 	bic.w	r3, r3, #2
 800528c:	f043 0304 	orr.w	r3, r3, #4
 8005290:	70a3      	strb	r3, [r4, #2]
 8005292:	f7ff fe0b 	bl	8004eac <protocol_exec_rt_system>
 8005296:	e7d8      	b.n	800524a <protocol_execute_realtime+0x36>
 8005298:	2980      	cmp	r1, #128	; 0x80
 800529a:	d112      	bne.n	80052c2 <protocol_execute_realtime+0xae>
 800529c:	200b      	movs	r0, #11
 800529e:	f000 f99f 	bl	80055e0 <report_feedback_message>
 80052a2:	2100      	movs	r1, #0
 80052a4:	4648      	mov	r0, r9
 80052a6:	f001 f95d 	bl	8006564 <spindle_set_state>
 80052aa:	4648      	mov	r0, r9
 80052ac:	f7fd fabe 	bl	800282c <coolant_set_state>
 80052b0:	f001 f9da 	bl	8006668 <st_go_idle>
 80052b4:	7863      	ldrb	r3, [r4, #1]
 80052b6:	b10b      	cbz	r3, 80052bc <protocol_execute_realtime+0xa8>
 80052b8:	e8bd 8ff8 	ldmia.w	sp!, {r3, r4, r5, r6, r7, r8, r9, sl, fp, pc}
 80052bc:	f7ff fdf6 	bl	8004eac <protocol_exec_rt_system>
 80052c0:	e7f8      	b.n	80052b4 <protocol_execute_realtime+0xa0>
 80052c2:	2940      	cmp	r1, #64	; 0x40
 80052c4:	d106      	bne.n	80052d4 <protocol_execute_realtime+0xc0>
 80052c6:	f002 f81f 	bl	8007308 <system_check_safety_door_ajar>
 80052ca:	b918      	cbnz	r0, 80052d4 <protocol_execute_realtime+0xc0>
 80052cc:	78a3      	ldrb	r3, [r4, #2]
 80052ce:	f023 0320 	bic.w	r3, r3, #32
 80052d2:	70a3      	strb	r3, [r4, #2]
 80052d4:	78a3      	ldrb	r3, [r4, #2]
 80052d6:	0719      	lsls	r1, r3, #28
 80052d8:	d5db      	bpl.n	8005292 <protocol_execute_realtime+0x7e>
 80052da:	f8df b0dc 	ldr.w	fp, [pc, #220]	; 80053b8 <protocol_execute_realtime+0x1a4>
 80052de:	f89b 2009 	ldrb.w	r2, [fp, #9]
 80052e2:	b14a      	cbz	r2, 80052f8 <protocol_execute_realtime+0xe4>
 80052e4:	079a      	lsls	r2, r3, #30
 80052e6:	d407      	bmi.n	80052f8 <protocol_execute_realtime+0xe4>
 80052e8:	f896 3078 	ldrb.w	r3, [r6, #120]	; 0x78
 80052ec:	079b      	lsls	r3, r3, #30
 80052ee:	d51c      	bpl.n	800532a <protocol_execute_realtime+0x116>
 80052f0:	7923      	ldrb	r3, [r4, #4]
 80052f2:	f043 0308 	orr.w	r3, r3, #8
 80052f6:	7123      	strb	r3, [r4, #4]
 80052f8:	f89b 3008 	ldrb.w	r3, [fp, #8]
 80052fc:	b15b      	cbz	r3, 8005316 <protocol_execute_realtime+0x102>
 80052fe:	78a3      	ldrb	r3, [r4, #2]
 8005300:	0798      	lsls	r0, r3, #30
 8005302:	d408      	bmi.n	8005316 <protocol_execute_realtime+0x102>
 8005304:	f005 0040 	and.w	r0, r5, #64	; 0x40
 8005308:	f7fd fa90 	bl	800282c <coolant_set_state>
 800530c:	2101      	movs	r1, #1
 800530e:	f04f 507e 	mov.w	r0, #1065353216	; 0x3f800000
 8005312:	f7ff f88f 	bl	8004434 <delay_sec>
 8005316:	78a3      	ldrb	r3, [r4, #2]
 8005318:	0799      	lsls	r1, r3, #30
 800531a:	d4ba      	bmi.n	8005292 <protocol_execute_realtime+0x7e>
 800531c:	f043 0310 	orr.w	r3, r3, #16
 8005320:	2002      	movs	r0, #2
 8005322:	70a3      	strb	r3, [r4, #2]
 8005324:	f002 f854 	bl	80073d0 <system_set_exec_state_flag>
 8005328:	e7b3      	b.n	8005292 <protocol_execute_realtime+0x7e>
 800532a:	4639      	mov	r1, r7
 800532c:	f005 0030 	and.w	r0, r5, #48	; 0x30
 8005330:	f001 f918 	bl	8006564 <spindle_set_state>
 8005334:	2101      	movs	r1, #1
 8005336:	4650      	mov	r0, sl
 8005338:	f7ff f87c 	bl	8004434 <delay_sec>
 800533c:	e7dc      	b.n	80052f8 <protocol_execute_realtime+0xe4>
 800533e:	7ae3      	ldrb	r3, [r4, #11]
 8005340:	b34b      	cbz	r3, 8005396 <protocol_execute_realtime+0x182>
 8005342:	079a      	lsls	r2, r3, #30
 8005344:	d508      	bpl.n	8005358 <protocol_execute_realtime+0x144>
 8005346:	4b1c      	ldr	r3, [pc, #112]	; (80053b8 <protocol_execute_realtime+0x1a4>)
 8005348:	7a5b      	ldrb	r3, [r3, #9]
 800534a:	b1e3      	cbz	r3, 8005386 <protocol_execute_realtime+0x172>
 800534c:	4641      	mov	r1, r8
 800534e:	f001 f909 	bl	8006564 <spindle_set_state>
 8005352:	2301      	movs	r3, #1
 8005354:	72e3      	strb	r3, [r4, #11]
 8005356:	e79c      	b.n	8005292 <protocol_execute_realtime+0x7e>
 8005358:	f013 0f0c 	tst.w	r3, #12
 800535c:	d099      	beq.n	8005292 <protocol_execute_realtime+0x7e>
 800535e:	4b16      	ldr	r3, [pc, #88]	; (80053b8 <protocol_execute_realtime+0x1a4>)
 8005360:	7a5b      	ldrb	r3, [r3, #9]
 8005362:	b153      	cbz	r3, 800537a <protocol_execute_realtime+0x166>
 8005364:	200a      	movs	r0, #10
 8005366:	f000 f93b 	bl	80055e0 <report_feedback_message>
 800536a:	f896 3078 	ldrb.w	r3, [r6, #120]	; 0x78
 800536e:	0799      	lsls	r1, r3, #30
 8005370:	d50b      	bpl.n	800538a <protocol_execute_realtime+0x176>
 8005372:	7923      	ldrb	r3, [r4, #4]
 8005374:	f043 0308 	orr.w	r3, r3, #8
 8005378:	7123      	strb	r3, [r4, #4]
 800537a:	7ae3      	ldrb	r3, [r4, #11]
 800537c:	071a      	lsls	r2, r3, #28
 800537e:	d502      	bpl.n	8005386 <protocol_execute_realtime+0x172>
 8005380:	2002      	movs	r0, #2
 8005382:	f002 f825 	bl	80073d0 <system_set_exec_state_flag>
 8005386:	2300      	movs	r3, #0
 8005388:	e7e4      	b.n	8005354 <protocol_execute_realtime+0x140>
 800538a:	4639      	mov	r1, r7
 800538c:	f005 0030 	and.w	r0, r5, #48	; 0x30
 8005390:	f001 f8e8 	bl	8006564 <spindle_set_state>
 8005394:	e7f1      	b.n	800537a <protocol_execute_realtime+0x166>
 8005396:	7923      	ldrb	r3, [r4, #4]
 8005398:	071b      	lsls	r3, r3, #28
 800539a:	f57f af7a 	bpl.w	8005292 <protocol_execute_realtime+0x7e>
 800539e:	4639      	mov	r1, r7
 80053a0:	f005 0030 	and.w	r0, r5, #48	; 0x30
 80053a4:	f001 f8de 	bl	8006564 <spindle_set_state>
 80053a8:	7923      	ldrb	r3, [r4, #4]
 80053aa:	f023 0308 	bic.w	r3, r3, #8
 80053ae:	7123      	strb	r3, [r4, #4]
 80053b0:	e76f      	b.n	8005292 <protocol_execute_realtime+0x7e>
 80053b2:	bf00      	nop
 80053b4:	200038d4 	.word	0x200038d4
 80053b8:	20003d20 	.word	0x20003d20
 80053bc:	20003f70 	.word	0x20003f70

080053c0 <protocol_main_loop>:
 80053c0:	e92d 41f0 	stmdb	sp!, {r4, r5, r6, r7, r8, lr}
 80053c4:	4b43      	ldr	r3, [pc, #268]	; (80054d4 <protocol_main_loop+0x114>)
 80053c6:	4e44      	ldr	r6, [pc, #272]	; (80054d8 <protocol_main_loop+0x118>)
 80053c8:	f893 3078 	ldrb.w	r3, [r3, #120]	; 0x78
 80053cc:	f013 0f08 	tst.w	r3, #8
 80053d0:	d007      	beq.n	80053e2 <protocol_main_loop+0x22>
 80053d2:	f7fe fb69 	bl	8003aa8 <limits_get_state>
 80053d6:	b120      	cbz	r0, 80053e2 <protocol_main_loop+0x22>
 80053d8:	2301      	movs	r3, #1
 80053da:	2007      	movs	r0, #7
 80053dc:	7033      	strb	r3, [r6, #0]
 80053de:	f000 f8ff 	bl	80055e0 <report_feedback_message>
 80053e2:	7833      	ldrb	r3, [r6, #0]
 80053e4:	f013 0381 	ands.w	r3, r3, #129	; 0x81
 80053e8:	d014      	beq.n	8005414 <protocol_main_loop+0x54>
 80053ea:	2002      	movs	r0, #2
 80053ec:	f000 f8f8 	bl	80055e0 <report_feedback_message>
 80053f0:	2301      	movs	r3, #1
 80053f2:	7033      	strb	r3, [r6, #0]
 80053f4:	2400      	movs	r4, #0
 80053f6:	4625      	mov	r5, r4
 80053f8:	4f38      	ldr	r7, [pc, #224]	; (80054dc <protocol_main_loop+0x11c>)
 80053fa:	f000 fcf5 	bl	8005de8 <serial_read>
 80053fe:	28ff      	cmp	r0, #255	; 0xff
 8005400:	d117      	bne.n	8005432 <protocol_main_loop+0x72>
 8005402:	f7ff fd49 	bl	8004e98 <protocol_auto_cycle_start>
 8005406:	f7ff ff05 	bl	8005214 <protocol_execute_realtime>
 800540a:	7873      	ldrb	r3, [r6, #1]
 800540c:	2b00      	cmp	r3, #0
 800540e:	d0f4      	beq.n	80053fa <protocol_main_loop+0x3a>
 8005410:	e8bd 81f0 	ldmia.w	sp!, {r4, r5, r6, r7, r8, pc}
 8005414:	7033      	strb	r3, [r6, #0]
 8005416:	f001 ff77 	bl	8007308 <system_check_safety_door_ajar>
 800541a:	b130      	cbz	r0, 800542a <protocol_main_loop+0x6a>
 800541c:	4a30      	ldr	r2, [pc, #192]	; (80054e0 <protocol_main_loop+0x120>)
 800541e:	7813      	ldrb	r3, [r2, #0]
 8005420:	f043 0320 	orr.w	r3, r3, #32
 8005424:	7013      	strb	r3, [r2, #0]
 8005426:	f7ff fef5 	bl	8005214 <protocol_execute_realtime>
 800542a:	482c      	ldr	r0, [pc, #176]	; (80054dc <protocol_main_loop+0x11c>)
 800542c:	f001 ff72 	bl	8007314 <system_execute_startup>
 8005430:	e7e0      	b.n	80053f4 <protocol_main_loop+0x34>
 8005432:	280a      	cmp	r0, #10
 8005434:	d001      	beq.n	800543a <protocol_main_loop+0x7a>
 8005436:	280d      	cmp	r0, #13
 8005438:	d12a      	bne.n	8005490 <protocol_main_loop+0xd0>
 800543a:	f7ff feeb 	bl	8005214 <protocol_execute_realtime>
 800543e:	f896 8001 	ldrb.w	r8, [r6, #1]
 8005442:	f1b8 0f00 	cmp.w	r8, #0
 8005446:	d1e3      	bne.n	8005410 <protocol_main_loop+0x50>
 8005448:	f015 0501 	ands.w	r5, r5, #1
 800544c:	f807 8004 	strb.w	r8, [r7, r4]
 8005450:	d005      	beq.n	800545e <protocol_main_loop+0x9e>
 8005452:	200b      	movs	r0, #11
 8005454:	f000 f89c 	bl	8005590 <report_status_message>
 8005458:	4644      	mov	r4, r8
 800545a:	4625      	mov	r5, r4
 800545c:	e7cd      	b.n	80053fa <protocol_main_loop+0x3a>
 800545e:	783c      	ldrb	r4, [r7, #0]
 8005460:	b91c      	cbnz	r4, 800546a <protocol_main_loop+0xaa>
 8005462:	4620      	mov	r0, r4
 8005464:	f000 f894 	bl	8005590 <report_status_message>
 8005468:	e7f7      	b.n	800545a <protocol_main_loop+0x9a>
 800546a:	2c24      	cmp	r4, #36	; 0x24
 800546c:	d106      	bne.n	800547c <protocol_main_loop+0xbc>
 800546e:	4638      	mov	r0, r7
 8005470:	f001 ffb8 	bl	80073e4 <system_execute_line>
 8005474:	f000 f88c 	bl	8005590 <report_status_message>
 8005478:	462c      	mov	r4, r5
 800547a:	e7ee      	b.n	800545a <protocol_main_loop+0x9a>
 800547c:	7833      	ldrb	r3, [r6, #0]
 800547e:	f013 0421 	ands.w	r4, r3, #33	; 0x21
 8005482:	d001      	beq.n	8005488 <protocol_main_loop+0xc8>
 8005484:	2009      	movs	r0, #9
 8005486:	e7f5      	b.n	8005474 <protocol_main_loop+0xb4>
 8005488:	4638      	mov	r0, r7
 800548a:	f7fd fac1 	bl	8002a10 <gc_execute_line>
 800548e:	e7e9      	b.n	8005464 <protocol_main_loop+0xa4>
 8005490:	b135      	cbz	r5, 80054a0 <protocol_main_loop+0xe0>
 8005492:	2829      	cmp	r0, #41	; 0x29
 8005494:	d1b1      	bne.n	80053fa <protocol_main_loop+0x3a>
 8005496:	07ab      	lsls	r3, r5, #30
 8005498:	d5af      	bpl.n	80053fa <protocol_main_loop+0x3a>
 800549a:	f005 05fd 	and.w	r5, r5, #253	; 0xfd
 800549e:	e7ac      	b.n	80053fa <protocol_main_loop+0x3a>
 80054a0:	2820      	cmp	r0, #32
 80054a2:	d9aa      	bls.n	80053fa <protocol_main_loop+0x3a>
 80054a4:	282f      	cmp	r0, #47	; 0x2f
 80054a6:	d0a8      	beq.n	80053fa <protocol_main_loop+0x3a>
 80054a8:	2828      	cmp	r0, #40	; 0x28
 80054aa:	d00d      	beq.n	80054c8 <protocol_main_loop+0x108>
 80054ac:	283b      	cmp	r0, #59	; 0x3b
 80054ae:	d00d      	beq.n	80054cc <protocol_main_loop+0x10c>
 80054b0:	2c4e      	cmp	r4, #78	; 0x4e
 80054b2:	d80d      	bhi.n	80054d0 <protocol_main_loop+0x110>
 80054b4:	f1a0 0361 	sub.w	r3, r0, #97	; 0x61
 80054b8:	b2db      	uxtb	r3, r3
 80054ba:	2b19      	cmp	r3, #25
 80054bc:	bf98      	it	ls
 80054be:	3820      	subls	r0, #32
 80054c0:	1c63      	adds	r3, r4, #1
 80054c2:	5538      	strb	r0, [r7, r4]
 80054c4:	b2dc      	uxtb	r4, r3
 80054c6:	e798      	b.n	80053fa <protocol_main_loop+0x3a>
 80054c8:	2502      	movs	r5, #2
 80054ca:	e796      	b.n	80053fa <protocol_main_loop+0x3a>
 80054cc:	2504      	movs	r5, #4
 80054ce:	e794      	b.n	80053fa <protocol_main_loop+0x3a>
 80054d0:	2501      	movs	r5, #1
 80054d2:	e792      	b.n	80053fa <protocol_main_loop+0x3a>
 80054d4:	20003f70 	.word	0x20003f70
 80054d8:	200038d4 	.word	0x200038d4
 80054dc:	200032d0 	.word	0x200032d0
 80054e0:	200038e9 	.word	0x200038e9

080054e4 <protocol_buffer_synchronize>:
 80054e4:	b510      	push	{r4, lr}
 80054e6:	f7ff fcd7 	bl	8004e98 <protocol_auto_cycle_start>
 80054ea:	4c06      	ldr	r4, [pc, #24]	; (8005504 <protocol_buffer_synchronize+0x20>)
 80054ec:	f7ff fe92 	bl	8005214 <protocol_execute_realtime>
 80054f0:	7863      	ldrb	r3, [r4, #1]
 80054f2:	b933      	cbnz	r3, 8005502 <protocol_buffer_synchronize+0x1e>
 80054f4:	f7ff f93a 	bl	800476c <plan_get_current_block>
 80054f8:	2800      	cmp	r0, #0
 80054fa:	d1f7      	bne.n	80054ec <protocol_buffer_synchronize+0x8>
 80054fc:	7823      	ldrb	r3, [r4, #0]
 80054fe:	2b08      	cmp	r3, #8
 8005500:	d0f4      	beq.n	80054ec <protocol_buffer_synchronize+0x8>
 8005502:	bd10      	pop	{r4, pc}
 8005504:	200038d4 	.word	0x200038d4

08005508 <report_util_line_feed>:
 8005508:	4801      	ldr	r0, [pc, #4]	; (8005510 <report_util_line_feed+0x8>)
 800550a:	f7ff bbab 	b.w	8004c64 <printString>
 800550e:	bf00      	nop
 8005510:	080099b9 	.word	0x080099b9

08005514 <report_util_feedback_line_feed>:
 8005514:	b508      	push	{r3, lr}
 8005516:	205d      	movs	r0, #93	; 0x5d
 8005518:	f000 fc63 	bl	8005de2 <serial_write>
 800551c:	e8bd 4008 	ldmia.w	sp!, {r3, lr}
 8005520:	f7ff bff2 	b.w	8005508 <report_util_line_feed>

08005524 <report_util_axis_values>:
 8005524:	b538      	push	{r3, r4, r5, lr}
 8005526:	4605      	mov	r5, r0
 8005528:	2400      	movs	r4, #0
 800552a:	f855 0024 	ldr.w	r0, [r5, r4, lsl #2]
 800552e:	f7ff fc2f 	bl	8004d90 <printFloat_CoordValue>
 8005532:	2c05      	cmp	r4, #5
 8005534:	d002      	beq.n	800553c <report_util_axis_values+0x18>
 8005536:	202c      	movs	r0, #44	; 0x2c
 8005538:	f000 fc53 	bl	8005de2 <serial_write>
 800553c:	3401      	adds	r4, #1
 800553e:	2c06      	cmp	r4, #6
 8005540:	d1f3      	bne.n	800552a <report_util_axis_values+0x6>
 8005542:	bd38      	pop	{r3, r4, r5, pc}

08005544 <report_util_setting_prefix>:
 8005544:	b510      	push	{r4, lr}
 8005546:	4604      	mov	r4, r0
 8005548:	2024      	movs	r0, #36	; 0x24
 800554a:	f000 fc4a 	bl	8005de2 <serial_write>
 800554e:	4620      	mov	r0, r4
 8005550:	f7ff fb91 	bl	8004c76 <print_uint8_base10>
 8005554:	e8bd 4010 	ldmia.w	sp!, {r4, lr}
 8005558:	203d      	movs	r0, #61	; 0x3d
 800555a:	f000 bc42 	b.w	8005de2 <serial_write>

0800555e <report_util_uint8_setting>:
 800555e:	b510      	push	{r4, lr}
 8005560:	460c      	mov	r4, r1
 8005562:	f7ff ffef 	bl	8005544 <report_util_setting_prefix>
 8005566:	b2e0      	uxtb	r0, r4
 8005568:	f7ff fb85 	bl	8004c76 <print_uint8_base10>
 800556c:	e8bd 4010 	ldmia.w	sp!, {r4, lr}
 8005570:	f7ff bfca 	b.w	8005508 <report_util_line_feed>

08005574 <report_util_float_setting>:
 8005574:	b538      	push	{r3, r4, r5, lr}
 8005576:	460c      	mov	r4, r1
 8005578:	4615      	mov	r5, r2
 800557a:	f7ff ffe3 	bl	8005544 <report_util_setting_prefix>
 800557e:	4629      	mov	r1, r5
 8005580:	4620      	mov	r0, r4
 8005582:	f7ff fba1 	bl	8004cc8 <printFloat>
 8005586:	e8bd 4038 	ldmia.w	sp!, {r3, r4, r5, lr}
 800558a:	f7ff bfbd 	b.w	8005508 <report_util_line_feed>
	...

08005590 <report_status_message>:
 8005590:	b510      	push	{r4, lr}
 8005592:	4604      	mov	r4, r0
 8005594:	b920      	cbnz	r0, 80055a0 <report_status_message+0x10>
 8005596:	e8bd 4010 	ldmia.w	sp!, {r4, lr}
 800559a:	4806      	ldr	r0, [pc, #24]	; (80055b4 <report_status_message+0x24>)
 800559c:	f7ff bb62 	b.w	8004c64 <printString>
 80055a0:	4805      	ldr	r0, [pc, #20]	; (80055b8 <report_status_message+0x28>)
 80055a2:	f7ff fb5f 	bl	8004c64 <printString>
 80055a6:	4620      	mov	r0, r4
 80055a8:	f7ff fb65 	bl	8004c76 <print_uint8_base10>
 80055ac:	e8bd 4010 	ldmia.w	sp!, {r4, lr}
 80055b0:	f7ff bfaa 	b.w	8005508 <report_util_line_feed>
 80055b4:	08009a36 	.word	0x08009a36
 80055b8:	08009a3b 	.word	0x08009a3b

080055bc <report_alarm_message>:
 80055bc:	b510      	push	{r4, lr}
 80055be:	4604      	mov	r4, r0
 80055c0:	4806      	ldr	r0, [pc, #24]	; (80055dc <report_alarm_message+0x20>)
 80055c2:	f7ff fb4f 	bl	8004c64 <printString>
 80055c6:	4620      	mov	r0, r4
 80055c8:	f7ff fb55 	bl	8004c76 <print_uint8_base10>
 80055cc:	f7ff ff9c 	bl	8005508 <report_util_line_feed>
 80055d0:	e8bd 4010 	ldmia.w	sp!, {r4, lr}
 80055d4:	f44f 70fa 	mov.w	r0, #500	; 0x1f4
 80055d8:	f7fe bf50 	b.w	800447c <delay_ms>
 80055dc:	08009874 	.word	0x08009874

080055e0 <report_feedback_message>:
 80055e0:	b510      	push	{r4, lr}
 80055e2:	4604      	mov	r4, r0
 80055e4:	4814      	ldr	r0, [pc, #80]	; (8005638 <report_feedback_message+0x58>)
 80055e6:	f7ff fb3d 	bl	8004c64 <printString>
 80055ea:	1e60      	subs	r0, r4, #1
 80055ec:	280a      	cmp	r0, #10
 80055ee:	d80a      	bhi.n	8005606 <report_feedback_message+0x26>
 80055f0:	e8df f000 	tbb	[pc, r0]
 80055f4:	110f0d06 	.word	0x110f0d06
 80055f8:	19171513 	.word	0x19171513
 80055fc:	1d1b      	.short	0x1d1b
 80055fe:	1f          	.byte	0x1f
 80055ff:	00          	.byte	0x00
 8005600:	480e      	ldr	r0, [pc, #56]	; (800563c <report_feedback_message+0x5c>)
 8005602:	f7ff fb2f 	bl	8004c64 <printString>
 8005606:	e8bd 4010 	ldmia.w	sp!, {r4, lr}
 800560a:	f7ff bf83 	b.w	8005514 <report_util_feedback_line_feed>
 800560e:	480c      	ldr	r0, [pc, #48]	; (8005640 <report_feedback_message+0x60>)
 8005610:	e7f7      	b.n	8005602 <report_feedback_message+0x22>
 8005612:	480c      	ldr	r0, [pc, #48]	; (8005644 <report_feedback_message+0x64>)
 8005614:	e7f5      	b.n	8005602 <report_feedback_message+0x22>
 8005616:	480c      	ldr	r0, [pc, #48]	; (8005648 <report_feedback_message+0x68>)
 8005618:	e7f3      	b.n	8005602 <report_feedback_message+0x22>
 800561a:	480c      	ldr	r0, [pc, #48]	; (800564c <report_feedback_message+0x6c>)
 800561c:	e7f1      	b.n	8005602 <report_feedback_message+0x22>
 800561e:	480c      	ldr	r0, [pc, #48]	; (8005650 <report_feedback_message+0x70>)
 8005620:	e7ef      	b.n	8005602 <report_feedback_message+0x22>
 8005622:	480c      	ldr	r0, [pc, #48]	; (8005654 <report_feedback_message+0x74>)
 8005624:	e7ed      	b.n	8005602 <report_feedback_message+0x22>
 8005626:	480c      	ldr	r0, [pc, #48]	; (8005658 <report_feedback_message+0x78>)
 8005628:	e7eb      	b.n	8005602 <report_feedback_message+0x22>
 800562a:	480c      	ldr	r0, [pc, #48]	; (800565c <report_feedback_message+0x7c>)
 800562c:	e7e9      	b.n	8005602 <report_feedback_message+0x22>
 800562e:	480c      	ldr	r0, [pc, #48]	; (8005660 <report_feedback_message+0x80>)
 8005630:	e7e7      	b.n	8005602 <report_feedback_message+0x22>
 8005632:	480c      	ldr	r0, [pc, #48]	; (8005664 <report_feedback_message+0x84>)
 8005634:	e7e5      	b.n	8005602 <report_feedback_message+0x22>
 8005636:	bf00      	nop
 8005638:	0800989a 	.word	0x0800989a
 800563c:	080098a0 	.word	0x080098a0
 8005640:	080098b2 	.word	0x080098b2
 8005644:	080098c6 	.word	0x080098c6
 8005648:	080098d8 	.word	0x080098d8
 800564c:	080098e0 	.word	0x080098e0
 8005650:	080098e9 	.word	0x080098e9
 8005654:	080098f4 	.word	0x080098f4
 8005658:	08009901 	.word	0x08009901
 800565c:	08009909 	.word	0x08009909
 8005660:	0800991c 	.word	0x0800991c
 8005664:	0800992e 	.word	0x0800992e

08005668 <report_init_message>:
 8005668:	4801      	ldr	r0, [pc, #4]	; (8005670 <report_init_message+0x8>)
 800566a:	f7ff bafb 	b.w	8004c64 <printString>
 800566e:	bf00      	nop
 8005670:	0800999a 	.word	0x0800999a

08005674 <report_grbl_help>:
 8005674:	4801      	ldr	r0, [pc, #4]	; (800567c <report_grbl_help+0x8>)
 8005676:	f7ff baf5 	b.w	8004c64 <printString>
 800567a:	bf00      	nop
 800567c:	08009950 	.word	0x08009950

08005680 <report_grbl_settings>:
 8005680:	e92d 47f0 	stmdb	sp!, {r4, r5, r6, r7, r8, r9, sl, lr}
 8005684:	4c5c      	ldr	r4, [pc, #368]	; (80057f8 <report_grbl_settings+0x178>)
 8005686:	2203      	movs	r2, #3
 8005688:	6e21      	ldr	r1, [r4, #96]	; 0x60
 800568a:	2000      	movs	r0, #0
 800568c:	f7ff ff72 	bl	8005574 <report_util_float_setting>
 8005690:	f894 1066 	ldrb.w	r1, [r4, #102]	; 0x66
 8005694:	2001      	movs	r0, #1
 8005696:	f7ff ff62 	bl	800555e <report_util_uint8_setting>
 800569a:	f894 1064 	ldrb.w	r1, [r4, #100]	; 0x64
 800569e:	2002      	movs	r0, #2
 80056a0:	f7ff ff5d 	bl	800555e <report_util_uint8_setting>
 80056a4:	f894 1065 	ldrb.w	r1, [r4, #101]	; 0x65
 80056a8:	2003      	movs	r0, #3
 80056aa:	f7ff ff58 	bl	800555e <report_util_uint8_setting>
 80056ae:	f894 1078 	ldrb.w	r1, [r4, #120]	; 0x78
 80056b2:	2004      	movs	r0, #4
 80056b4:	f3c1 0180 	ubfx	r1, r1, #2, #1
 80056b8:	f7ff ff51 	bl	800555e <report_util_uint8_setting>
 80056bc:	f894 1078 	ldrb.w	r1, [r4, #120]	; 0x78
 80056c0:	2005      	movs	r0, #5
 80056c2:	f3c1 1180 	ubfx	r1, r1, #6, #1
 80056c6:	f7ff ff4a 	bl	800555e <report_util_uint8_setting>
 80056ca:	f994 1078 	ldrsb.w	r1, [r4, #120]	; 0x78
 80056ce:	2006      	movs	r0, #6
 80056d0:	0fc9      	lsrs	r1, r1, #31
 80056d2:	f7ff ff44 	bl	800555e <report_util_uint8_setting>
 80056d6:	f894 1067 	ldrb.w	r1, [r4, #103]	; 0x67
 80056da:	200a      	movs	r0, #10
 80056dc:	f7ff ff3f 	bl	800555e <report_util_uint8_setting>
 80056e0:	2203      	movs	r2, #3
 80056e2:	6ea1      	ldr	r1, [r4, #104]	; 0x68
 80056e4:	200b      	movs	r0, #11
 80056e6:	f7ff ff45 	bl	8005574 <report_util_float_setting>
 80056ea:	2203      	movs	r2, #3
 80056ec:	6ee1      	ldr	r1, [r4, #108]	; 0x6c
 80056ee:	200c      	movs	r0, #12
 80056f0:	f7ff ff40 	bl	8005574 <report_util_float_setting>
 80056f4:	f894 1078 	ldrb.w	r1, [r4, #120]	; 0x78
 80056f8:	200d      	movs	r0, #13
 80056fa:	f001 0101 	and.w	r1, r1, #1
 80056fe:	f7ff ff2e 	bl	800555e <report_util_uint8_setting>
 8005702:	f894 1078 	ldrb.w	r1, [r4, #120]	; 0x78
 8005706:	2014      	movs	r0, #20
 8005708:	f3c1 1140 	ubfx	r1, r1, #5, #1
 800570c:	f7ff ff27 	bl	800555e <report_util_uint8_setting>
 8005710:	f894 1078 	ldrb.w	r1, [r4, #120]	; 0x78
 8005714:	2015      	movs	r0, #21
 8005716:	f3c1 01c0 	ubfx	r1, r1, #3, #1
 800571a:	f7ff ff20 	bl	800555e <report_util_uint8_setting>
 800571e:	f894 1078 	ldrb.w	r1, [r4, #120]	; 0x78
 8005722:	2016      	movs	r0, #22
 8005724:	f3c1 1100 	ubfx	r1, r1, #4, #1
 8005728:	f7ff ff19 	bl	800555e <report_util_uint8_setting>
 800572c:	f894 1079 	ldrb.w	r1, [r4, #121]	; 0x79
 8005730:	2017      	movs	r0, #23
 8005732:	f7ff ff14 	bl	800555e <report_util_uint8_setting>
 8005736:	2203      	movs	r2, #3
 8005738:	6fe1      	ldr	r1, [r4, #124]	; 0x7c
 800573a:	2018      	movs	r0, #24
 800573c:	f7ff ff1a 	bl	8005574 <report_util_float_setting>
 8005740:	2203      	movs	r2, #3
 8005742:	f8d4 1080 	ldr.w	r1, [r4, #128]	; 0x80
 8005746:	2019      	movs	r0, #25
 8005748:	f7ff ff14 	bl	8005574 <report_util_float_setting>
 800574c:	f8b4 1084 	ldrh.w	r1, [r4, #132]	; 0x84
 8005750:	201a      	movs	r0, #26
 8005752:	f7ff ff04 	bl	800555e <report_util_uint8_setting>
 8005756:	2203      	movs	r2, #3
 8005758:	f8d4 1088 	ldr.w	r1, [r4, #136]	; 0x88
 800575c:	201b      	movs	r0, #27
 800575e:	f7ff ff09 	bl	8005574 <report_util_float_setting>
 8005762:	2200      	movs	r2, #0
 8005764:	6f21      	ldr	r1, [r4, #112]	; 0x70
 8005766:	201e      	movs	r0, #30
 8005768:	f7ff ff04 	bl	8005574 <report_util_float_setting>
 800576c:	2200      	movs	r2, #0
 800576e:	6f61      	ldr	r1, [r4, #116]	; 0x74
 8005770:	201f      	movs	r0, #31
 8005772:	f7ff feff 	bl	8005574 <report_util_float_setting>
 8005776:	f894 1078 	ldrb.w	r1, [r4, #120]	; 0x78
 800577a:	2020      	movs	r0, #32
 800577c:	f3c1 0140 	ubfx	r1, r1, #1, #1
 8005780:	f7ff feed 	bl	800555e <report_util_uint8_setting>
 8005784:	2203      	movs	r2, #3
 8005786:	f8d4 108c 	ldr.w	r1, [r4, #140]	; 0x8c
 800578a:	2028      	movs	r0, #40	; 0x28
 800578c:	f7ff fef2 	bl	8005574 <report_util_float_setting>
 8005790:	f04f 0900 	mov.w	r9, #0
 8005794:	2564      	movs	r5, #100	; 0x64
 8005796:	f8df a064 	ldr.w	sl, [pc, #100]	; 80057fc <report_grbl_settings+0x17c>
 800579a:	462c      	mov	r4, r5
 800579c:	f105 0806 	add.w	r8, r5, #6
 80057a0:	4e15      	ldr	r6, [pc, #84]	; (80057f8 <report_grbl_settings+0x178>)
 80057a2:	fa5f f789 	uxtb.w	r7, r9
 80057a6:	fa5f f888 	uxtb.w	r8, r8
 80057aa:	2f02      	cmp	r7, #2
 80057ac:	d017      	beq.n	80057de <report_grbl_settings+0x15e>
 80057ae:	2f03      	cmp	r7, #3
 80057b0:	d01c      	beq.n	80057ec <report_grbl_settings+0x16c>
 80057b2:	2203      	movs	r2, #3
 80057b4:	2f01      	cmp	r7, #1
 80057b6:	bf14      	ite	ne
 80057b8:	6831      	ldrne	r1, [r6, #0]
 80057ba:	69b1      	ldreq	r1, [r6, #24]
 80057bc:	4620      	mov	r0, r4
 80057be:	3401      	adds	r4, #1
 80057c0:	b2e4      	uxtb	r4, r4
 80057c2:	f7ff fed7 	bl	8005574 <report_util_float_setting>
 80057c6:	4544      	cmp	r4, r8
 80057c8:	f106 0604 	add.w	r6, r6, #4
 80057cc:	d1ed      	bne.n	80057aa <report_grbl_settings+0x12a>
 80057ce:	350a      	adds	r5, #10
 80057d0:	b2ed      	uxtb	r5, r5
 80057d2:	2d8c      	cmp	r5, #140	; 0x8c
 80057d4:	f109 0901 	add.w	r9, r9, #1
 80057d8:	d1df      	bne.n	800579a <report_grbl_settings+0x11a>
 80057da:	e8bd 87f0 	ldmia.w	sp!, {r4, r5, r6, r7, r8, r9, sl, pc}
 80057de:	4651      	mov	r1, sl
 80057e0:	6b30      	ldr	r0, [r6, #48]	; 0x30
 80057e2:	f7fb fb83 	bl	8000eec <__aeabi_fdiv>
 80057e6:	2203      	movs	r2, #3
 80057e8:	4601      	mov	r1, r0
 80057ea:	e7e7      	b.n	80057bc <report_grbl_settings+0x13c>
 80057ec:	6cb1      	ldr	r1, [r6, #72]	; 0x48
 80057ee:	463a      	mov	r2, r7
 80057f0:	f101 4100 	add.w	r1, r1, #2147483648	; 0x80000000
 80057f4:	e7e2      	b.n	80057bc <report_grbl_settings+0x13c>
 80057f6:	bf00      	nop
 80057f8:	20003f70 	.word	0x20003f70
 80057fc:	45610000 	.word	0x45610000

08005800 <report_probe_parameters>:
 8005800:	b57f      	push	{r0, r1, r2, r3, r4, r5, r6, lr}
 8005802:	480b      	ldr	r0, [pc, #44]	; (8005830 <report_probe_parameters+0x30>)
 8005804:	f7ff fa2e 	bl	8004c64 <printString>
 8005808:	490a      	ldr	r1, [pc, #40]	; (8005834 <report_probe_parameters+0x34>)
 800580a:	4668      	mov	r0, sp
 800580c:	f001 fdb4 	bl	8007378 <system_convert_array_steps_to_mpos>
 8005810:	4668      	mov	r0, sp
 8005812:	f7ff fe87 	bl	8005524 <report_util_axis_values>
 8005816:	203a      	movs	r0, #58	; 0x3a
 8005818:	f000 fae3 	bl	8005de2 <serial_write>
 800581c:	4b06      	ldr	r3, [pc, #24]	; (8005838 <report_probe_parameters+0x38>)
 800581e:	7958      	ldrb	r0, [r3, #5]
 8005820:	f7ff fa29 	bl	8004c76 <print_uint8_base10>
 8005824:	f7ff fe76 	bl	8005514 <report_util_feedback_line_feed>
 8005828:	b007      	add	sp, #28
 800582a:	f85d fb04 	ldr.w	pc, [sp], #4
 800582e:	bf00      	nop
 8005830:	080099d1 	.word	0x080099d1
 8005834:	200038ec 	.word	0x200038ec
 8005838:	200038d4 	.word	0x200038d4

0800583c <report_ngc_parameters>:
 800583c:	e92d 41f0 	stmdb	sp!, {r4, r5, r6, r7, r8, lr}
 8005840:	2500      	movs	r5, #0
 8005842:	4e23      	ldr	r6, [pc, #140]	; (80058d0 <report_ngc_parameters+0x94>)
 8005844:	4f23      	ldr	r7, [pc, #140]	; (80058d4 <report_ngc_parameters+0x98>)
 8005846:	f8df 80a4 	ldr.w	r8, [pc, #164]	; 80058ec <report_ngc_parameters+0xb0>
 800584a:	b086      	sub	sp, #24
 800584c:	b2ec      	uxtb	r4, r5
 800584e:	4669      	mov	r1, sp
 8005850:	4620      	mov	r0, r4
 8005852:	f000 fc4e 	bl	80060f2 <settings_read_coord_data>
 8005856:	b950      	cbnz	r0, 800586e <report_ngc_parameters+0x32>
 8005858:	481f      	ldr	r0, [pc, #124]	; (80058d8 <report_ngc_parameters+0x9c>)
 800585a:	f7ff fa03 	bl	8004c64 <printString>
 800585e:	2007      	movs	r0, #7
 8005860:	f7ff fa09 	bl	8004c76 <print_uint8_base10>
 8005864:	f7ff fe50 	bl	8005508 <report_util_line_feed>
 8005868:	b006      	add	sp, #24
 800586a:	e8bd 81f0 	ldmia.w	sp!, {r4, r5, r6, r7, r8, pc}
 800586e:	4630      	mov	r0, r6
 8005870:	f7ff f9f8 	bl	8004c64 <printString>
 8005874:	2c06      	cmp	r4, #6
 8005876:	d007      	beq.n	8005888 <report_ngc_parameters+0x4c>
 8005878:	2c07      	cmp	r4, #7
 800587a:	d027      	beq.n	80058cc <report_ngc_parameters+0x90>
 800587c:	f104 0036 	add.w	r0, r4, #54	; 0x36
 8005880:	b2c0      	uxtb	r0, r0
 8005882:	f7ff f9f8 	bl	8004c76 <print_uint8_base10>
 8005886:	e002      	b.n	800588e <report_ngc_parameters+0x52>
 8005888:	4638      	mov	r0, r7
 800588a:	f7ff f9eb 	bl	8004c64 <printString>
 800588e:	203a      	movs	r0, #58	; 0x3a
 8005890:	f000 faa7 	bl	8005de2 <serial_write>
 8005894:	3501      	adds	r5, #1
 8005896:	4668      	mov	r0, sp
 8005898:	f7ff fe44 	bl	8005524 <report_util_axis_values>
 800589c:	f7ff fe3a 	bl	8005514 <report_util_feedback_line_feed>
 80058a0:	2d08      	cmp	r5, #8
 80058a2:	d1d3      	bne.n	800584c <report_ngc_parameters+0x10>
 80058a4:	480d      	ldr	r0, [pc, #52]	; (80058dc <report_ngc_parameters+0xa0>)
 80058a6:	f7ff f9dd 	bl	8004c64 <printString>
 80058aa:	480d      	ldr	r0, [pc, #52]	; (80058e0 <report_ngc_parameters+0xa4>)
 80058ac:	f7ff fe3a 	bl	8005524 <report_util_axis_values>
 80058b0:	f7ff fe30 	bl	8005514 <report_util_feedback_line_feed>
 80058b4:	480b      	ldr	r0, [pc, #44]	; (80058e4 <report_ngc_parameters+0xa8>)
 80058b6:	f7ff f9d5 	bl	8004c64 <printString>
 80058ba:	4b0b      	ldr	r3, [pc, #44]	; (80058e8 <report_ngc_parameters+0xac>)
 80058bc:	6e98      	ldr	r0, [r3, #104]	; 0x68
 80058be:	f7ff fa67 	bl	8004d90 <printFloat_CoordValue>
 80058c2:	f7ff fe27 	bl	8005514 <report_util_feedback_line_feed>
 80058c6:	f7ff ff9b 	bl	8005800 <report_probe_parameters>
 80058ca:	e7cd      	b.n	8005868 <report_ngc_parameters+0x2c>
 80058cc:	4640      	mov	r0, r8
 80058ce:	e7dc      	b.n	800588a <report_ngc_parameters+0x4e>
 80058d0:	080099bc 	.word	0x080099bc
 80058d4:	080099bf 	.word	0x080099bf
 80058d8:	08009a3b 	.word	0x08009a3b
 80058dc:	080099c5 	.word	0x080099c5
 80058e0:	20003d70 	.word	0x20003d70
 80058e4:	080099cb 	.word	0x080099cb
 80058e8:	20003d20 	.word	0x20003d20
 80058ec:	080099c2 	.word	0x080099c2

080058f0 <report_gcode_modes>:
 80058f0:	b510      	push	{r4, lr}
 80058f2:	4c45      	ldr	r4, [pc, #276]	; (8005a08 <report_gcode_modes+0x118>)
 80058f4:	4845      	ldr	r0, [pc, #276]	; (8005a0c <report_gcode_modes+0x11c>)
 80058f6:	f7ff f9b5 	bl	8004c64 <printString>
 80058fa:	7820      	ldrb	r0, [r4, #0]
 80058fc:	288b      	cmp	r0, #139	; 0x8b
 80058fe:	d905      	bls.n	800590c <report_gcode_modes+0x1c>
 8005900:	4843      	ldr	r0, [pc, #268]	; (8005a10 <report_gcode_modes+0x120>)
 8005902:	f7ff f9af 	bl	8004c64 <printString>
 8005906:	7820      	ldrb	r0, [r4, #0]
 8005908:	3076      	adds	r0, #118	; 0x76
 800590a:	b2c0      	uxtb	r0, r0
 800590c:	f7ff f9b3 	bl	8004c76 <print_uint8_base10>
 8005910:	4840      	ldr	r0, [pc, #256]	; (8005a14 <report_gcode_modes+0x124>)
 8005912:	f7ff f9a7 	bl	8004c64 <printString>
 8005916:	79a0      	ldrb	r0, [r4, #6]
 8005918:	3036      	adds	r0, #54	; 0x36
 800591a:	b2c0      	uxtb	r0, r0
 800591c:	f7ff f9ab 	bl	8004c76 <print_uint8_base10>
 8005920:	483c      	ldr	r0, [pc, #240]	; (8005a14 <report_gcode_modes+0x124>)
 8005922:	f7ff f99f 	bl	8004c64 <printString>
 8005926:	7920      	ldrb	r0, [r4, #4]
 8005928:	3011      	adds	r0, #17
 800592a:	b2c0      	uxtb	r0, r0
 800592c:	f7ff f9a3 	bl	8004c76 <print_uint8_base10>
 8005930:	4838      	ldr	r0, [pc, #224]	; (8005a14 <report_gcode_modes+0x124>)
 8005932:	f7ff f997 	bl	8004c64 <printString>
 8005936:	78a0      	ldrb	r0, [r4, #2]
 8005938:	f1c0 0015 	rsb	r0, r0, #21
 800593c:	b2c0      	uxtb	r0, r0
 800593e:	f7ff f99a 	bl	8004c76 <print_uint8_base10>
 8005942:	4834      	ldr	r0, [pc, #208]	; (8005a14 <report_gcode_modes+0x124>)
 8005944:	f7ff f98e 	bl	8004c64 <printString>
 8005948:	78e0      	ldrb	r0, [r4, #3]
 800594a:	305a      	adds	r0, #90	; 0x5a
 800594c:	b2c0      	uxtb	r0, r0
 800594e:	f7ff f992 	bl	8004c76 <print_uint8_base10>
 8005952:	4830      	ldr	r0, [pc, #192]	; (8005a14 <report_gcode_modes+0x124>)
 8005954:	f7ff f986 	bl	8004c64 <printString>
 8005958:	7860      	ldrb	r0, [r4, #1]
 800595a:	f1c0 005e 	rsb	r0, r0, #94	; 0x5e
 800595e:	b2c0      	uxtb	r0, r0
 8005960:	f7ff f989 	bl	8004c76 <print_uint8_base10>
 8005964:	79e3      	ldrb	r3, [r4, #7]
 8005966:	b17b      	cbz	r3, 8005988 <report_gcode_modes+0x98>
 8005968:	482b      	ldr	r0, [pc, #172]	; (8005a18 <report_gcode_modes+0x128>)
 800596a:	f7ff f97b 	bl	8004c64 <printString>
 800596e:	79e0      	ldrb	r0, [r4, #7]
 8005970:	2803      	cmp	r0, #3
 8005972:	d006      	beq.n	8005982 <report_gcode_modes+0x92>
 8005974:	281e      	cmp	r0, #30
 8005976:	d001      	beq.n	800597c <report_gcode_modes+0x8c>
 8005978:	2802      	cmp	r0, #2
 800597a:	d105      	bne.n	8005988 <report_gcode_modes+0x98>
 800597c:	f7ff f97b 	bl	8004c76 <print_uint8_base10>
 8005980:	e002      	b.n	8005988 <report_gcode_modes+0x98>
 8005982:	2030      	movs	r0, #48	; 0x30
 8005984:	f000 fa2d 	bl	8005de2 <serial_write>
 8005988:	4823      	ldr	r0, [pc, #140]	; (8005a18 <report_gcode_modes+0x128>)
 800598a:	f7ff f96b 	bl	8004c64 <printString>
 800598e:	7a63      	ldrb	r3, [r4, #9]
 8005990:	2b10      	cmp	r3, #16
 8005992:	d004      	beq.n	800599e <report_gcode_modes+0xae>
 8005994:	2b20      	cmp	r3, #32
 8005996:	d02f      	beq.n	80059f8 <report_gcode_modes+0x108>
 8005998:	b923      	cbnz	r3, 80059a4 <report_gcode_modes+0xb4>
 800599a:	2035      	movs	r0, #53	; 0x35
 800599c:	e000      	b.n	80059a0 <report_gcode_modes+0xb0>
 800599e:	2033      	movs	r0, #51	; 0x33
 80059a0:	f000 fa1f 	bl	8005de2 <serial_write>
 80059a4:	7a23      	ldrb	r3, [r4, #8]
 80059a6:	b34b      	cbz	r3, 80059fc <report_gcode_modes+0x10c>
 80059a8:	061a      	lsls	r2, r3, #24
 80059aa:	d505      	bpl.n	80059b8 <report_gcode_modes+0xc8>
 80059ac:	481a      	ldr	r0, [pc, #104]	; (8005a18 <report_gcode_modes+0x128>)
 80059ae:	f7ff f959 	bl	8004c64 <printString>
 80059b2:	2037      	movs	r0, #55	; 0x37
 80059b4:	f000 fa15 	bl	8005de2 <serial_write>
 80059b8:	7a23      	ldrb	r3, [r4, #8]
 80059ba:	065b      	lsls	r3, r3, #25
 80059bc:	d505      	bpl.n	80059ca <report_gcode_modes+0xda>
 80059be:	4816      	ldr	r0, [pc, #88]	; (8005a18 <report_gcode_modes+0x128>)
 80059c0:	f7ff f950 	bl	8004c64 <printString>
 80059c4:	2038      	movs	r0, #56	; 0x38
 80059c6:	f000 fa0c 	bl	8005de2 <serial_write>
 80059ca:	4814      	ldr	r0, [pc, #80]	; (8005a1c <report_gcode_modes+0x12c>)
 80059cc:	f7ff f94a 	bl	8004c64 <printString>
 80059d0:	7e20      	ldrb	r0, [r4, #24]
 80059d2:	f7ff f950 	bl	8004c76 <print_uint8_base10>
 80059d6:	4812      	ldr	r0, [pc, #72]	; (8005a20 <report_gcode_modes+0x130>)
 80059d8:	f7ff f944 	bl	8004c64 <printString>
 80059dc:	6960      	ldr	r0, [r4, #20]
 80059de:	f7ff f9f7 	bl	8004dd0 <printFloat_RateValue>
 80059e2:	4810      	ldr	r0, [pc, #64]	; (8005a24 <report_gcode_modes+0x134>)
 80059e4:	f7ff f93e 	bl	8004c64 <printString>
 80059e8:	6920      	ldr	r0, [r4, #16]
 80059ea:	2100      	movs	r1, #0
 80059ec:	f7ff f96c 	bl	8004cc8 <printFloat>
 80059f0:	e8bd 4010 	ldmia.w	sp!, {r4, lr}
 80059f4:	f7ff bd8e 	b.w	8005514 <report_util_feedback_line_feed>
 80059f8:	2034      	movs	r0, #52	; 0x34
 80059fa:	e7d1      	b.n	80059a0 <report_gcode_modes+0xb0>
 80059fc:	4806      	ldr	r0, [pc, #24]	; (8005a18 <report_gcode_modes+0x128>)
 80059fe:	f7ff f931 	bl	8004c64 <printString>
 8005a02:	2039      	movs	r0, #57	; 0x39
 8005a04:	e7df      	b.n	80059c6 <report_gcode_modes+0xd6>
 8005a06:	bf00      	nop
 8005a08:	20003d20 	.word	0x20003d20
 8005a0c:	08009937 	.word	0x08009937
 8005a10:	0800993d 	.word	0x0800993d
 8005a14:	08009941 	.word	0x08009941
 8005a18:	08009944 	.word	0x08009944
 8005a1c:	08009947 	.word	0x08009947
 8005a20:	0800994a 	.word	0x0800994a
 8005a24:	0800994d 	.word	0x0800994d

08005a28 <report_startup_line>:
 8005a28:	b538      	push	{r3, r4, r5, lr}
 8005a2a:	4605      	mov	r5, r0
 8005a2c:	460c      	mov	r4, r1
 8005a2e:	4808      	ldr	r0, [pc, #32]	; (8005a50 <report_startup_line+0x28>)
 8005a30:	f7ff f918 	bl	8004c64 <printString>
 8005a34:	4628      	mov	r0, r5
 8005a36:	f7ff f91e 	bl	8004c76 <print_uint8_base10>
 8005a3a:	203d      	movs	r0, #61	; 0x3d
 8005a3c:	f000 f9d1 	bl	8005de2 <serial_write>
 8005a40:	4620      	mov	r0, r4
 8005a42:	f7ff f90f 	bl	8004c64 <printString>
 8005a46:	e8bd 4038 	ldmia.w	sp!, {r3, r4, r5, lr}
 8005a4a:	f7ff bd5d 	b.w	8005508 <report_util_line_feed>
 8005a4e:	bf00      	nop
 8005a50:	08009a33 	.word	0x08009a33

08005a54 <report_execute_startup_message>:
 8005a54:	b538      	push	{r3, r4, r5, lr}
 8005a56:	4605      	mov	r5, r0
 8005a58:	460c      	mov	r4, r1
 8005a5a:	203e      	movs	r0, #62	; 0x3e
 8005a5c:	f000 f9c1 	bl	8005de2 <serial_write>
 8005a60:	4628      	mov	r0, r5
 8005a62:	f7ff f8ff 	bl	8004c64 <printString>
 8005a66:	203a      	movs	r0, #58	; 0x3a
 8005a68:	f000 f9bb 	bl	8005de2 <serial_write>
 8005a6c:	4620      	mov	r0, r4
 8005a6e:	e8bd 4038 	ldmia.w	sp!, {r3, r4, r5, lr}
 8005a72:	f7ff bd8d 	b.w	8005590 <report_status_message>
	...

08005a78 <report_build_info>:
 8005a78:	b510      	push	{r4, lr}
 8005a7a:	4604      	mov	r4, r0
 8005a7c:	4811      	ldr	r0, [pc, #68]	; (8005ac4 <report_build_info+0x4c>)
 8005a7e:	f7ff f8f1 	bl	8004c64 <printString>
 8005a82:	4620      	mov	r0, r4
 8005a84:	f7ff f8ee 	bl	8004c64 <printString>
 8005a88:	f7ff fd44 	bl	8005514 <report_util_feedback_line_feed>
 8005a8c:	480e      	ldr	r0, [pc, #56]	; (8005ac8 <report_build_info+0x50>)
 8005a8e:	f7ff f8e9 	bl	8004c64 <printString>
 8005a92:	2056      	movs	r0, #86	; 0x56
 8005a94:	f000 f9a5 	bl	8005de2 <serial_write>
 8005a98:	204d      	movs	r0, #77	; 0x4d
 8005a9a:	f000 f9a2 	bl	8005de2 <serial_write>
 8005a9e:	2048      	movs	r0, #72	; 0x48
 8005aa0:	f000 f99f 	bl	8005de2 <serial_write>
 8005aa4:	202c      	movs	r0, #44	; 0x2c
 8005aa6:	f000 f99c 	bl	8005de2 <serial_write>
 8005aaa:	20c7      	movs	r0, #199	; 0xc7
 8005aac:	f7ff f8e3 	bl	8004c76 <print_uint8_base10>
 8005ab0:	202c      	movs	r0, #44	; 0x2c
 8005ab2:	f000 f996 	bl	8005de2 <serial_write>
 8005ab6:	20fe      	movs	r0, #254	; 0xfe
 8005ab8:	f7ff f8dd 	bl	8004c76 <print_uint8_base10>
 8005abc:	e8bd 4010 	ldmia.w	sp!, {r4, lr}
 8005ac0:	f7ff bd28 	b.w	8005514 <report_util_feedback_line_feed>
 8005ac4:	0800987b 	.word	0x0800987b
 8005ac8:	08009894 	.word	0x08009894

08005acc <report_realtime_status>:
 8005acc:	e92d 4ff0 	stmdb	sp!, {r4, r5, r6, r7, r8, r9, sl, fp, lr}
 8005ad0:	b093      	sub	sp, #76	; 0x4c
 8005ad2:	466c      	mov	r4, sp
 8005ad4:	4da4      	ldr	r5, [pc, #656]	; (8005d68 <report_realtime_status+0x29c>)
 8005ad6:	f10d 0918 	add.w	r9, sp, #24
 8005ada:	cd0f      	ldmia	r5!, {r0, r1, r2, r3}
 8005adc:	c40f      	stmia	r4!, {r0, r1, r2, r3}
 8005ade:	e895 0003 	ldmia.w	r5, {r0, r1}
 8005ae2:	e884 0003 	stmia.w	r4, {r0, r1}
 8005ae6:	4669      	mov	r1, sp
 8005ae8:	4648      	mov	r0, r9
 8005aea:	4ca0      	ldr	r4, [pc, #640]	; (8005d6c <report_realtime_status+0x2a0>)
 8005aec:	f001 fc44 	bl	8007378 <system_convert_array_steps_to_mpos>
 8005af0:	203c      	movs	r0, #60	; 0x3c
 8005af2:	f000 f976 	bl	8005de2 <serial_write>
 8005af6:	7823      	ldrb	r3, [r4, #0]
 8005af8:	2b08      	cmp	r3, #8
 8005afa:	d04f      	beq.n	8005b9c <report_realtime_status+0xd0>
 8005afc:	d831      	bhi.n	8005b62 <report_realtime_status+0x96>
 8005afe:	2b01      	cmp	r3, #1
 8005b00:	d052      	beq.n	8005ba8 <report_realtime_status+0xdc>
 8005b02:	d347      	bcc.n	8005b94 <report_realtime_status+0xc8>
 8005b04:	2b02      	cmp	r3, #2
 8005b06:	d051      	beq.n	8005bac <report_realtime_status+0xe0>
 8005b08:	2b04      	cmp	r3, #4
 8005b0a:	d04b      	beq.n	8005ba4 <report_realtime_status+0xd8>
 8005b0c:	4b98      	ldr	r3, [pc, #608]	; (8005d70 <report_realtime_status+0x2a4>)
 8005b0e:	f893 7067 	ldrb.w	r7, [r3, #103]	; 0x67
 8005b12:	4698      	mov	r8, r3
 8005b14:	f017 0701 	ands.w	r7, r7, #1
 8005b18:	d15a      	bne.n	8005bd0 <report_realtime_status+0x104>
 8005b1a:	2500      	movs	r5, #0
 8005b1c:	4e95      	ldr	r6, [pc, #596]	; (8005d74 <report_realtime_status+0x2a8>)
 8005b1e:	f10d 0b30 	add.w	fp, sp, #48	; 0x30
 8005b22:	f8d6 a068 	ldr.w	sl, [r6, #104]	; 0x68
 8005b26:	3634      	adds	r6, #52	; 0x34
 8005b28:	3604      	adds	r6, #4
 8005b2a:	69b1      	ldr	r1, [r6, #24]
 8005b2c:	6830      	ldr	r0, [r6, #0]
 8005b2e:	f7fb f821 	bl	8000b74 <__addsf3>
 8005b32:	2d02      	cmp	r5, #2
 8005b34:	f84b 0025 	str.w	r0, [fp, r5, lsl #2]
 8005b38:	d103      	bne.n	8005b42 <report_realtime_status+0x76>
 8005b3a:	4651      	mov	r1, sl
 8005b3c:	f7fb f81a 	bl	8000b74 <__addsf3>
 8005b40:	900e      	str	r0, [sp, #56]	; 0x38
 8005b42:	b93f      	cbnz	r7, 8005b54 <report_realtime_status+0x88>
 8005b44:	f859 0025 	ldr.w	r0, [r9, r5, lsl #2]
 8005b48:	f85b 1025 	ldr.w	r1, [fp, r5, lsl #2]
 8005b4c:	f7fb f810 	bl	8000b70 <__aeabi_fsub>
 8005b50:	f849 0025 	str.w	r0, [r9, r5, lsl #2]
 8005b54:	3501      	adds	r5, #1
 8005b56:	2d06      	cmp	r5, #6
 8005b58:	d1e6      	bne.n	8005b28 <report_realtime_status+0x5c>
 8005b5a:	2f00      	cmp	r7, #0
 8005b5c:	d13b      	bne.n	8005bd6 <report_realtime_status+0x10a>
 8005b5e:	4886      	ldr	r0, [pc, #536]	; (8005d78 <report_realtime_status+0x2ac>)
 8005b60:	e03a      	b.n	8005bd8 <report_realtime_status+0x10c>
 8005b62:	2b20      	cmp	r3, #32
 8005b64:	d01c      	beq.n	8005ba0 <report_realtime_status+0xd4>
 8005b66:	d80f      	bhi.n	8005b88 <report_realtime_status+0xbc>
 8005b68:	2b10      	cmp	r3, #16
 8005b6a:	d1cf      	bne.n	8005b0c <report_realtime_status+0x40>
 8005b6c:	f994 3002 	ldrsb.w	r3, [r4, #2]
 8005b70:	2b00      	cmp	r3, #0
 8005b72:	dbcb      	blt.n	8005b0c <report_realtime_status+0x40>
 8005b74:	4881      	ldr	r0, [pc, #516]	; (8005d7c <report_realtime_status+0x2b0>)
 8005b76:	f7ff f875 	bl	8004c64 <printString>
 8005b7a:	78a3      	ldrb	r3, [r4, #2]
 8005b7c:	07de      	lsls	r6, r3, #31
 8005b7e:	d523      	bpl.n	8005bc8 <report_realtime_status+0xfc>
 8005b80:	2030      	movs	r0, #48	; 0x30
 8005b82:	f000 f92e 	bl	8005de2 <serial_write>
 8005b86:	e7c1      	b.n	8005b0c <report_realtime_status+0x40>
 8005b88:	2b40      	cmp	r3, #64	; 0x40
 8005b8a:	d011      	beq.n	8005bb0 <report_realtime_status+0xe4>
 8005b8c:	2b80      	cmp	r3, #128	; 0x80
 8005b8e:	d1bd      	bne.n	8005b0c <report_realtime_status+0x40>
 8005b90:	487b      	ldr	r0, [pc, #492]	; (8005d80 <report_realtime_status+0x2b4>)
 8005b92:	e000      	b.n	8005b96 <report_realtime_status+0xca>
 8005b94:	487b      	ldr	r0, [pc, #492]	; (8005d84 <report_realtime_status+0x2b8>)
 8005b96:	f7ff f865 	bl	8004c64 <printString>
 8005b9a:	e7b7      	b.n	8005b0c <report_realtime_status+0x40>
 8005b9c:	487a      	ldr	r0, [pc, #488]	; (8005d88 <report_realtime_status+0x2bc>)
 8005b9e:	e7fa      	b.n	8005b96 <report_realtime_status+0xca>
 8005ba0:	487a      	ldr	r0, [pc, #488]	; (8005d8c <report_realtime_status+0x2c0>)
 8005ba2:	e7f8      	b.n	8005b96 <report_realtime_status+0xca>
 8005ba4:	487a      	ldr	r0, [pc, #488]	; (8005d90 <report_realtime_status+0x2c4>)
 8005ba6:	e7f6      	b.n	8005b96 <report_realtime_status+0xca>
 8005ba8:	487a      	ldr	r0, [pc, #488]	; (8005d94 <report_realtime_status+0x2c8>)
 8005baa:	e7f4      	b.n	8005b96 <report_realtime_status+0xca>
 8005bac:	487a      	ldr	r0, [pc, #488]	; (8005d98 <report_realtime_status+0x2cc>)
 8005bae:	e7f2      	b.n	8005b96 <report_realtime_status+0xca>
 8005bb0:	487a      	ldr	r0, [pc, #488]	; (8005d9c <report_realtime_status+0x2d0>)
 8005bb2:	f7ff f857 	bl	8004c64 <printString>
 8005bb6:	78a3      	ldrb	r3, [r4, #2]
 8005bb8:	071d      	lsls	r5, r3, #28
 8005bba:	d501      	bpl.n	8005bc0 <report_realtime_status+0xf4>
 8005bbc:	2033      	movs	r0, #51	; 0x33
 8005bbe:	e7e0      	b.n	8005b82 <report_realtime_status+0xb6>
 8005bc0:	0758      	lsls	r0, r3, #29
 8005bc2:	d503      	bpl.n	8005bcc <report_realtime_status+0x100>
 8005bc4:	0699      	lsls	r1, r3, #26
 8005bc6:	d5db      	bpl.n	8005b80 <report_realtime_status+0xb4>
 8005bc8:	2031      	movs	r0, #49	; 0x31
 8005bca:	e7da      	b.n	8005b82 <report_realtime_status+0xb6>
 8005bcc:	2032      	movs	r0, #50	; 0x32
 8005bce:	e7d8      	b.n	8005b82 <report_realtime_status+0xb6>
 8005bd0:	7b63      	ldrb	r3, [r4, #13]
 8005bd2:	2b00      	cmp	r3, #0
 8005bd4:	d0a1      	beq.n	8005b1a <report_realtime_status+0x4e>
 8005bd6:	4872      	ldr	r0, [pc, #456]	; (8005da0 <report_realtime_status+0x2d4>)
 8005bd8:	f7ff f844 	bl	8004c64 <printString>
 8005bdc:	4648      	mov	r0, r9
 8005bde:	f7ff fca1 	bl	8005524 <report_util_axis_values>
 8005be2:	f898 3067 	ldrb.w	r3, [r8, #103]	; 0x67
 8005be6:	079a      	lsls	r2, r3, #30
 8005be8:	d50d      	bpl.n	8005c06 <report_realtime_status+0x13a>
 8005bea:	486e      	ldr	r0, [pc, #440]	; (8005da4 <report_realtime_status+0x2d8>)
 8005bec:	f7ff f83a 	bl	8004c64 <printString>
 8005bf0:	f7ff f816 	bl	8004c20 <plan_get_block_buffer_available>
 8005bf4:	f7ff f83f 	bl	8004c76 <print_uint8_base10>
 8005bf8:	202c      	movs	r0, #44	; 0x2c
 8005bfa:	f000 f8f2 	bl	8005de2 <serial_write>
 8005bfe:	f000 f8dd 	bl	8005dbc <serial_get_rx_buffer_available>
 8005c02:	f7ff f838 	bl	8004c76 <print_uint8_base10>
 8005c06:	4868      	ldr	r0, [pc, #416]	; (8005da8 <report_realtime_status+0x2dc>)
 8005c08:	f7ff f82c 	bl	8004c64 <printString>
 8005c0c:	f001 fb26 	bl	800725c <st_get_realtime_rate>
 8005c10:	f7ff f8de 	bl	8004dd0 <printFloat_RateValue>
 8005c14:	202c      	movs	r0, #44	; 0x2c
 8005c16:	f000 f8e4 	bl	8005de2 <serial_write>
 8005c1a:	2100      	movs	r1, #0
 8005c1c:	6920      	ldr	r0, [r4, #16]
 8005c1e:	f7ff f853 	bl	8004cc8 <printFloat>
 8005c22:	f7fd ff41 	bl	8003aa8 <limits_get_state>
 8005c26:	4605      	mov	r5, r0
 8005c28:	f001 fb28 	bl	800727c <system_control_get_state>
 8005c2c:	4606      	mov	r6, r0
 8005c2e:	f7ff f907 	bl	8004e40 <probe_get_state>
 8005c32:	ea45 0306 	orr.w	r3, r5, r6
 8005c36:	4303      	orrs	r3, r0
 8005c38:	f013 0fff 	tst.w	r3, #255	; 0xff
 8005c3c:	4607      	mov	r7, r0
 8005c3e:	d03a      	beq.n	8005cb6 <report_realtime_status+0x1ea>
 8005c40:	485a      	ldr	r0, [pc, #360]	; (8005dac <report_realtime_status+0x2e0>)
 8005c42:	f7ff f80f 	bl	8004c64 <printString>
 8005c46:	b117      	cbz	r7, 8005c4e <report_realtime_status+0x182>
 8005c48:	2050      	movs	r0, #80	; 0x50
 8005c4a:	f000 f8ca 	bl	8005de2 <serial_write>
 8005c4e:	b1ed      	cbz	r5, 8005c8c <report_realtime_status+0x1c0>
 8005c50:	07eb      	lsls	r3, r5, #31
 8005c52:	d502      	bpl.n	8005c5a <report_realtime_status+0x18e>
 8005c54:	2058      	movs	r0, #88	; 0x58
 8005c56:	f000 f8c4 	bl	8005de2 <serial_write>
 8005c5a:	07af      	lsls	r7, r5, #30
 8005c5c:	d502      	bpl.n	8005c64 <report_realtime_status+0x198>
 8005c5e:	2059      	movs	r0, #89	; 0x59
 8005c60:	f000 f8bf 	bl	8005de2 <serial_write>
 8005c64:	0768      	lsls	r0, r5, #29
 8005c66:	d502      	bpl.n	8005c6e <report_realtime_status+0x1a2>
 8005c68:	205a      	movs	r0, #90	; 0x5a
 8005c6a:	f000 f8ba 	bl	8005de2 <serial_write>
 8005c6e:	0729      	lsls	r1, r5, #28
 8005c70:	d502      	bpl.n	8005c78 <report_realtime_status+0x1ac>
 8005c72:	2041      	movs	r0, #65	; 0x41
 8005c74:	f000 f8b5 	bl	8005de2 <serial_write>
 8005c78:	06ea      	lsls	r2, r5, #27
 8005c7a:	d502      	bpl.n	8005c82 <report_realtime_status+0x1b6>
 8005c7c:	2042      	movs	r0, #66	; 0x42
 8005c7e:	f000 f8b0 	bl	8005de2 <serial_write>
 8005c82:	06ab      	lsls	r3, r5, #26
 8005c84:	d502      	bpl.n	8005c8c <report_realtime_status+0x1c0>
 8005c86:	2043      	movs	r0, #67	; 0x43
 8005c88:	f000 f8ab 	bl	8005de2 <serial_write>
 8005c8c:	b19e      	cbz	r6, 8005cb6 <report_realtime_status+0x1ea>
 8005c8e:	07f7      	lsls	r7, r6, #31
 8005c90:	d502      	bpl.n	8005c98 <report_realtime_status+0x1cc>
 8005c92:	2044      	movs	r0, #68	; 0x44
 8005c94:	f000 f8a5 	bl	8005de2 <serial_write>
 8005c98:	07b5      	lsls	r5, r6, #30
 8005c9a:	d502      	bpl.n	8005ca2 <report_realtime_status+0x1d6>
 8005c9c:	2052      	movs	r0, #82	; 0x52
 8005c9e:	f000 f8a0 	bl	8005de2 <serial_write>
 8005ca2:	0770      	lsls	r0, r6, #29
 8005ca4:	d502      	bpl.n	8005cac <report_realtime_status+0x1e0>
 8005ca6:	2048      	movs	r0, #72	; 0x48
 8005ca8:	f000 f89b 	bl	8005de2 <serial_write>
 8005cac:	0731      	lsls	r1, r6, #28
 8005cae:	d502      	bpl.n	8005cb6 <report_realtime_status+0x1ea>
 8005cb0:	2053      	movs	r0, #83	; 0x53
 8005cb2:	f000 f896 	bl	8005de2 <serial_write>
 8005cb6:	7b63      	ldrb	r3, [r4, #13]
 8005cb8:	b16b      	cbz	r3, 8005cd6 <report_realtime_status+0x20a>
 8005cba:	3b01      	subs	r3, #1
 8005cbc:	7363      	strb	r3, [r4, #13]
 8005cbe:	7b23      	ldrb	r3, [r4, #12]
 8005cc0:	b1db      	cbz	r3, 8005cfa <report_realtime_status+0x22e>
 8005cc2:	3b01      	subs	r3, #1
 8005cc4:	7323      	strb	r3, [r4, #12]
 8005cc6:	203e      	movs	r0, #62	; 0x3e
 8005cc8:	f000 f88b 	bl	8005de2 <serial_write>
 8005ccc:	f7ff fc1c 	bl	8005508 <report_util_line_feed>
 8005cd0:	b013      	add	sp, #76	; 0x4c
 8005cd2:	e8bd 8ff0 	ldmia.w	sp!, {r4, r5, r6, r7, r8, r9, sl, fp, pc}
 8005cd6:	7823      	ldrb	r3, [r4, #0]
 8005cd8:	f013 0f7c 	tst.w	r3, #124	; 0x7c
 8005cdc:	bf14      	ite	ne
 8005cde:	231d      	movne	r3, #29
 8005ce0:	2309      	moveq	r3, #9
 8005ce2:	7363      	strb	r3, [r4, #13]
 8005ce4:	7b23      	ldrb	r3, [r4, #12]
 8005ce6:	b90b      	cbnz	r3, 8005cec <report_realtime_status+0x220>
 8005ce8:	2301      	movs	r3, #1
 8005cea:	7323      	strb	r3, [r4, #12]
 8005cec:	4830      	ldr	r0, [pc, #192]	; (8005db0 <report_realtime_status+0x2e4>)
 8005cee:	f7fe ffb9 	bl	8004c64 <printString>
 8005cf2:	a80c      	add	r0, sp, #48	; 0x30
 8005cf4:	f7ff fc16 	bl	8005524 <report_util_axis_values>
 8005cf8:	e7e1      	b.n	8005cbe <report_realtime_status+0x1f2>
 8005cfa:	7823      	ldrb	r3, [r4, #0]
 8005cfc:	482d      	ldr	r0, [pc, #180]	; (8005db4 <report_realtime_status+0x2e8>)
 8005cfe:	f013 0f7c 	tst.w	r3, #124	; 0x7c
 8005d02:	bf14      	ite	ne
 8005d04:	2313      	movne	r3, #19
 8005d06:	2309      	moveq	r3, #9
 8005d08:	7323      	strb	r3, [r4, #12]
 8005d0a:	f7fe ffab 	bl	8004c64 <printString>
 8005d0e:	7a20      	ldrb	r0, [r4, #8]
 8005d10:	f7fe ffb1 	bl	8004c76 <print_uint8_base10>
 8005d14:	202c      	movs	r0, #44	; 0x2c
 8005d16:	f000 f864 	bl	8005de2 <serial_write>
 8005d1a:	7a60      	ldrb	r0, [r4, #9]
 8005d1c:	f7fe ffab 	bl	8004c76 <print_uint8_base10>
 8005d20:	202c      	movs	r0, #44	; 0x2c
 8005d22:	f000 f85e 	bl	8005de2 <serial_write>
 8005d26:	7aa0      	ldrb	r0, [r4, #10]
 8005d28:	f7fe ffa5 	bl	8004c76 <print_uint8_base10>
 8005d2c:	f000 fb78 	bl	8006420 <spindle_get_state>
 8005d30:	4605      	mov	r5, r0
 8005d32:	f7fc fd5d 	bl	80027f0 <coolant_get_state>
 8005d36:	4604      	mov	r4, r0
 8005d38:	b90d      	cbnz	r5, 8005d3e <report_realtime_status+0x272>
 8005d3a:	2800      	cmp	r0, #0
 8005d3c:	d0c3      	beq.n	8005cc6 <report_realtime_status+0x1fa>
 8005d3e:	481e      	ldr	r0, [pc, #120]	; (8005db8 <report_realtime_status+0x2ec>)
 8005d40:	f7fe ff90 	bl	8004c64 <printString>
 8005d44:	b12d      	cbz	r5, 8005d52 <report_realtime_status+0x286>
 8005d46:	2d01      	cmp	r5, #1
 8005d48:	bf0c      	ite	eq
 8005d4a:	2053      	moveq	r0, #83	; 0x53
 8005d4c:	2043      	movne	r0, #67	; 0x43
 8005d4e:	f000 f848 	bl	8005de2 <serial_write>
 8005d52:	07e2      	lsls	r2, r4, #31
 8005d54:	d502      	bpl.n	8005d5c <report_realtime_status+0x290>
 8005d56:	2046      	movs	r0, #70	; 0x46
 8005d58:	f000 f843 	bl	8005de2 <serial_write>
 8005d5c:	07a3      	lsls	r3, r4, #30
 8005d5e:	d5b2      	bpl.n	8005cc6 <report_realtime_status+0x1fa>
 8005d60:	204d      	movs	r0, #77	; 0x4d
 8005d62:	f000 f83e 	bl	8005de2 <serial_write>
 8005d66:	e7ae      	b.n	8005cc6 <report_realtime_status+0x1fa>
 8005d68:	20003904 	.word	0x20003904
 8005d6c:	200038d4 	.word	0x200038d4
 8005d70:	20003f70 	.word	0x20003f70
 8005d74:	20003d20 	.word	0x20003d20
 8005d78:	08009a0e 	.word	0x08009a0e
 8005d7c:	080099e0 	.word	0x080099e0
 8005d80:	08009a01 	.word	0x08009a01
 8005d84:	080099d7 	.word	0x080099d7
 8005d88:	080099dc 	.word	0x080099dc
 8005d8c:	080099e6 	.word	0x080099e6
 8005d90:	080099ea 	.word	0x080099ea
 8005d94:	080099ef 	.word	0x080099ef
 8005d98:	080099f5 	.word	0x080099f5
 8005d9c:	080099fb 	.word	0x080099fb
 8005da0:	08009a07 	.word	0x08009a07
 8005da4:	08009a15 	.word	0x08009a15
 8005da8:	08009a1a 	.word	0x08009a1a
 8005dac:	08009a1f 	.word	0x08009a1f
 8005db0:	08009a24 	.word	0x08009a24
 8005db4:	08009a2a 	.word	0x08009a2a
 8005db8:	08009a2f 	.word	0x08009a2f

08005dbc <serial_get_rx_buffer_available>:
 8005dbc:	4b06      	ldr	r3, [pc, #24]	; (8005dd8 <serial_get_rx_buffer_available+0x1c>)
 8005dbe:	4a07      	ldr	r2, [pc, #28]	; (8005ddc <serial_get_rx_buffer_available+0x20>)
 8005dc0:	781b      	ldrb	r3, [r3, #0]
 8005dc2:	7812      	ldrb	r2, [r2, #0]
 8005dc4:	b2db      	uxtb	r3, r3
 8005dc6:	4293      	cmp	r3, r2
 8005dc8:	bf94      	ite	ls
 8005dca:	1e98      	subls	r0, r3, #2
 8005dcc:	f103 30ff 	addhi.w	r0, r3, #4294967295
 8005dd0:	1a80      	subs	r0, r0, r2
 8005dd2:	b2c0      	uxtb	r0, r0
 8005dd4:	4770      	bx	lr
 8005dd6:	bf00      	nop
 8005dd8:	20003321 	.word	0x20003321
 8005ddc:	20003320 	.word	0x20003320

08005de0 <serial_init>:
 8005de0:	4770      	bx	lr

08005de2 <serial_write>:
 8005de2:	f001 bd4d 	b.w	8007880 <uart_sendch>
	...

08005de8 <serial_read>:
 8005de8:	4a08      	ldr	r2, [pc, #32]	; (8005e0c <serial_read+0x24>)
 8005dea:	4909      	ldr	r1, [pc, #36]	; (8005e10 <serial_read+0x28>)
 8005dec:	7813      	ldrb	r3, [r2, #0]
 8005dee:	7809      	ldrb	r1, [r1, #0]
 8005df0:	b2db      	uxtb	r3, r3
 8005df2:	4299      	cmp	r1, r3
 8005df4:	d008      	beq.n	8005e08 <serial_read+0x20>
 8005df6:	4907      	ldr	r1, [pc, #28]	; (8005e14 <serial_read+0x2c>)
 8005df8:	5cc8      	ldrb	r0, [r1, r3]
 8005dfa:	3301      	adds	r3, #1
 8005dfc:	b2db      	uxtb	r3, r3
 8005dfe:	2bfe      	cmp	r3, #254	; 0xfe
 8005e00:	bf08      	it	eq
 8005e02:	2300      	moveq	r3, #0
 8005e04:	7013      	strb	r3, [r2, #0]
 8005e06:	4770      	bx	lr
 8005e08:	20ff      	movs	r0, #255	; 0xff
 8005e0a:	4770      	bx	lr
 8005e0c:	20003321 	.word	0x20003321
 8005e10:	20003320 	.word	0x20003320
 8005e14:	20003e72 	.word	0x20003e72

08005e18 <HandleUartIT>:
 8005e18:	2821      	cmp	r0, #33	; 0x21
 8005e1a:	b410      	push	{r4}
 8005e1c:	d025      	beq.n	8005e6a <HandleUartIT+0x52>
 8005e1e:	d817      	bhi.n	8005e50 <HandleUartIT+0x38>
 8005e20:	2818      	cmp	r0, #24
 8005e22:	d01b      	beq.n	8005e5c <HandleUartIT+0x44>
 8005e24:	0602      	lsls	r2, r0, #24
 8005e26:	d54e      	bpl.n	8005ec6 <HandleUartIT+0xae>
 8005e28:	3884      	subs	r0, #132	; 0x84
 8005e2a:	281d      	cmp	r0, #29
 8005e2c:	d859      	bhi.n	8005ee2 <HandleUartIT+0xca>
 8005e2e:	e8df f000 	tbb	[pc, r0]
 8005e32:	201e      	.short	0x201e
 8005e34:	58585858 	.word	0x58585858
 8005e38:	58585858 	.word	0x58585858
 8005e3c:	2a265858 	.word	0x2a265858
 8005e40:	32302e2c 	.word	0x32302e2c
 8005e44:	38583634 	.word	0x38583634
 8005e48:	42403e3c 	.word	0x42403e3c
 8005e4c:	48465844 	.word	0x48465844
 8005e50:	283f      	cmp	r0, #63	; 0x3f
 8005e52:	d006      	beq.n	8005e62 <HandleUartIT+0x4a>
 8005e54:	287e      	cmp	r0, #126	; 0x7e
 8005e56:	d1e5      	bne.n	8005e24 <HandleUartIT+0xc>
 8005e58:	2002      	movs	r0, #2
 8005e5a:	e003      	b.n	8005e64 <HandleUartIT+0x4c>
 8005e5c:	bc10      	pop	{r4}
 8005e5e:	f7fe ba29 	b.w	80042b4 <mc_reset>
 8005e62:	2001      	movs	r0, #1
 8005e64:	bc10      	pop	{r4}
 8005e66:	f001 bab3 	b.w	80073d0 <system_set_exec_state_flag>
 8005e6a:	2008      	movs	r0, #8
 8005e6c:	e7fa      	b.n	8005e64 <HandleUartIT+0x4c>
 8005e6e:	2020      	movs	r0, #32
 8005e70:	e7f8      	b.n	8005e64 <HandleUartIT+0x4c>
 8005e72:	4b1d      	ldr	r3, [pc, #116]	; (8005ee8 <HandleUartIT+0xd0>)
 8005e74:	781b      	ldrb	r3, [r3, #0]
 8005e76:	069b      	lsls	r3, r3, #26
 8005e78:	d533      	bpl.n	8005ee2 <HandleUartIT+0xca>
 8005e7a:	2040      	movs	r0, #64	; 0x40
 8005e7c:	e7f2      	b.n	8005e64 <HandleUartIT+0x4c>
 8005e7e:	2001      	movs	r0, #1
 8005e80:	bc10      	pop	{r4}
 8005e82:	f001 bc51 	b.w	8007728 <system_set_exec_motion_override_flag>
 8005e86:	2002      	movs	r0, #2
 8005e88:	e7fa      	b.n	8005e80 <HandleUartIT+0x68>
 8005e8a:	2004      	movs	r0, #4
 8005e8c:	e7f8      	b.n	8005e80 <HandleUartIT+0x68>
 8005e8e:	2008      	movs	r0, #8
 8005e90:	e7f6      	b.n	8005e80 <HandleUartIT+0x68>
 8005e92:	2010      	movs	r0, #16
 8005e94:	e7f4      	b.n	8005e80 <HandleUartIT+0x68>
 8005e96:	2020      	movs	r0, #32
 8005e98:	e7f2      	b.n	8005e80 <HandleUartIT+0x68>
 8005e9a:	2040      	movs	r0, #64	; 0x40
 8005e9c:	e7f0      	b.n	8005e80 <HandleUartIT+0x68>
 8005e9e:	2080      	movs	r0, #128	; 0x80
 8005ea0:	e7ee      	b.n	8005e80 <HandleUartIT+0x68>
 8005ea2:	2001      	movs	r0, #1
 8005ea4:	bc10      	pop	{r4}
 8005ea6:	f001 bc49 	b.w	800773c <system_set_exec_accessory_override_flag>
 8005eaa:	2002      	movs	r0, #2
 8005eac:	e7fa      	b.n	8005ea4 <HandleUartIT+0x8c>
 8005eae:	2004      	movs	r0, #4
 8005eb0:	e7f8      	b.n	8005ea4 <HandleUartIT+0x8c>
 8005eb2:	2008      	movs	r0, #8
 8005eb4:	e7f6      	b.n	8005ea4 <HandleUartIT+0x8c>
 8005eb6:	2010      	movs	r0, #16
 8005eb8:	e7f4      	b.n	8005ea4 <HandleUartIT+0x8c>
 8005eba:	2020      	movs	r0, #32
 8005ebc:	e7f2      	b.n	8005ea4 <HandleUartIT+0x8c>
 8005ebe:	2040      	movs	r0, #64	; 0x40
 8005ec0:	e7f0      	b.n	8005ea4 <HandleUartIT+0x8c>
 8005ec2:	2080      	movs	r0, #128	; 0x80
 8005ec4:	e7ee      	b.n	8005ea4 <HandleUartIT+0x8c>
 8005ec6:	4a09      	ldr	r2, [pc, #36]	; (8005eec <HandleUartIT+0xd4>)
 8005ec8:	4c09      	ldr	r4, [pc, #36]	; (8005ef0 <HandleUartIT+0xd8>)
 8005eca:	7811      	ldrb	r1, [r2, #0]
 8005ecc:	7824      	ldrb	r4, [r4, #0]
 8005ece:	1c4b      	adds	r3, r1, #1
 8005ed0:	b2db      	uxtb	r3, r3
 8005ed2:	2bfe      	cmp	r3, #254	; 0xfe
 8005ed4:	bf08      	it	eq
 8005ed6:	2300      	moveq	r3, #0
 8005ed8:	42a3      	cmp	r3, r4
 8005eda:	bf1e      	ittt	ne
 8005edc:	4c05      	ldrne	r4, [pc, #20]	; (8005ef4 <HandleUartIT+0xdc>)
 8005ede:	7013      	strbne	r3, [r2, #0]
 8005ee0:	5460      	strbne	r0, [r4, r1]
 8005ee2:	bc10      	pop	{r4}
 8005ee4:	4770      	bx	lr
 8005ee6:	bf00      	nop
 8005ee8:	200038d4 	.word	0x200038d4
 8005eec:	20003320 	.word	0x20003320
 8005ef0:	20003321 	.word	0x20003321
 8005ef4:	20003e72 	.word	0x20003e72

08005ef8 <serial_reset_read_buffer>:
 8005ef8:	4b02      	ldr	r3, [pc, #8]	; (8005f04 <serial_reset_read_buffer+0xc>)
 8005efa:	781a      	ldrb	r2, [r3, #0]
 8005efc:	4b02      	ldr	r3, [pc, #8]	; (8005f08 <serial_reset_read_buffer+0x10>)
 8005efe:	701a      	strb	r2, [r3, #0]
 8005f00:	4770      	bx	lr
 8005f02:	bf00      	nop
 8005f04:	20003320 	.word	0x20003320
 8005f08:	20003321 	.word	0x20003321

08005f0c <settings_store_startup_line>:
 8005f0c:	b538      	push	{r3, r4, r5, lr}
 8005f0e:	4605      	mov	r5, r0
 8005f10:	460c      	mov	r4, r1
 8005f12:	f7ff fae7 	bl	80054e4 <protocol_buffer_synchronize>
 8005f16:	2351      	movs	r3, #81	; 0x51
 8005f18:	fb03 f005 	mul.w	r0, r3, r5
 8005f1c:	4621      	mov	r1, r4
 8005f1e:	e8bd 4038 	ldmia.w	sp!, {r3, r4, r5, lr}
 8005f22:	2250      	movs	r2, #80	; 0x50
 8005f24:	f500 7040 	add.w	r0, r0, #768	; 0x300
 8005f28:	f7fc bd1c 	b.w	8002964 <memcpy_to_eeprom_with_checksum>

08005f2c <settings_store_build_info>:
 8005f2c:	4601      	mov	r1, r0
 8005f2e:	2250      	movs	r2, #80	; 0x50
 8005f30:	f240 30ae 	movw	r0, #942	; 0x3ae
 8005f34:	f7fc bd16 	b.w	8002964 <memcpy_to_eeprom_with_checksum>

08005f38 <settings_write_coord_data>:
 8005f38:	b538      	push	{r3, r4, r5, lr}
 8005f3a:	4605      	mov	r5, r0
 8005f3c:	460c      	mov	r4, r1
 8005f3e:	f7ff fad1 	bl	80054e4 <protocol_buffer_synchronize>
 8005f42:	2319      	movs	r3, #25
 8005f44:	fb03 f005 	mul.w	r0, r3, r5
 8005f48:	4621      	mov	r1, r4
 8005f4a:	e8bd 4038 	ldmia.w	sp!, {r3, r4, r5, lr}
 8005f4e:	2218      	movs	r2, #24
 8005f50:	f500 7000 	add.w	r0, r0, #512	; 0x200
 8005f54:	f7fc bd06 	b.w	8002964 <memcpy_to_eeprom_with_checksum>

08005f58 <write_global_settings>:
 8005f58:	b508      	push	{r3, lr}
 8005f5a:	210a      	movs	r1, #10
 8005f5c:	2000      	movs	r0, #0
 8005f5e:	f7fc fcfb 	bl	8002958 <eeprom_put_char>
 8005f62:	e8bd 4008 	ldmia.w	sp!, {r3, lr}
 8005f66:	2290      	movs	r2, #144	; 0x90
 8005f68:	4901      	ldr	r1, [pc, #4]	; (8005f70 <write_global_settings+0x18>)
 8005f6a:	2001      	movs	r0, #1
 8005f6c:	f7fc bcfa 	b.w	8002964 <memcpy_to_eeprom_with_checksum>
 8005f70:	20003f70 	.word	0x20003f70

08005f74 <settings_restore>:
 8005f74:	b530      	push	{r4, r5, lr}
 8005f76:	4604      	mov	r4, r0
 8005f78:	07e0      	lsls	r0, r4, #31
 8005f7a:	b087      	sub	sp, #28
 8005f7c:	d547      	bpl.n	800600e <settings_restore+0x9a>
 8005f7e:	2100      	movs	r1, #0
 8005f80:	4b3c      	ldr	r3, [pc, #240]	; (8006074 <settings_restore+0x100>)
 8005f82:	f04f 527c 	mov.w	r2, #1056964608	; 0x3f000000
 8005f86:	f883 1064 	strb.w	r1, [r3, #100]	; 0x64
 8005f8a:	2100      	movs	r1, #0
 8005f8c:	6759      	str	r1, [r3, #116]	; 0x74
 8005f8e:	2103      	movs	r1, #3
 8005f90:	f883 1079 	strb.w	r1, [r3, #121]	; 0x79
 8005f94:	4938      	ldr	r1, [pc, #224]	; (8006078 <settings_restore+0x104>)
 8005f96:	661a      	str	r2, [r3, #96]	; 0x60
 8005f98:	67d9      	str	r1, [r3, #124]	; 0x7c
 8005f9a:	4938      	ldr	r1, [pc, #224]	; (800607c <settings_restore+0x108>)
 8005f9c:	2201      	movs	r2, #1
 8005f9e:	f8c3 1080 	str.w	r1, [r3, #128]	; 0x80
 8005fa2:	21fa      	movs	r1, #250	; 0xfa
 8005fa4:	f8a3 1084 	strh.w	r1, [r3, #132]	; 0x84
 8005fa8:	4935      	ldr	r1, [pc, #212]	; (8006080 <settings_restore+0x10c>)
 8005faa:	f883 2066 	strb.w	r2, [r3, #102]	; 0x66
 8005fae:	f8c3 1088 	str.w	r1, [r3, #136]	; 0x88
 8005fb2:	4934      	ldr	r1, [pc, #208]	; (8006084 <settings_restore+0x110>)
 8005fb4:	f883 2065 	strb.w	r2, [r3, #101]	; 0x65
 8005fb8:	f8c3 108c 	str.w	r1, [r3, #140]	; 0x8c
 8005fbc:	2198      	movs	r1, #152	; 0x98
 8005fbe:	f883 2067 	strb.w	r2, [r3, #103]	; 0x67
 8005fc2:	4a31      	ldr	r2, [pc, #196]	; (8006088 <settings_restore+0x114>)
 8005fc4:	4831      	ldr	r0, [pc, #196]	; (800608c <settings_restore+0x118>)
 8005fc6:	669a      	str	r2, [r3, #104]	; 0x68
 8005fc8:	4a31      	ldr	r2, [pc, #196]	; (8006090 <settings_restore+0x11c>)
 8005fca:	4d32      	ldr	r5, [pc, #200]	; (8006094 <settings_restore+0x120>)
 8005fcc:	66da      	str	r2, [r3, #108]	; 0x6c
 8005fce:	4a32      	ldr	r2, [pc, #200]	; (8006098 <settings_restore+0x124>)
 8005fd0:	f883 1078 	strb.w	r1, [r3, #120]	; 0x78
 8005fd4:	671a      	str	r2, [r3, #112]	; 0x70
 8005fd6:	4931      	ldr	r1, [pc, #196]	; (800609c <settings_restore+0x128>)
 8005fd8:	601a      	str	r2, [r3, #0]
 8005fda:	605a      	str	r2, [r3, #4]
 8005fdc:	609a      	str	r2, [r3, #8]
 8005fde:	4a30      	ldr	r2, [pc, #192]	; (80060a0 <settings_restore+0x12c>)
 8005fe0:	6198      	str	r0, [r3, #24]
 8005fe2:	61d8      	str	r0, [r3, #28]
 8005fe4:	6218      	str	r0, [r3, #32]
 8005fe6:	6319      	str	r1, [r3, #48]	; 0x30
 8005fe8:	6359      	str	r1, [r3, #52]	; 0x34
 8005fea:	6399      	str	r1, [r3, #56]	; 0x38
 8005fec:	649a      	str	r2, [r3, #72]	; 0x48
 8005fee:	64da      	str	r2, [r3, #76]	; 0x4c
 8005ff0:	651a      	str	r2, [r3, #80]	; 0x50
 8005ff2:	60dd      	str	r5, [r3, #12]
 8005ff4:	611d      	str	r5, [r3, #16]
 8005ff6:	615d      	str	r5, [r3, #20]
 8005ff8:	6258      	str	r0, [r3, #36]	; 0x24
 8005ffa:	6298      	str	r0, [r3, #40]	; 0x28
 8005ffc:	62d8      	str	r0, [r3, #44]	; 0x2c
 8005ffe:	63d9      	str	r1, [r3, #60]	; 0x3c
 8006000:	6419      	str	r1, [r3, #64]	; 0x40
 8006002:	6459      	str	r1, [r3, #68]	; 0x44
 8006004:	655a      	str	r2, [r3, #84]	; 0x54
 8006006:	659a      	str	r2, [r3, #88]	; 0x58
 8006008:	65da      	str	r2, [r3, #92]	; 0x5c
 800600a:	f7ff ffa5 	bl	8005f58 <write_global_settings>
 800600e:	07a1      	lsls	r1, r4, #30
 8006010:	d50c      	bpl.n	800602c <settings_restore+0xb8>
 8006012:	2218      	movs	r2, #24
 8006014:	2100      	movs	r1, #0
 8006016:	4668      	mov	r0, sp
 8006018:	f001 fca3 	bl	8007962 <memset>
 800601c:	2500      	movs	r5, #0
 800601e:	b2e8      	uxtb	r0, r5
 8006020:	4669      	mov	r1, sp
 8006022:	3501      	adds	r5, #1
 8006024:	f7ff ff88 	bl	8005f38 <settings_write_coord_data>
 8006028:	2d08      	cmp	r5, #8
 800602a:	d1f8      	bne.n	800601e <settings_restore+0xaa>
 800602c:	0762      	lsls	r2, r4, #29
 800602e:	d513      	bpl.n	8006058 <settings_restore+0xe4>
 8006030:	2100      	movs	r1, #0
 8006032:	f44f 7040 	mov.w	r0, #768	; 0x300
 8006036:	f7fc fc8f 	bl	8002958 <eeprom_put_char>
 800603a:	2100      	movs	r1, #0
 800603c:	f240 3001 	movw	r0, #769	; 0x301
 8006040:	f7fc fc8a 	bl	8002958 <eeprom_put_char>
 8006044:	2100      	movs	r1, #0
 8006046:	f240 3051 	movw	r0, #849	; 0x351
 800604a:	f7fc fc85 	bl	8002958 <eeprom_put_char>
 800604e:	2100      	movs	r1, #0
 8006050:	f240 3052 	movw	r0, #850	; 0x352
 8006054:	f7fc fc80 	bl	8002958 <eeprom_put_char>
 8006058:	0723      	lsls	r3, r4, #28
 800605a:	d509      	bpl.n	8006070 <settings_restore+0xfc>
 800605c:	2100      	movs	r1, #0
 800605e:	f240 30ae 	movw	r0, #942	; 0x3ae
 8006062:	f7fc fc79 	bl	8002958 <eeprom_put_char>
 8006066:	2100      	movs	r1, #0
 8006068:	f240 30af 	movw	r0, #943	; 0x3af
 800606c:	f7fc fc74 	bl	8002958 <eeprom_put_char>
 8006070:	b007      	add	sp, #28
 8006072:	bd30      	pop	{r4, r5, pc}
 8006074:	20003f70 	.word	0x20003f70
 8006078:	42c80000 	.word	0x42c80000
 800607c:	447a0000 	.word	0x447a0000
 8006080:	40a00000 	.word	0x40a00000
 8006084:	461c4000 	.word	0x461c4000
 8006088:	3c23d70a 	.word	0x3c23d70a
 800608c:	457a0000 	.word	0x457a0000
 8006090:	3b03126f 	.word	0x3b03126f
 8006094:	45480000 	.word	0x45480000
 8006098:	459c4000 	.word	0x459c4000
 800609c:	49afc800 	.word	0x49afc800
 80060a0:	c3160000 	.word	0xc3160000

080060a4 <settings_read_startup_line>:
 80060a4:	b570      	push	{r4, r5, r6, lr}
 80060a6:	460d      	mov	r5, r1
 80060a8:	2151      	movs	r1, #81	; 0x51
 80060aa:	4341      	muls	r1, r0
 80060ac:	4606      	mov	r6, r0
 80060ae:	2250      	movs	r2, #80	; 0x50
 80060b0:	f501 7140 	add.w	r1, r1, #768	; 0x300
 80060b4:	4628      	mov	r0, r5
 80060b6:	f7fc fc6f 	bl	8002998 <memcpy_from_eeprom_with_checksum>
 80060ba:	4604      	mov	r4, r0
 80060bc:	b930      	cbnz	r0, 80060cc <settings_read_startup_line+0x28>
 80060be:	7028      	strb	r0, [r5, #0]
 80060c0:	4629      	mov	r1, r5
 80060c2:	4630      	mov	r0, r6
 80060c4:	f7ff ff22 	bl	8005f0c <settings_store_startup_line>
 80060c8:	4620      	mov	r0, r4
 80060ca:	bd70      	pop	{r4, r5, r6, pc}
 80060cc:	2001      	movs	r0, #1
 80060ce:	bd70      	pop	{r4, r5, r6, pc}

080060d0 <settings_read_build_info>:
 80060d0:	b538      	push	{r3, r4, r5, lr}
 80060d2:	2250      	movs	r2, #80	; 0x50
 80060d4:	f240 31ae 	movw	r1, #942	; 0x3ae
 80060d8:	4605      	mov	r5, r0
 80060da:	f7fc fc5d 	bl	8002998 <memcpy_from_eeprom_with_checksum>
 80060de:	4604      	mov	r4, r0
 80060e0:	b928      	cbnz	r0, 80060ee <settings_read_build_info+0x1e>
 80060e2:	7028      	strb	r0, [r5, #0]
 80060e4:	4628      	mov	r0, r5
 80060e6:	f7ff ff21 	bl	8005f2c <settings_store_build_info>
 80060ea:	4620      	mov	r0, r4
 80060ec:	bd38      	pop	{r3, r4, r5, pc}
 80060ee:	2001      	movs	r0, #1
 80060f0:	bd38      	pop	{r3, r4, r5, pc}

080060f2 <settings_read_coord_data>:
 80060f2:	b570      	push	{r4, r5, r6, lr}
 80060f4:	460c      	mov	r4, r1
 80060f6:	2119      	movs	r1, #25
 80060f8:	4341      	muls	r1, r0
 80060fa:	4606      	mov	r6, r0
 80060fc:	2218      	movs	r2, #24
 80060fe:	f501 7100 	add.w	r1, r1, #512	; 0x200
 8006102:	4620      	mov	r0, r4
 8006104:	f7fc fc48 	bl	8002998 <memcpy_from_eeprom_with_checksum>
 8006108:	4605      	mov	r5, r0
 800610a:	b960      	cbnz	r0, 8006126 <settings_read_coord_data+0x34>
 800610c:	2300      	movs	r3, #0
 800610e:	4630      	mov	r0, r6
 8006110:	6023      	str	r3, [r4, #0]
 8006112:	6063      	str	r3, [r4, #4]
 8006114:	60a3      	str	r3, [r4, #8]
 8006116:	60e3      	str	r3, [r4, #12]
 8006118:	6123      	str	r3, [r4, #16]
 800611a:	6163      	str	r3, [r4, #20]
 800611c:	4621      	mov	r1, r4
 800611e:	f7ff ff0b 	bl	8005f38 <settings_write_coord_data>
 8006122:	4628      	mov	r0, r5
 8006124:	bd70      	pop	{r4, r5, r6, pc}
 8006126:	2001      	movs	r0, #1
 8006128:	bd70      	pop	{r4, r5, r6, pc}
	...

0800612c <read_global_settings>:
 800612c:	b508      	push	{r3, lr}
 800612e:	2000      	movs	r0, #0
 8006130:	f7fc fc0c 	bl	800294c <eeprom_get_char>
 8006134:	280a      	cmp	r0, #10
 8006136:	d108      	bne.n	800614a <read_global_settings+0x1e>
 8006138:	2290      	movs	r2, #144	; 0x90
 800613a:	2101      	movs	r1, #1
 800613c:	4804      	ldr	r0, [pc, #16]	; (8006150 <read_global_settings+0x24>)
 800613e:	f7fc fc2b 	bl	8002998 <memcpy_from_eeprom_with_checksum>
 8006142:	3000      	adds	r0, #0
 8006144:	bf18      	it	ne
 8006146:	2001      	movne	r0, #1
 8006148:	bd08      	pop	{r3, pc}
 800614a:	2000      	movs	r0, #0
 800614c:	bd08      	pop	{r3, pc}
 800614e:	bf00      	nop
 8006150:	20003f70 	.word	0x20003f70

08006154 <settings_store_global_setting>:
 8006154:	b570      	push	{r4, r5, r6, lr}
 8006156:	460d      	mov	r5, r1
 8006158:	4604      	mov	r4, r0
 800615a:	2100      	movs	r1, #0
 800615c:	4628      	mov	r0, r5
 800615e:	f7fa ffaf 	bl	80010c0 <__aeabi_fcmplt>
 8006162:	2800      	cmp	r0, #0
 8006164:	f040 80f5 	bne.w	8006352 <settings_store_global_setting+0x1fe>
 8006168:	2c63      	cmp	r4, #99	; 0x63
 800616a:	d92c      	bls.n	80061c6 <settings_store_global_setting+0x72>
 800616c:	f1a4 0364 	sub.w	r3, r4, #100	; 0x64
 8006170:	b2db      	uxtb	r3, r3
 8006172:	2b05      	cmp	r3, #5
 8006174:	b2c2      	uxtb	r2, r0
 8006176:	d81d      	bhi.n	80061b4 <settings_store_global_setting+0x60>
 8006178:	2a02      	cmp	r2, #2
 800617a:	4e7a      	ldr	r6, [pc, #488]	; (8006364 <settings_store_global_setting+0x210>)
 800617c:	d007      	beq.n	800618e <settings_store_global_setting+0x3a>
 800617e:	2a03      	cmp	r2, #3
 8006180:	d014      	beq.n	80061ac <settings_store_global_setting+0x58>
 8006182:	2a01      	cmp	r2, #1
 8006184:	bf08      	it	eq
 8006186:	3306      	addeq	r3, #6
 8006188:	f846 5023 	str.w	r5, [r6, r3, lsl #2]
 800618c:	e00a      	b.n	80061a4 <settings_store_global_setting+0x50>
 800618e:	4976      	ldr	r1, [pc, #472]	; (8006368 <settings_store_global_setting+0x214>)
 8006190:	4628      	mov	r0, r5
 8006192:	f103 040c 	add.w	r4, r3, #12
 8006196:	f7fa fdf5 	bl	8000d84 <__aeabi_fmul>
 800619a:	4973      	ldr	r1, [pc, #460]	; (8006368 <settings_store_global_setting+0x214>)
 800619c:	f7fa fdf2 	bl	8000d84 <__aeabi_fmul>
 80061a0:	f846 0024 	str.w	r0, [r6, r4, lsl #2]
 80061a4:	f7ff fed8 	bl	8005f58 <write_global_settings>
 80061a8:	2000      	movs	r0, #0
 80061aa:	bd70      	pop	{r4, r5, r6, pc}
 80061ac:	3312      	adds	r3, #18
 80061ae:	f105 4500 	add.w	r5, r5, #2147483648	; 0x80000000
 80061b2:	e7e9      	b.n	8006188 <settings_store_global_setting+0x34>
 80061b4:	2b09      	cmp	r3, #9
 80061b6:	f240 80ce 	bls.w	8006356 <settings_store_global_setting+0x202>
 80061ba:	3001      	adds	r0, #1
 80061bc:	2804      	cmp	r0, #4
 80061be:	f000 80ca 	beq.w	8006356 <settings_store_global_setting+0x202>
 80061c2:	3b0a      	subs	r3, #10
 80061c4:	e7d4      	b.n	8006170 <settings_store_global_setting+0x1c>
 80061c6:	4628      	mov	r0, r5
 80061c8:	f7fa f932 	bl	8000430 <__aeabi_f2d>
 80061cc:	f002 f990 	bl	80084f0 <trunc>
 80061d0:	f7fa fc5a 	bl	8000a88 <__aeabi_d2uiz>
 80061d4:	b2c0      	uxtb	r0, r0
 80061d6:	2c28      	cmp	r4, #40	; 0x28
 80061d8:	f200 80bd 	bhi.w	8006356 <settings_store_global_setting+0x202>
 80061dc:	e8df f004 	tbb	[pc, r4]
 80061e0:	29231f15 	.word	0x29231f15
 80061e4:	bb43392d 	.word	0xbb43392d
 80061e8:	5652bbbb 	.word	0x5652bbbb
 80061ec:	bbbb5c59 	.word	0xbbbb5c59
 80061f0:	bbbbbbbb 	.word	0xbbbbbbbb
 80061f4:	8e84766a 	.word	0x8e84766a
 80061f8:	9d999592 	.word	0x9d999592
 80061fc:	a6a1bbbb 	.word	0xa6a1bbbb
 8006200:	bbbbbba9 	.word	0xbbbbbba9
 8006204:	bbbbbbbb 	.word	0xbbbbbbbb
 8006208:	b3          	.byte	0xb3
 8006209:	00          	.byte	0x00
 800620a:	4958      	ldr	r1, [pc, #352]	; (800636c <settings_store_global_setting+0x218>)
 800620c:	4628      	mov	r0, r5
 800620e:	f7fa ff57 	bl	80010c0 <__aeabi_fcmplt>
 8006212:	2800      	cmp	r0, #0
 8006214:	f040 80a1 	bne.w	800635a <settings_store_global_setting+0x206>
 8006218:	4b52      	ldr	r3, [pc, #328]	; (8006364 <settings_store_global_setting+0x210>)
 800621a:	661d      	str	r5, [r3, #96]	; 0x60
 800621c:	e7c2      	b.n	80061a4 <settings_store_global_setting+0x50>
 800621e:	4b51      	ldr	r3, [pc, #324]	; (8006364 <settings_store_global_setting+0x210>)
 8006220:	f883 0066 	strb.w	r0, [r3, #102]	; 0x66
 8006224:	e7be      	b.n	80061a4 <settings_store_global_setting+0x50>
 8006226:	4b4f      	ldr	r3, [pc, #316]	; (8006364 <settings_store_global_setting+0x210>)
 8006228:	f883 0064 	strb.w	r0, [r3, #100]	; 0x64
 800622c:	f000 fbb0 	bl	8006990 <st_generate_step_dir_invert_masks>
 8006230:	e7b8      	b.n	80061a4 <settings_store_global_setting+0x50>
 8006232:	4b4c      	ldr	r3, [pc, #304]	; (8006364 <settings_store_global_setting+0x210>)
 8006234:	f883 0065 	strb.w	r0, [r3, #101]	; 0x65
 8006238:	e7f8      	b.n	800622c <settings_store_global_setting+0xd8>
 800623a:	4b4a      	ldr	r3, [pc, #296]	; (8006364 <settings_store_global_setting+0x210>)
 800623c:	f893 2078 	ldrb.w	r2, [r3, #120]	; 0x78
 8006240:	b120      	cbz	r0, 800624c <settings_store_global_setting+0xf8>
 8006242:	f042 0204 	orr.w	r2, r2, #4
 8006246:	f883 2078 	strb.w	r2, [r3, #120]	; 0x78
 800624a:	e7ab      	b.n	80061a4 <settings_store_global_setting+0x50>
 800624c:	f022 0204 	bic.w	r2, r2, #4
 8006250:	e7f9      	b.n	8006246 <settings_store_global_setting+0xf2>
 8006252:	4b44      	ldr	r3, [pc, #272]	; (8006364 <settings_store_global_setting+0x210>)
 8006254:	f893 2078 	ldrb.w	r2, [r3, #120]	; 0x78
 8006258:	b110      	cbz	r0, 8006260 <settings_store_global_setting+0x10c>
 800625a:	f042 0240 	orr.w	r2, r2, #64	; 0x40
 800625e:	e7f2      	b.n	8006246 <settings_store_global_setting+0xf2>
 8006260:	f022 0240 	bic.w	r2, r2, #64	; 0x40
 8006264:	e7ef      	b.n	8006246 <settings_store_global_setting+0xf2>
 8006266:	4b3f      	ldr	r3, [pc, #252]	; (8006364 <settings_store_global_setting+0x210>)
 8006268:	f893 2078 	ldrb.w	r2, [r3, #120]	; 0x78
 800626c:	b138      	cbz	r0, 800627e <settings_store_global_setting+0x12a>
 800626e:	f062 027f 	orn	r2, r2, #127	; 0x7f
 8006272:	2000      	movs	r0, #0
 8006274:	f883 2078 	strb.w	r2, [r3, #120]	; 0x78
 8006278:	f7fe fdc8 	bl	8004e0c <probe_configure_invert_mask>
 800627c:	e792      	b.n	80061a4 <settings_store_global_setting+0x50>
 800627e:	f002 027f 	and.w	r2, r2, #127	; 0x7f
 8006282:	e7f6      	b.n	8006272 <settings_store_global_setting+0x11e>
 8006284:	4b37      	ldr	r3, [pc, #220]	; (8006364 <settings_store_global_setting+0x210>)
 8006286:	f883 0067 	strb.w	r0, [r3, #103]	; 0x67
 800628a:	e78b      	b.n	80061a4 <settings_store_global_setting+0x50>
 800628c:	4b35      	ldr	r3, [pc, #212]	; (8006364 <settings_store_global_setting+0x210>)
 800628e:	669d      	str	r5, [r3, #104]	; 0x68
 8006290:	e788      	b.n	80061a4 <settings_store_global_setting+0x50>
 8006292:	4b34      	ldr	r3, [pc, #208]	; (8006364 <settings_store_global_setting+0x210>)
 8006294:	66dd      	str	r5, [r3, #108]	; 0x6c
 8006296:	e785      	b.n	80061a4 <settings_store_global_setting+0x50>
 8006298:	4b32      	ldr	r3, [pc, #200]	; (8006364 <settings_store_global_setting+0x210>)
 800629a:	f893 2078 	ldrb.w	r2, [r3, #120]	; 0x78
 800629e:	b130      	cbz	r0, 80062ae <settings_store_global_setting+0x15a>
 80062a0:	f042 0201 	orr.w	r2, r2, #1
 80062a4:	f883 2078 	strb.w	r2, [r3, #120]	; 0x78
 80062a8:	f001 f84e 	bl	8007348 <system_flag_wco_change>
 80062ac:	e77a      	b.n	80061a4 <settings_store_global_setting+0x50>
 80062ae:	f022 0201 	bic.w	r2, r2, #1
 80062b2:	e7f7      	b.n	80062a4 <settings_store_global_setting+0x150>
 80062b4:	4b2b      	ldr	r3, [pc, #172]	; (8006364 <settings_store_global_setting+0x210>)
 80062b6:	f893 2078 	ldrb.w	r2, [r3, #120]	; 0x78
 80062ba:	b120      	cbz	r0, 80062c6 <settings_store_global_setting+0x172>
 80062bc:	06d1      	lsls	r1, r2, #27
 80062be:	d54e      	bpl.n	800635e <settings_store_global_setting+0x20a>
 80062c0:	f042 0220 	orr.w	r2, r2, #32
 80062c4:	e7bf      	b.n	8006246 <settings_store_global_setting+0xf2>
 80062c6:	f022 0220 	bic.w	r2, r2, #32
 80062ca:	e7bc      	b.n	8006246 <settings_store_global_setting+0xf2>
 80062cc:	4b25      	ldr	r3, [pc, #148]	; (8006364 <settings_store_global_setting+0x210>)
 80062ce:	f893 2078 	ldrb.w	r2, [r3, #120]	; 0x78
 80062d2:	b130      	cbz	r0, 80062e2 <settings_store_global_setting+0x18e>
 80062d4:	f042 0208 	orr.w	r2, r2, #8
 80062d8:	f883 2078 	strb.w	r2, [r3, #120]	; 0x78
 80062dc:	f7fd fbcc 	bl	8003a78 <limits_init>
 80062e0:	e760      	b.n	80061a4 <settings_store_global_setting+0x50>
 80062e2:	f022 0208 	bic.w	r2, r2, #8
 80062e6:	e7f7      	b.n	80062d8 <settings_store_global_setting+0x184>
 80062e8:	4b1e      	ldr	r3, [pc, #120]	; (8006364 <settings_store_global_setting+0x210>)
 80062ea:	f893 2078 	ldrb.w	r2, [r3, #120]	; 0x78
 80062ee:	b110      	cbz	r0, 80062f6 <settings_store_global_setting+0x1a2>
 80062f0:	f042 0210 	orr.w	r2, r2, #16
 80062f4:	e7a7      	b.n	8006246 <settings_store_global_setting+0xf2>
 80062f6:	f022 0230 	bic.w	r2, r2, #48	; 0x30
 80062fa:	e7a4      	b.n	8006246 <settings_store_global_setting+0xf2>
 80062fc:	4b19      	ldr	r3, [pc, #100]	; (8006364 <settings_store_global_setting+0x210>)
 80062fe:	f883 0079 	strb.w	r0, [r3, #121]	; 0x79
 8006302:	e74f      	b.n	80061a4 <settings_store_global_setting+0x50>
 8006304:	4b17      	ldr	r3, [pc, #92]	; (8006364 <settings_store_global_setting+0x210>)
 8006306:	67dd      	str	r5, [r3, #124]	; 0x7c
 8006308:	e74c      	b.n	80061a4 <settings_store_global_setting+0x50>
 800630a:	4b16      	ldr	r3, [pc, #88]	; (8006364 <settings_store_global_setting+0x210>)
 800630c:	f8c3 5080 	str.w	r5, [r3, #128]	; 0x80
 8006310:	e748      	b.n	80061a4 <settings_store_global_setting+0x50>
 8006312:	4b14      	ldr	r3, [pc, #80]	; (8006364 <settings_store_global_setting+0x210>)
 8006314:	f8a3 0084 	strh.w	r0, [r3, #132]	; 0x84
 8006318:	e744      	b.n	80061a4 <settings_store_global_setting+0x50>
 800631a:	4b12      	ldr	r3, [pc, #72]	; (8006364 <settings_store_global_setting+0x210>)
 800631c:	f8c3 5088 	str.w	r5, [r3, #136]	; 0x88
 8006320:	e740      	b.n	80061a4 <settings_store_global_setting+0x50>
 8006322:	4b10      	ldr	r3, [pc, #64]	; (8006364 <settings_store_global_setting+0x210>)
 8006324:	671d      	str	r5, [r3, #112]	; 0x70
 8006326:	f000 f889 	bl	800643c <spindle_init>
 800632a:	e73b      	b.n	80061a4 <settings_store_global_setting+0x50>
 800632c:	4b0d      	ldr	r3, [pc, #52]	; (8006364 <settings_store_global_setting+0x210>)
 800632e:	675d      	str	r5, [r3, #116]	; 0x74
 8006330:	e7f9      	b.n	8006326 <settings_store_global_setting+0x1d2>
 8006332:	4b0c      	ldr	r3, [pc, #48]	; (8006364 <settings_store_global_setting+0x210>)
 8006334:	f893 2078 	ldrb.w	r2, [r3, #120]	; 0x78
 8006338:	b110      	cbz	r0, 8006340 <settings_store_global_setting+0x1ec>
 800633a:	f042 0202 	orr.w	r2, r2, #2
 800633e:	e782      	b.n	8006246 <settings_store_global_setting+0xf2>
 8006340:	f022 0202 	bic.w	r2, r2, #2
 8006344:	e77f      	b.n	8006246 <settings_store_global_setting+0xf2>
 8006346:	4b07      	ldr	r3, [pc, #28]	; (8006364 <settings_store_global_setting+0x210>)
 8006348:	f8c3 508c 	str.w	r5, [r3, #140]	; 0x8c
 800634c:	f001 fa7a 	bl	8007844 <outputs_analog_init>
 8006350:	e728      	b.n	80061a4 <settings_store_global_setting+0x50>
 8006352:	2004      	movs	r0, #4
 8006354:	bd70      	pop	{r4, r5, r6, pc}
 8006356:	2003      	movs	r0, #3
 8006358:	bd70      	pop	{r4, r5, r6, pc}
 800635a:	2006      	movs	r0, #6
 800635c:	bd70      	pop	{r4, r5, r6, pc}
 800635e:	200a      	movs	r0, #10
 8006360:	bd70      	pop	{r4, r5, r6, pc}
 8006362:	bf00      	nop
 8006364:	20003f70 	.word	0x20003f70
 8006368:	42700000 	.word	0x42700000
 800636c:	3c23d70a 	.word	0x3c23d70a

08006370 <acceleration_scaling>:
 8006370:	b5f8      	push	{r3, r4, r5, r6, r7, lr}
 8006372:	680d      	ldr	r5, [r1, #0]
 8006374:	4604      	mov	r4, r0
 8006376:	f7ff f8b5 	bl	80054e4 <protocol_buffer_synchronize>
 800637a:	2100      	movs	r1, #0
 800637c:	4628      	mov	r0, r5
 800637e:	f7fa fea9 	bl	80010d4 <__aeabi_fcmple>
 8006382:	bb38      	cbnz	r0, 80063d4 <acceleration_scaling+0x64>
 8006384:	f04f 517e 	mov.w	r1, #1065353216	; 0x3f800000
 8006388:	4628      	mov	r0, r5
 800638a:	f7fa feb7 	bl	80010fc <__aeabi_fcmpgt>
 800638e:	b108      	cbz	r0, 8006394 <acceleration_scaling+0x24>
 8006390:	f04f 557e 	mov.w	r5, #1065353216	; 0x3f800000
 8006394:	2cff      	cmp	r4, #255	; 0xff
 8006396:	d10e      	bne.n	80063b6 <acceleration_scaling+0x46>
 8006398:	2400      	movs	r4, #0
 800639a:	4e0f      	ldr	r6, [pc, #60]	; (80063d8 <acceleration_scaling+0x68>)
 800639c:	4f0f      	ldr	r7, [pc, #60]	; (80063dc <acceleration_scaling+0x6c>)
 800639e:	19e3      	adds	r3, r4, r7
 80063a0:	f846 5f04 	str.w	r5, [r6, #4]!
 80063a4:	4629      	mov	r1, r5
 80063a6:	6b18      	ldr	r0, [r3, #48]	; 0x30
 80063a8:	f7fa fcec 	bl	8000d84 <__aeabi_fmul>
 80063ac:	3404      	adds	r4, #4
 80063ae:	2c18      	cmp	r4, #24
 80063b0:	61b0      	str	r0, [r6, #24]
 80063b2:	d1f4      	bne.n	800639e <acceleration_scaling+0x2e>
 80063b4:	bdf8      	pop	{r3, r4, r5, r6, r7, pc}
 80063b6:	2c05      	cmp	r4, #5
 80063b8:	d80c      	bhi.n	80063d4 <acceleration_scaling+0x64>
 80063ba:	4e09      	ldr	r6, [pc, #36]	; (80063e0 <acceleration_scaling+0x70>)
 80063bc:	4b07      	ldr	r3, [pc, #28]	; (80063dc <acceleration_scaling+0x6c>)
 80063be:	f846 5024 	str.w	r5, [r6, r4, lsl #2]
 80063c2:	1da7      	adds	r7, r4, #6
 80063c4:	340c      	adds	r4, #12
 80063c6:	4629      	mov	r1, r5
 80063c8:	f853 0024 	ldr.w	r0, [r3, r4, lsl #2]
 80063cc:	f7fa fcda 	bl	8000d84 <__aeabi_fmul>
 80063d0:	f846 0027 	str.w	r0, [r6, r7, lsl #2]
 80063d4:	bdf8      	pop	{r3, r4, r5, r6, r7, pc}
 80063d6:	bf00      	nop
 80063d8:	20003ffc 	.word	0x20003ffc
 80063dc:	20003f70 	.word	0x20003f70
 80063e0:	20004000 	.word	0x20004000

080063e4 <settings_init>:
 80063e4:	b510      	push	{r4, lr}
 80063e6:	f7ff fea1 	bl	800612c <read_global_settings>
 80063ea:	b938      	cbnz	r0, 80063fc <settings_init+0x18>
 80063ec:	2007      	movs	r0, #7
 80063ee:	f7ff f8cf 	bl	8005590 <report_status_message>
 80063f2:	20ff      	movs	r0, #255	; 0xff
 80063f4:	f7ff fdbe 	bl	8005f74 <settings_restore>
 80063f8:	f7ff f942 	bl	8005680 <report_grbl_settings>
 80063fc:	2300      	movs	r3, #0
 80063fe:	f04f 547e 	mov.w	r4, #1065353216	; 0x3f800000
 8006402:	4a05      	ldr	r2, [pc, #20]	; (8006418 <settings_init+0x34>)
 8006404:	4805      	ldr	r0, [pc, #20]	; (800641c <settings_init+0x38>)
 8006406:	1819      	adds	r1, r3, r0
 8006408:	6b09      	ldr	r1, [r1, #48]	; 0x30
 800640a:	3304      	adds	r3, #4
 800640c:	f842 4f04 	str.w	r4, [r2, #4]!
 8006410:	2b18      	cmp	r3, #24
 8006412:	6191      	str	r1, [r2, #24]
 8006414:	d1f7      	bne.n	8006406 <settings_init+0x22>
 8006416:	bd10      	pop	{r4, pc}
 8006418:	20003ffc 	.word	0x20003ffc
 800641c:	20003f70 	.word	0x20003f70

08006420 <spindle_get_state>:
 8006420:	4b01      	ldr	r3, [pc, #4]	; (8006428 <spindle_get_state+0x8>)
 8006422:	2001      	movs	r0, #1
 8006424:	689b      	ldr	r3, [r3, #8]
 8006426:	4770      	bx	lr
 8006428:	40010c00 	.word	0x40010c00

0800642c <spindle_stop>:
 800642c:	4a02      	ldr	r2, [pc, #8]	; (8006438 <spindle_stop+0xc>)
 800642e:	6c53      	ldr	r3, [r2, #68]	; 0x44
 8006430:	f423 4300 	bic.w	r3, r3, #32768	; 0x8000
 8006434:	6453      	str	r3, [r2, #68]	; 0x44
 8006436:	4770      	bx	lr
 8006438:	40012c00 	.word	0x40012c00

0800643c <spindle_init>:
 800643c:	b508      	push	{r3, lr}
 800643e:	4b0e      	ldr	r3, [pc, #56]	; (8006478 <spindle_init+0x3c>)
 8006440:	6f59      	ldr	r1, [r3, #116]	; 0x74
 8006442:	6f18      	ldr	r0, [r3, #112]	; 0x70
 8006444:	f7fa fb94 	bl	8000b70 <__aeabi_fsub>
 8006448:	4601      	mov	r1, r0
 800644a:	480c      	ldr	r0, [pc, #48]	; (800647c <spindle_init+0x40>)
 800644c:	f7fa fd4e 	bl	8000eec <__aeabi_fdiv>
 8006450:	4b0b      	ldr	r3, [pc, #44]	; (8006480 <spindle_init+0x44>)
 8006452:	6018      	str	r0, [r3, #0]
 8006454:	4b0b      	ldr	r3, [pc, #44]	; (8006484 <spindle_init+0x48>)
 8006456:	6a1a      	ldr	r2, [r3, #32]
 8006458:	f042 0201 	orr.w	r2, r2, #1
 800645c:	621a      	str	r2, [r3, #32]
 800645e:	6c5a      	ldr	r2, [r3, #68]	; 0x44
 8006460:	f422 4200 	bic.w	r2, r2, #32768	; 0x8000
 8006464:	645a      	str	r2, [r3, #68]	; 0x44
 8006466:	681a      	ldr	r2, [r3, #0]
 8006468:	f042 0201 	orr.w	r2, r2, #1
 800646c:	601a      	str	r2, [r3, #0]
 800646e:	e8bd 4008 	ldmia.w	sp!, {r3, lr}
 8006472:	f7ff bfdb 	b.w	800642c <spindle_stop>
 8006476:	bf00      	nop
 8006478:	20003f70 	.word	0x20003f70
 800647c:	45e0f000 	.word	0x45e0f000
 8006480:	20003324 	.word	0x20003324
 8006484:	40012c00 	.word	0x40012c00

08006488 <spindle_set_speed>:
 8006488:	4b05      	ldr	r3, [pc, #20]	; (80064a0 <spindle_set_speed+0x18>)
 800648a:	6358      	str	r0, [r3, #52]	; 0x34
 800648c:	6c5a      	ldr	r2, [r3, #68]	; 0x44
 800648e:	b918      	cbnz	r0, 8006498 <spindle_set_speed+0x10>
 8006490:	f422 4200 	bic.w	r2, r2, #32768	; 0x8000
 8006494:	645a      	str	r2, [r3, #68]	; 0x44
 8006496:	4770      	bx	lr
 8006498:	f442 4200 	orr.w	r2, r2, #32768	; 0x8000
 800649c:	e7fa      	b.n	8006494 <spindle_set_speed+0xc>
 800649e:	bf00      	nop
 80064a0:	40012c00 	.word	0x40012c00
 80064a4:	00000000 	.word	0x00000000

080064a8 <spindle_compute_pwm_value>:
 80064a8:	e92d 43f8 	stmdb	sp!, {r3, r4, r5, r6, r7, r8, r9, lr}
 80064ac:	4b2a      	ldr	r3, [pc, #168]	; (8006558 <spindle_compute_pwm_value+0xb0>)
 80064ae:	4605      	mov	r5, r0
 80064b0:	6f5e      	ldr	r6, [r3, #116]	; 0x74
 80064b2:	6f1f      	ldr	r7, [r3, #112]	; 0x70
 80064b4:	4630      	mov	r0, r6
 80064b6:	4639      	mov	r1, r7
 80064b8:	f7fa fe16 	bl	80010e8 <__aeabi_fcmpge>
 80064bc:	4c27      	ldr	r4, [pc, #156]	; (800655c <spindle_compute_pwm_value+0xb4>)
 80064be:	b9c8      	cbnz	r0, 80064f4 <spindle_compute_pwm_value+0x4c>
 80064c0:	7aa0      	ldrb	r0, [r4, #10]
 80064c2:	f7f9 ffa3 	bl	800040c <__aeabi_i2d>
 80064c6:	a322      	add	r3, pc, #136	; (adr r3, 8006550 <spindle_compute_pwm_value+0xa8>)
 80064c8:	e9d3 2300 	ldrd	r2, r3, [r3]
 80064cc:	f7fa f804 	bl	80004d8 <__aeabi_dmul>
 80064d0:	4680      	mov	r8, r0
 80064d2:	4628      	mov	r0, r5
 80064d4:	4689      	mov	r9, r1
 80064d6:	f7f9 ffab 	bl	8000430 <__aeabi_f2d>
 80064da:	4602      	mov	r2, r0
 80064dc:	460b      	mov	r3, r1
 80064de:	4640      	mov	r0, r8
 80064e0:	4649      	mov	r1, r9
 80064e2:	f7f9 fff9 	bl	80004d8 <__aeabi_dmul>
 80064e6:	f7fa faef 	bl	8000ac8 <__aeabi_d2f>
 80064ea:	4639      	mov	r1, r7
 80064ec:	4605      	mov	r5, r0
 80064ee:	f7fa fdfb 	bl	80010e8 <__aeabi_fcmpge>
 80064f2:	b120      	cbz	r0, 80064fe <spindle_compute_pwm_value+0x56>
 80064f4:	6127      	str	r7, [r4, #16]
 80064f6:	f641 401f 	movw	r0, #7199	; 0x1c1f
 80064fa:	e8bd 83f8 	ldmia.w	sp!, {r3, r4, r5, r6, r7, r8, r9, pc}
 80064fe:	4631      	mov	r1, r6
 8006500:	4628      	mov	r0, r5
 8006502:	f7fa fde7 	bl	80010d4 <__aeabi_fcmple>
 8006506:	b168      	cbz	r0, 8006524 <spindle_compute_pwm_value+0x7c>
 8006508:	2700      	movs	r7, #0
 800650a:	4628      	mov	r0, r5
 800650c:	4639      	mov	r1, r7
 800650e:	f7fa fdcd 	bl	80010ac <__aeabi_fcmpeq>
 8006512:	b118      	cbz	r0, 800651c <spindle_compute_pwm_value+0x74>
 8006514:	6127      	str	r7, [r4, #16]
 8006516:	2000      	movs	r0, #0
 8006518:	e8bd 83f8 	ldmia.w	sp!, {r3, r4, r5, r6, r7, r8, r9, pc}
 800651c:	6126      	str	r6, [r4, #16]
 800651e:	2001      	movs	r0, #1
 8006520:	e8bd 83f8 	ldmia.w	sp!, {r3, r4, r5, r6, r7, r8, r9, pc}
 8006524:	4631      	mov	r1, r6
 8006526:	6125      	str	r5, [r4, #16]
 8006528:	4628      	mov	r0, r5
 800652a:	f7fa fb21 	bl	8000b70 <__aeabi_fsub>
 800652e:	4b0c      	ldr	r3, [pc, #48]	; (8006560 <spindle_compute_pwm_value+0xb8>)
 8006530:	6819      	ldr	r1, [r3, #0]
 8006532:	f7fa fc27 	bl	8000d84 <__aeabi_fmul>
 8006536:	f7f9 ff7b 	bl	8000430 <__aeabi_f2d>
 800653a:	f001 fecd 	bl	80082d8 <floor>
 800653e:	f7fa faa3 	bl	8000a88 <__aeabi_d2uiz>
 8006542:	3001      	adds	r0, #1
 8006544:	b280      	uxth	r0, r0
 8006546:	e8bd 83f8 	ldmia.w	sp!, {r3, r4, r5, r6, r7, r8, r9, pc}
 800654a:	bf00      	nop
 800654c:	f3af 8000 	nop.w
 8006550:	47ae147b 	.word	0x47ae147b
 8006554:	3f847ae1 	.word	0x3f847ae1
 8006558:	20003f70 	.word	0x20003f70
 800655c:	200038d4 	.word	0x200038d4
 8006560:	20003324 	.word	0x20003324

08006564 <spindle_set_state>:
 8006564:	b570      	push	{r4, r5, r6, lr}
 8006566:	4c12      	ldr	r4, [pc, #72]	; (80065b0 <spindle_set_state+0x4c>)
 8006568:	4605      	mov	r5, r0
 800656a:	7863      	ldrb	r3, [r4, #1]
 800656c:	460e      	mov	r6, r1
 800656e:	b933      	cbnz	r3, 800657e <spindle_set_state+0x1a>
 8006570:	b930      	cbnz	r0, 8006580 <spindle_set_state+0x1c>
 8006572:	2300      	movs	r3, #0
 8006574:	6123      	str	r3, [r4, #16]
 8006576:	f7ff ff59 	bl	800642c <spindle_stop>
 800657a:	2300      	movs	r3, #0
 800657c:	7323      	strb	r3, [r4, #12]
 800657e:	bd70      	pop	{r4, r5, r6, pc}
 8006580:	2d10      	cmp	r5, #16
 8006582:	f44f 7180 	mov.w	r1, #256	; 0x100
 8006586:	480b      	ldr	r0, [pc, #44]	; (80065b4 <spindle_set_state+0x50>)
 8006588:	d10f      	bne.n	80065aa <spindle_set_state+0x46>
 800658a:	f001 f9ab 	bl	80078e4 <GPIO_ResetBits>
 800658e:	4b0a      	ldr	r3, [pc, #40]	; (80065b8 <spindle_set_state+0x54>)
 8006590:	f893 3078 	ldrb.w	r3, [r3, #120]	; 0x78
 8006594:	079b      	lsls	r3, r3, #30
 8006596:	d502      	bpl.n	800659e <spindle_set_state+0x3a>
 8006598:	2d20      	cmp	r5, #32
 800659a:	bf08      	it	eq
 800659c:	2600      	moveq	r6, #0
 800659e:	4630      	mov	r0, r6
 80065a0:	f7ff ff82 	bl	80064a8 <spindle_compute_pwm_value>
 80065a4:	f7ff ff70 	bl	8006488 <spindle_set_speed>
 80065a8:	e7e7      	b.n	800657a <spindle_set_state+0x16>
 80065aa:	f001 f99e 	bl	80078ea <GPIO_SetBits>
 80065ae:	e7ee      	b.n	800658e <spindle_set_state+0x2a>
 80065b0:	200038d4 	.word	0x200038d4
 80065b4:	40010c00 	.word	0x40010c00
 80065b8:	20003f70 	.word	0x20003f70

080065bc <spindle_sync>:
 80065bc:	b538      	push	{r3, r4, r5, lr}
 80065be:	4b07      	ldr	r3, [pc, #28]	; (80065dc <spindle_sync+0x20>)
 80065c0:	4604      	mov	r4, r0
 80065c2:	781b      	ldrb	r3, [r3, #0]
 80065c4:	460d      	mov	r5, r1
 80065c6:	2b02      	cmp	r3, #2
 80065c8:	d007      	beq.n	80065da <spindle_sync+0x1e>
 80065ca:	f7fe ff8b 	bl	80054e4 <protocol_buffer_synchronize>
 80065ce:	4629      	mov	r1, r5
 80065d0:	4620      	mov	r0, r4
 80065d2:	e8bd 4038 	ldmia.w	sp!, {r3, r4, r5, lr}
 80065d6:	f7ff bfc5 	b.w	8006564 <spindle_set_state>
 80065da:	bd38      	pop	{r3, r4, r5, pc}
 80065dc:	200038d4 	.word	0x200038d4

080065e0 <st_wake_up>:
 80065e0:	b538      	push	{r3, r4, r5, lr}
 80065e2:	4c1a      	ldr	r4, [pc, #104]	; (800664c <st_wake_up+0x6c>)
 80065e4:	f44f 4100 	mov.w	r1, #32768	; 0x8000
 80065e8:	f894 2078 	ldrb.w	r2, [r4, #120]	; 0x78
 80065ec:	4818      	ldr	r0, [pc, #96]	; (8006650 <st_wake_up+0x70>)
 80065ee:	0753      	lsls	r3, r2, #29
 80065f0:	d529      	bpl.n	8006646 <st_wake_up+0x66>
 80065f2:	f001 f97a 	bl	80078ea <GPIO_SetBits>
 80065f6:	4b17      	ldr	r3, [pc, #92]	; (8006654 <st_wake_up+0x74>)
 80065f8:	4d17      	ldr	r5, [pc, #92]	; (8006658 <st_wake_up+0x78>)
 80065fa:	881b      	ldrh	r3, [r3, #0]
 80065fc:	836b      	strh	r3, [r5, #26]
 80065fe:	4b17      	ldr	r3, [pc, #92]	; (800665c <st_wake_up+0x7c>)
 8006600:	6818      	ldr	r0, [r3, #0]
 8006602:	f7fa fb67 	bl	8000cd4 <__aeabi_ui2f>
 8006606:	6e21      	ldr	r1, [r4, #96]	; 0x60
 8006608:	f7fa fbbc 	bl	8000d84 <__aeabi_fmul>
 800660c:	f7fa fdbc 	bl	8001188 <__aeabi_f2uiz>
 8006610:	4b13      	ldr	r3, [pc, #76]	; (8006660 <st_wake_up+0x80>)
 8006612:	b2c0      	uxtb	r0, r0
 8006614:	7668      	strb	r0, [r5, #25]
 8006616:	3801      	subs	r0, #1
 8006618:	62d8      	str	r0, [r3, #44]	; 0x2c
 800661a:	695a      	ldr	r2, [r3, #20]
 800661c:	f042 0201 	orr.w	r2, r2, #1
 8006620:	615a      	str	r2, [r3, #20]
 8006622:	f06f 0201 	mvn.w	r2, #1
 8006626:	611a      	str	r2, [r3, #16]
 8006628:	6c2b      	ldr	r3, [r5, #64]	; 0x40
 800662a:	885a      	ldrh	r2, [r3, #2]
 800662c:	f04f 4380 	mov.w	r3, #1073741824	; 0x40000000
 8006630:	3a01      	subs	r2, #1
 8006632:	62da      	str	r2, [r3, #44]	; 0x2c
 8006634:	695a      	ldr	r2, [r3, #20]
 8006636:	f042 0201 	orr.w	r2, r2, #1
 800663a:	615a      	str	r2, [r3, #20]
 800663c:	f04f 5280 	mov.w	r2, #268435456	; 0x10000000
 8006640:	4b08      	ldr	r3, [pc, #32]	; (8006664 <st_wake_up+0x84>)
 8006642:	601a      	str	r2, [r3, #0]
 8006644:	bd38      	pop	{r3, r4, r5, pc}
 8006646:	f001 f94d 	bl	80078e4 <GPIO_ResetBits>
 800664a:	e7d4      	b.n	80065f6 <st_wake_up+0x16>
 800664c:	20003f70 	.word	0x20003f70
 8006650:	40011000 	.word	0x40011000
 8006654:	20003894 	.word	0x20003894
 8006658:	2000346c 	.word	0x2000346c
 800665c:	2000389c 	.word	0x2000389c
 8006660:	40000400 	.word	0x40000400
 8006664:	e000e100 	.word	0xe000e100

08006668 <st_go_idle>:
 8006668:	f04f 5280 	mov.w	r2, #268435456	; 0x10000000
 800666c:	4b17      	ldr	r3, [pc, #92]	; (80066cc <st_go_idle+0x64>)
 800666e:	b510      	push	{r4, lr}
 8006670:	f8c3 2080 	str.w	r2, [r3, #128]	; 0x80
 8006674:	2200      	movs	r2, #0
 8006676:	4c16      	ldr	r4, [pc, #88]	; (80066d0 <st_go_idle+0x68>)
 8006678:	4b16      	ldr	r3, [pc, #88]	; (80066d4 <st_go_idle+0x6c>)
 800667a:	f894 0066 	ldrb.w	r0, [r4, #102]	; 0x66
 800667e:	701a      	strb	r2, [r3, #0]
 8006680:	28ff      	cmp	r0, #255	; 0xff
 8006682:	4a15      	ldr	r2, [pc, #84]	; (80066d8 <st_go_idle+0x70>)
 8006684:	d107      	bne.n	8006696 <st_go_idle+0x2e>
 8006686:	4b15      	ldr	r3, [pc, #84]	; (80066dc <st_go_idle+0x74>)
 8006688:	7819      	ldrb	r1, [r3, #0]
 800668a:	f001 03ff 	and.w	r3, r1, #255	; 0xff
 800668e:	b911      	cbnz	r1, 8006696 <st_go_idle+0x2e>
 8006690:	7811      	ldrb	r1, [r2, #0]
 8006692:	2980      	cmp	r1, #128	; 0x80
 8006694:	d105      	bne.n	80066a2 <st_go_idle+0x3a>
 8006696:	7813      	ldrb	r3, [r2, #0]
 8006698:	2b04      	cmp	r3, #4
 800669a:	d010      	beq.n	80066be <st_go_idle+0x56>
 800669c:	f7fd feee 	bl	800447c <delay_ms>
 80066a0:	2301      	movs	r3, #1
 80066a2:	f894 2078 	ldrb.w	r2, [r4, #120]	; 0x78
 80066a6:	f44f 4100 	mov.w	r1, #32768	; 0x8000
 80066aa:	0752      	lsls	r2, r2, #29
 80066ac:	bf48      	it	mi
 80066ae:	f083 0301 	eormi.w	r3, r3, #1
 80066b2:	480b      	ldr	r0, [pc, #44]	; (80066e0 <st_go_idle+0x78>)
 80066b4:	b12b      	cbz	r3, 80066c2 <st_go_idle+0x5a>
 80066b6:	e8bd 4010 	ldmia.w	sp!, {r4, lr}
 80066ba:	f001 b916 	b.w	80078ea <GPIO_SetBits>
 80066be:	2300      	movs	r3, #0
 80066c0:	e7ef      	b.n	80066a2 <st_go_idle+0x3a>
 80066c2:	e8bd 4010 	ldmia.w	sp!, {r4, lr}
 80066c6:	f001 b90d 	b.w	80078e4 <GPIO_ResetBits>
 80066ca:	bf00      	nop
 80066cc:	e000e100 	.word	0xe000e100
 80066d0:	20003f70 	.word	0x20003f70
 80066d4:	20003328 	.word	0x20003328
 80066d8:	200038d4 	.word	0x200038d4
 80066dc:	2000391c 	.word	0x2000391c
 80066e0:	40011000 	.word	0x40011000

080066e4 <HandleStepSetIT>:
 80066e4:	b5f8      	push	{r3, r4, r5, r6, r7, lr}
 80066e6:	4d91      	ldr	r5, [pc, #580]	; (800692c <HandleStepSetIT+0x248>)
 80066e8:	782b      	ldrb	r3, [r5, #0]
 80066ea:	2b00      	cmp	r3, #0
 80066ec:	f040 8110 	bne.w	8006910 <HandleStepSetIT+0x22c>
 80066f0:	4a8f      	ldr	r2, [pc, #572]	; (8006930 <HandleStepSetIT+0x24c>)
 80066f2:	4e90      	ldr	r6, [pc, #576]	; (8006934 <HandleStepSetIT+0x250>)
 80066f4:	68d1      	ldr	r1, [r2, #12]
 80066f6:	8bb3      	ldrh	r3, [r6, #28]
 80066f8:	f021 01f9 	bic.w	r1, r1, #249	; 0xf9
 80066fc:	f003 03f9 	and.w	r3, r3, #249	; 0xf9
 8006700:	430b      	orrs	r3, r1
 8006702:	f06f 0101 	mvn.w	r1, #1
 8006706:	60d3      	str	r3, [r2, #12]
 8006708:	4b8b      	ldr	r3, [pc, #556]	; (8006938 <HandleStepSetIT+0x254>)
 800670a:	6c37      	ldr	r7, [r6, #64]	; 0x40
 800670c:	6119      	str	r1, [r3, #16]
 800670e:	68d3      	ldr	r3, [r2, #12]
 8006710:	8b71      	ldrh	r1, [r6, #26]
 8006712:	f423 53f0 	bic.w	r3, r3, #7680	; 0x1e00
 8006716:	f023 0306 	bic.w	r3, r3, #6
 800671a:	430b      	orrs	r3, r1
 800671c:	60d3      	str	r3, [r2, #12]
 800671e:	f04f 5200 	mov.w	r2, #536870912	; 0x20000000
 8006722:	4b86      	ldr	r3, [pc, #536]	; (800693c <HandleStepSetIT+0x258>)
 8006724:	4634      	mov	r4, r6
 8006726:	601a      	str	r2, [r3, #0]
 8006728:	2301      	movs	r3, #1
 800672a:	702b      	strb	r3, [r5, #0]
 800672c:	2f00      	cmp	r7, #0
 800672e:	d146      	bne.n	80067be <HandleStepSetIT+0xda>
 8006730:	4b83      	ldr	r3, [pc, #524]	; (8006940 <HandleStepSetIT+0x25c>)
 8006732:	4984      	ldr	r1, [pc, #528]	; (8006944 <HandleStepSetIT+0x260>)
 8006734:	781a      	ldrb	r2, [r3, #0]
 8006736:	7809      	ldrb	r1, [r1, #0]
 8006738:	4291      	cmp	r1, r2
 800673a:	f000 80ea 	beq.w	8006912 <HandleStepSetIT+0x22e>
 800673e:	f04f 4780 	mov.w	r7, #1073741824	; 0x40000000
 8006742:	781a      	ldrb	r2, [r3, #0]
 8006744:	4b80      	ldr	r3, [pc, #512]	; (8006948 <HandleStepSetIT+0x264>)
 8006746:	b2d2      	uxtb	r2, r2
 8006748:	00d6      	lsls	r6, r2, #3
 800674a:	1999      	adds	r1, r3, r6
 800674c:	8848      	ldrh	r0, [r1, #2]
 800674e:	f833 2032 	ldrh.w	r2, [r3, r2, lsl #3]
 8006752:	3801      	subs	r0, #1
 8006754:	6421      	str	r1, [r4, #64]	; 0x40
 8006756:	62f8      	str	r0, [r7, #44]	; 0x2c
 8006758:	7908      	ldrb	r0, [r1, #4]
 800675a:	8722      	strh	r2, [r4, #56]	; 0x38
 800675c:	f894 203a 	ldrb.w	r2, [r4, #58]	; 0x3a
 8006760:	4619      	mov	r1, r3
 8006762:	4282      	cmp	r2, r0
 8006764:	d00d      	beq.n	8006782 <HandleStepSetIT+0x9e>
 8006766:	4a79      	ldr	r2, [pc, #484]	; (800694c <HandleStepSetIT+0x268>)
 8006768:	f884 003a 	strb.w	r0, [r4, #58]	; 0x3a
 800676c:	eb02 1240 	add.w	r2, r2, r0, lsl #5
 8006770:	6993      	ldr	r3, [r2, #24]
 8006772:	63e2      	str	r2, [r4, #60]	; 0x3c
 8006774:	085b      	lsrs	r3, r3, #1
 8006776:	6163      	str	r3, [r4, #20]
 8006778:	6123      	str	r3, [r4, #16]
 800677a:	60e3      	str	r3, [r4, #12]
 800677c:	60a3      	str	r3, [r4, #8]
 800677e:	6063      	str	r3, [r4, #4]
 8006780:	6023      	str	r3, [r4, #0]
 8006782:	6be3      	ldr	r3, [r4, #60]	; 0x3c
 8006784:	4872      	ldr	r0, [pc, #456]	; (8006950 <HandleStepSetIT+0x26c>)
 8006786:	7f1a      	ldrb	r2, [r3, #28]
 8006788:	8800      	ldrh	r0, [r0, #0]
 800678a:	4431      	add	r1, r6
 800678c:	4042      	eors	r2, r0
 800678e:	83a2      	strh	r2, [r4, #28]
 8006790:	6818      	ldr	r0, [r3, #0]
 8006792:	794a      	ldrb	r2, [r1, #5]
 8006794:	40d0      	lsrs	r0, r2
 8006796:	6220      	str	r0, [r4, #32]
 8006798:	6858      	ldr	r0, [r3, #4]
 800679a:	40d0      	lsrs	r0, r2
 800679c:	6260      	str	r0, [r4, #36]	; 0x24
 800679e:	6898      	ldr	r0, [r3, #8]
 80067a0:	40d0      	lsrs	r0, r2
 80067a2:	62a0      	str	r0, [r4, #40]	; 0x28
 80067a4:	68d8      	ldr	r0, [r3, #12]
 80067a6:	40d0      	lsrs	r0, r2
 80067a8:	62e0      	str	r0, [r4, #44]	; 0x2c
 80067aa:	6918      	ldr	r0, [r3, #16]
 80067ac:	695b      	ldr	r3, [r3, #20]
 80067ae:	40d0      	lsrs	r0, r2
 80067b0:	6320      	str	r0, [r4, #48]	; 0x30
 80067b2:	fa23 f202 	lsr.w	r2, r3, r2
 80067b6:	88c8      	ldrh	r0, [r1, #6]
 80067b8:	6362      	str	r2, [r4, #52]	; 0x34
 80067ba:	f7ff fe65 	bl	8006488 <spindle_set_speed>
 80067be:	4b65      	ldr	r3, [pc, #404]	; (8006954 <HandleStepSetIT+0x270>)
 80067c0:	781b      	ldrb	r3, [r3, #0]
 80067c2:	2b01      	cmp	r3, #1
 80067c4:	d101      	bne.n	80067ca <HandleStepSetIT+0xe6>
 80067c6:	f7fe fb49 	bl	8004e5c <probe_state_monitor>
 80067ca:	2300      	movs	r3, #0
 80067cc:	6821      	ldr	r1, [r4, #0]
 80067ce:	8363      	strh	r3, [r4, #26]
 80067d0:	6be2      	ldr	r2, [r4, #60]	; 0x3c
 80067d2:	6a23      	ldr	r3, [r4, #32]
 80067d4:	4419      	add	r1, r3
 80067d6:	6993      	ldr	r3, [r2, #24]
 80067d8:	6021      	str	r1, [r4, #0]
 80067da:	4299      	cmp	r1, r3
 80067dc:	d90d      	bls.n	80067fa <HandleStepSetIT+0x116>
 80067de:	2002      	movs	r0, #2
 80067e0:	1ac9      	subs	r1, r1, r3
 80067e2:	6021      	str	r1, [r4, #0]
 80067e4:	7f11      	ldrb	r1, [r2, #28]
 80067e6:	8360      	strh	r0, [r4, #26]
 80067e8:	f011 0f01 	tst.w	r1, #1
 80067ec:	495a      	ldr	r1, [pc, #360]	; (8006958 <HandleStepSetIT+0x274>)
 80067ee:	6808      	ldr	r0, [r1, #0]
 80067f0:	bf14      	ite	ne
 80067f2:	f100 30ff 	addne.w	r0, r0, #4294967295
 80067f6:	3001      	addeq	r0, #1
 80067f8:	6008      	str	r0, [r1, #0]
 80067fa:	6861      	ldr	r1, [r4, #4]
 80067fc:	6a60      	ldr	r0, [r4, #36]	; 0x24
 80067fe:	4401      	add	r1, r0
 8006800:	428b      	cmp	r3, r1
 8006802:	6061      	str	r1, [r4, #4]
 8006804:	d20f      	bcs.n	8006826 <HandleStepSetIT+0x142>
 8006806:	1ac9      	subs	r1, r1, r3
 8006808:	6061      	str	r1, [r4, #4]
 800680a:	7f11      	ldrb	r1, [r2, #28]
 800680c:	8b60      	ldrh	r0, [r4, #26]
 800680e:	f011 0f10 	tst.w	r1, #16
 8006812:	4951      	ldr	r1, [pc, #324]	; (8006958 <HandleStepSetIT+0x274>)
 8006814:	f440 5080 	orr.w	r0, r0, #4096	; 0x1000
 8006818:	8360      	strh	r0, [r4, #26]
 800681a:	6848      	ldr	r0, [r1, #4]
 800681c:	bf14      	ite	ne
 800681e:	f100 30ff 	addne.w	r0, r0, #4294967295
 8006822:	3001      	addeq	r0, #1
 8006824:	6048      	str	r0, [r1, #4]
 8006826:	68a1      	ldr	r1, [r4, #8]
 8006828:	6aa0      	ldr	r0, [r4, #40]	; 0x28
 800682a:	4401      	add	r1, r0
 800682c:	428b      	cmp	r3, r1
 800682e:	60a1      	str	r1, [r4, #8]
 8006830:	d20f      	bcs.n	8006852 <HandleStepSetIT+0x16e>
 8006832:	1ac9      	subs	r1, r1, r3
 8006834:	60a1      	str	r1, [r4, #8]
 8006836:	7f11      	ldrb	r1, [r2, #28]
 8006838:	8b60      	ldrh	r0, [r4, #26]
 800683a:	f011 0f20 	tst.w	r1, #32
 800683e:	4946      	ldr	r1, [pc, #280]	; (8006958 <HandleStepSetIT+0x274>)
 8006840:	f040 0004 	orr.w	r0, r0, #4
 8006844:	8360      	strh	r0, [r4, #26]
 8006846:	6888      	ldr	r0, [r1, #8]
 8006848:	bf14      	ite	ne
 800684a:	f100 30ff 	addne.w	r0, r0, #4294967295
 800684e:	3001      	addeq	r0, #1
 8006850:	6088      	str	r0, [r1, #8]
 8006852:	68e1      	ldr	r1, [r4, #12]
 8006854:	6ae0      	ldr	r0, [r4, #44]	; 0x2c
 8006856:	4401      	add	r1, r0
 8006858:	428b      	cmp	r3, r1
 800685a:	60e1      	str	r1, [r4, #12]
 800685c:	d20f      	bcs.n	800687e <HandleStepSetIT+0x19a>
 800685e:	1ac9      	subs	r1, r1, r3
 8006860:	60e1      	str	r1, [r4, #12]
 8006862:	7f11      	ldrb	r1, [r2, #28]
 8006864:	8b60      	ldrh	r0, [r4, #26]
 8006866:	f011 0f40 	tst.w	r1, #64	; 0x40
 800686a:	493b      	ldr	r1, [pc, #236]	; (8006958 <HandleStepSetIT+0x274>)
 800686c:	f440 6080 	orr.w	r0, r0, #1024	; 0x400
 8006870:	8360      	strh	r0, [r4, #26]
 8006872:	68c8      	ldr	r0, [r1, #12]
 8006874:	bf14      	ite	ne
 8006876:	f100 30ff 	addne.w	r0, r0, #4294967295
 800687a:	3001      	addeq	r0, #1
 800687c:	60c8      	str	r0, [r1, #12]
 800687e:	6921      	ldr	r1, [r4, #16]
 8006880:	6b20      	ldr	r0, [r4, #48]	; 0x30
 8006882:	4401      	add	r1, r0
 8006884:	428b      	cmp	r3, r1
 8006886:	6121      	str	r1, [r4, #16]
 8006888:	d20f      	bcs.n	80068aa <HandleStepSetIT+0x1c6>
 800688a:	1ac9      	subs	r1, r1, r3
 800688c:	6121      	str	r1, [r4, #16]
 800688e:	f992 101c 	ldrsb.w	r1, [r2, #28]
 8006892:	8b60      	ldrh	r0, [r4, #26]
 8006894:	2900      	cmp	r1, #0
 8006896:	4930      	ldr	r1, [pc, #192]	; (8006958 <HandleStepSetIT+0x274>)
 8006898:	f440 6000 	orr.w	r0, r0, #2048	; 0x800
 800689c:	8360      	strh	r0, [r4, #26]
 800689e:	6908      	ldr	r0, [r1, #16]
 80068a0:	bfb4      	ite	lt
 80068a2:	f100 30ff 	addlt.w	r0, r0, #4294967295
 80068a6:	3001      	addge	r0, #1
 80068a8:	6108      	str	r0, [r1, #16]
 80068aa:	6961      	ldr	r1, [r4, #20]
 80068ac:	6b60      	ldr	r0, [r4, #52]	; 0x34
 80068ae:	4401      	add	r1, r0
 80068b0:	428b      	cmp	r3, r1
 80068b2:	6161      	str	r1, [r4, #20]
 80068b4:	d20f      	bcs.n	80068d6 <HandleStepSetIT+0x1f2>
 80068b6:	1acb      	subs	r3, r1, r3
 80068b8:	6163      	str	r3, [r4, #20]
 80068ba:	7f13      	ldrb	r3, [r2, #28]
 80068bc:	8b60      	ldrh	r0, [r4, #26]
 80068be:	f013 0f08 	tst.w	r3, #8
 80068c2:	4b25      	ldr	r3, [pc, #148]	; (8006958 <HandleStepSetIT+0x274>)
 80068c4:	f440 7000 	orr.w	r0, r0, #512	; 0x200
 80068c8:	695a      	ldr	r2, [r3, #20]
 80068ca:	8360      	strh	r0, [r4, #26]
 80068cc:	bf14      	ite	ne
 80068ce:	f102 32ff 	addne.w	r2, r2, #4294967295
 80068d2:	3201      	addeq	r2, #1
 80068d4:	615a      	str	r2, [r3, #20]
 80068d6:	4a21      	ldr	r2, [pc, #132]	; (800695c <HandleStepSetIT+0x278>)
 80068d8:	7813      	ldrb	r3, [r2, #0]
 80068da:	2b04      	cmp	r3, #4
 80068dc:	bf01      	itttt	eq
 80068de:	8b63      	ldrheq	r3, [r4, #26]
 80068e0:	88d2      	ldrheq	r2, [r2, #6]
 80068e2:	4013      	andeq	r3, r2
 80068e4:	8363      	strheq	r3, [r4, #26]
 80068e6:	8f23      	ldrh	r3, [r4, #56]	; 0x38
 80068e8:	3b01      	subs	r3, #1
 80068ea:	b29b      	uxth	r3, r3
 80068ec:	8723      	strh	r3, [r4, #56]	; 0x38
 80068ee:	b943      	cbnz	r3, 8006902 <HandleStepSetIT+0x21e>
 80068f0:	4a13      	ldr	r2, [pc, #76]	; (8006940 <HandleStepSetIT+0x25c>)
 80068f2:	6423      	str	r3, [r4, #64]	; 0x40
 80068f4:	7813      	ldrb	r3, [r2, #0]
 80068f6:	3301      	adds	r3, #1
 80068f8:	b2db      	uxtb	r3, r3
 80068fa:	2b20      	cmp	r3, #32
 80068fc:	bf08      	it	eq
 80068fe:	2300      	moveq	r3, #0
 8006900:	7013      	strb	r3, [r2, #0]
 8006902:	4a17      	ldr	r2, [pc, #92]	; (8006960 <HandleStepSetIT+0x27c>)
 8006904:	8b63      	ldrh	r3, [r4, #26]
 8006906:	8812      	ldrh	r2, [r2, #0]
 8006908:	4053      	eors	r3, r2
 800690a:	8363      	strh	r3, [r4, #26]
 800690c:	2300      	movs	r3, #0
 800690e:	702b      	strb	r3, [r5, #0]
 8006910:	bdf8      	pop	{r3, r4, r5, r6, r7, pc}
 8006912:	f7ff fea9 	bl	8006668 <st_go_idle>
 8006916:	6bf3      	ldr	r3, [r6, #60]	; 0x3c
 8006918:	7f5b      	ldrb	r3, [r3, #29]
 800691a:	b113      	cbz	r3, 8006922 <HandleStepSetIT+0x23e>
 800691c:	4638      	mov	r0, r7
 800691e:	f7ff fdb3 	bl	8006488 <spindle_set_speed>
 8006922:	e8bd 40f8 	ldmia.w	sp!, {r3, r4, r5, r6, r7, lr}
 8006926:	2004      	movs	r0, #4
 8006928:	f000 bd52 	b.w	80073d0 <system_set_exec_state_flag>
 800692c:	20003328 	.word	0x20003328
 8006930:	40010800 	.word	0x40010800
 8006934:	2000346c 	.word	0x2000346c
 8006938:	40000400 	.word	0x40000400
 800693c:	e000e100 	.word	0xe000e100
 8006940:	20003469 	.word	0x20003469
 8006944:	20003468 	.word	0x20003468
 8006948:	20003368 	.word	0x20003368
 800694c:	200034b0 	.word	0x200034b0
 8006950:	2000332a 	.word	0x2000332a
 8006954:	200038ea 	.word	0x200038ea
 8006958:	20003904 	.word	0x20003904
 800695c:	200038d4 	.word	0x200038d4
 8006960:	20003894 	.word	0x20003894

08006964 <HandleStepResetIT>:
 8006964:	4b08      	ldr	r3, [pc, #32]	; (8006988 <HandleStepResetIT+0x24>)
 8006966:	4909      	ldr	r1, [pc, #36]	; (800698c <HandleStepResetIT+0x28>)
 8006968:	881b      	ldrh	r3, [r3, #0]
 800696a:	68ca      	ldr	r2, [r1, #12]
 800696c:	f423 73fc 	bic.w	r3, r3, #504	; 0x1f8
 8006970:	f023 0301 	bic.w	r3, r3, #1
 8006974:	04db      	lsls	r3, r3, #19
 8006976:	f422 52f0 	bic.w	r2, r2, #7680	; 0x1e00
 800697a:	0cdb      	lsrs	r3, r3, #19
 800697c:	f022 0206 	bic.w	r2, r2, #6
 8006980:	4313      	orrs	r3, r2
 8006982:	60cb      	str	r3, [r1, #12]
 8006984:	4770      	bx	lr
 8006986:	bf00      	nop
 8006988:	20003894 	.word	0x20003894
 800698c:	40010800 	.word	0x40010800

08006990 <st_generate_step_dir_invert_masks>:
 8006990:	2300      	movs	r3, #0
 8006992:	e92d 43f0 	stmdb	sp!, {r4, r5, r6, r7, r8, r9, lr}
 8006996:	4817      	ldr	r0, [pc, #92]	; (80069f4 <st_generate_step_dir_invert_masks+0x64>)
 8006998:	461d      	mov	r5, r3
 800699a:	f890 7064 	ldrb.w	r7, [r0, #100]	; 0x64
 800699e:	f890 e065 	ldrb.w	lr, [r0, #101]	; 0x65
 80069a2:	461e      	mov	r6, r3
 80069a4:	4618      	mov	r0, r3
 80069a6:	461c      	mov	r4, r3
 80069a8:	4913      	ldr	r1, [pc, #76]	; (80069f8 <st_generate_step_dir_invert_masks+0x68>)
 80069aa:	4a14      	ldr	r2, [pc, #80]	; (80069fc <st_generate_step_dir_invert_masks+0x6c>)
 80069ac:	f8df c050 	ldr.w	ip, [pc, #80]	; 8006a00 <st_generate_step_dir_invert_masks+0x70>
 80069b0:	f8df 8050 	ldr.w	r8, [pc, #80]	; 8006a04 <st_generate_step_dir_invert_masks+0x74>
 80069b4:	800b      	strh	r3, [r1, #0]
 80069b6:	8013      	strh	r3, [r2, #0]
 80069b8:	fa47 f903 	asr.w	r9, r7, r3
 80069bc:	f019 0f01 	tst.w	r9, #1
 80069c0:	bf18      	it	ne
 80069c2:	f83c 6013 	ldrhne.w	r6, [ip, r3, lsl #1]
 80069c6:	fa4e f903 	asr.w	r9, lr, r3
 80069ca:	bf1c      	itt	ne
 80069cc:	4334      	orrne	r4, r6
 80069ce:	2601      	movne	r6, #1
 80069d0:	f019 0f01 	tst.w	r9, #1
 80069d4:	bf18      	it	ne
 80069d6:	f838 5013 	ldrhne.w	r5, [r8, r3, lsl #1]
 80069da:	f103 0301 	add.w	r3, r3, #1
 80069de:	bf1c      	itt	ne
 80069e0:	4328      	orrne	r0, r5
 80069e2:	2501      	movne	r5, #1
 80069e4:	2b06      	cmp	r3, #6
 80069e6:	d1e7      	bne.n	80069b8 <st_generate_step_dir_invert_masks+0x28>
 80069e8:	b106      	cbz	r6, 80069ec <st_generate_step_dir_invert_masks+0x5c>
 80069ea:	800c      	strh	r4, [r1, #0]
 80069ec:	b105      	cbz	r5, 80069f0 <st_generate_step_dir_invert_masks+0x60>
 80069ee:	8010      	strh	r0, [r2, #0]
 80069f0:	e8bd 83f0 	ldmia.w	sp!, {r4, r5, r6, r7, r8, r9, pc}
 80069f4:	20003f70 	.word	0x20003f70
 80069f8:	20003894 	.word	0x20003894
 80069fc:	2000332a 	.word	0x2000332a
 8006a00:	08009a5a 	.word	0x08009a5a
 8006a04:	08009a42 	.word	0x08009a42

08006a08 <st_reset>:
 8006a08:	b538      	push	{r3, r4, r5, lr}
 8006a0a:	4d1b      	ldr	r5, [pc, #108]	; (8006a78 <st_reset+0x70>)
 8006a0c:	f7ff fe2c 	bl	8006668 <st_go_idle>
 8006a10:	2238      	movs	r2, #56	; 0x38
 8006a12:	2100      	movs	r1, #0
 8006a14:	4819      	ldr	r0, [pc, #100]	; (8006a7c <st_reset+0x74>)
 8006a16:	f000 ffa4 	bl	8007962 <memset>
 8006a1a:	2244      	movs	r2, #68	; 0x44
 8006a1c:	2100      	movs	r1, #0
 8006a1e:	4628      	mov	r0, r5
 8006a20:	f000 ff9f 	bl	8007962 <memset>
 8006a24:	2300      	movs	r3, #0
 8006a26:	2101      	movs	r1, #1
 8006a28:	4a15      	ldr	r2, [pc, #84]	; (8006a80 <st_reset+0x78>)
 8006a2a:	6013      	str	r3, [r2, #0]
 8006a2c:	4a15      	ldr	r2, [pc, #84]	; (8006a84 <st_reset+0x7c>)
 8006a2e:	7013      	strb	r3, [r2, #0]
 8006a30:	4a15      	ldr	r2, [pc, #84]	; (8006a88 <st_reset+0x80>)
 8006a32:	7013      	strb	r3, [r2, #0]
 8006a34:	4a15      	ldr	r2, [pc, #84]	; (8006a8c <st_reset+0x84>)
 8006a36:	7011      	strb	r1, [r2, #0]
 8006a38:	4a15      	ldr	r2, [pc, #84]	; (8006a90 <st_reset+0x88>)
 8006a3a:	7013      	strb	r3, [r2, #0]
 8006a3c:	f7ff ffa8 	bl	8006990 <st_generate_step_dir_invert_masks>
 8006a40:	4b14      	ldr	r3, [pc, #80]	; (8006a94 <st_reset+0x8c>)
 8006a42:	4815      	ldr	r0, [pc, #84]	; (8006a98 <st_reset+0x90>)
 8006a44:	881c      	ldrh	r4, [r3, #0]
 8006a46:	4b15      	ldr	r3, [pc, #84]	; (8006a9c <st_reset+0x94>)
 8006a48:	68c1      	ldr	r1, [r0, #12]
 8006a4a:	881a      	ldrh	r2, [r3, #0]
 8006a4c:	f421 51f0 	bic.w	r1, r1, #7680	; 0x1e00
 8006a50:	f422 72fc 	bic.w	r2, r2, #504	; 0x1f8
 8006a54:	f022 0201 	bic.w	r2, r2, #1
 8006a58:	04d2      	lsls	r2, r2, #19
 8006a5a:	0cd2      	lsrs	r2, r2, #19
 8006a5c:	f021 0106 	bic.w	r1, r1, #6
 8006a60:	430a      	orrs	r2, r1
 8006a62:	83ac      	strh	r4, [r5, #28]
 8006a64:	60c2      	str	r2, [r0, #12]
 8006a66:	68c3      	ldr	r3, [r0, #12]
 8006a68:	f004 04f9 	and.w	r4, r4, #249	; 0xf9
 8006a6c:	f023 03f9 	bic.w	r3, r3, #249	; 0xf9
 8006a70:	4323      	orrs	r3, r4
 8006a72:	60c3      	str	r3, [r0, #12]
 8006a74:	bd38      	pop	{r3, r4, r5, pc}
 8006a76:	bf00      	nop
 8006a78:	2000346c 	.word	0x2000346c
 8006a7c:	20003330 	.word	0x20003330
 8006a80:	2000332c 	.word	0x2000332c
 8006a84:	20003469 	.word	0x20003469
 8006a88:	20003468 	.word	0x20003468
 8006a8c:	2000346a 	.word	0x2000346a
 8006a90:	20003328 	.word	0x20003328
 8006a94:	2000332a 	.word	0x2000332a
 8006a98:	40010800 	.word	0x40010800
 8006a9c:	20003894 	.word	0x20003894

08006aa0 <stepper_init>:
 8006aa0:	f04f 4380 	mov.w	r3, #1073741824	; 0x40000000
 8006aa4:	68da      	ldr	r2, [r3, #12]
 8006aa6:	f042 0201 	orr.w	r2, r2, #1
 8006aaa:	60da      	str	r2, [r3, #12]
 8006aac:	681a      	ldr	r2, [r3, #0]
 8006aae:	f042 0201 	orr.w	r2, r2, #1
 8006ab2:	601a      	str	r2, [r3, #0]
 8006ab4:	f8d3 240c 	ldr.w	r2, [r3, #1036]	; 0x40c
 8006ab8:	f042 0201 	orr.w	r2, r2, #1
 8006abc:	f8c3 240c 	str.w	r2, [r3, #1036]	; 0x40c
 8006ac0:	f8d3 2400 	ldr.w	r2, [r3, #1024]	; 0x400
 8006ac4:	f042 0201 	orr.w	r2, r2, #1
 8006ac8:	f8c3 2400 	str.w	r2, [r3, #1024]	; 0x400
 8006acc:	f04f 5280 	mov.w	r2, #268435456	; 0x10000000
 8006ad0:	4b03      	ldr	r3, [pc, #12]	; (8006ae0 <stepper_init+0x40>)
 8006ad2:	f8c3 2080 	str.w	r2, [r3, #128]	; 0x80
 8006ad6:	f04f 5200 	mov.w	r2, #536870912	; 0x20000000
 8006ada:	f8c3 2080 	str.w	r2, [r3, #128]	; 0x80
 8006ade:	4770      	bx	lr
 8006ae0:	e000e100 	.word	0xe000e100

08006ae4 <st_update_plan_block_parameters>:
 8006ae4:	b538      	push	{r3, r4, r5, lr}
 8006ae6:	4c08      	ldr	r4, [pc, #32]	; (8006b08 <st_update_plan_block_parameters+0x24>)
 8006ae8:	6825      	ldr	r5, [r4, #0]
 8006aea:	b15d      	cbz	r5, 8006b04 <st_update_plan_block_parameters+0x20>
 8006aec:	4b07      	ldr	r3, [pc, #28]	; (8006b0c <st_update_plan_block_parameters+0x28>)
 8006aee:	785a      	ldrb	r2, [r3, #1]
 8006af0:	69d9      	ldr	r1, [r3, #28]
 8006af2:	f042 0201 	orr.w	r2, r2, #1
 8006af6:	705a      	strb	r2, [r3, #1]
 8006af8:	4608      	mov	r0, r1
 8006afa:	f7fa f943 	bl	8000d84 <__aeabi_fmul>
 8006afe:	2300      	movs	r3, #0
 8006b00:	6228      	str	r0, [r5, #32]
 8006b02:	6023      	str	r3, [r4, #0]
 8006b04:	bd38      	pop	{r3, r4, r5, pc}
 8006b06:	bf00      	nop
 8006b08:	2000332c 	.word	0x2000332c
 8006b0c:	20003330 	.word	0x20003330

08006b10 <st_prep_buffer>:
 8006b10:	e92d 4ff0 	stmdb	sp!, {r4, r5, r6, r7, r8, r9, sl, fp, lr}
 8006b14:	4ba0      	ldr	r3, [pc, #640]	; (8006d98 <st_prep_buffer+0x288>)
 8006b16:	b08d      	sub	sp, #52	; 0x34
 8006b18:	791b      	ldrb	r3, [r3, #4]
 8006b1a:	07dc      	lsls	r4, r3, #31
 8006b1c:	f100 8135 	bmi.w	8006d8a <st_prep_buffer+0x27a>
 8006b20:	f04f 0b00 	mov.w	fp, #0
 8006b24:	4b9d      	ldr	r3, [pc, #628]	; (8006d9c <st_prep_buffer+0x28c>)
 8006b26:	4a9e      	ldr	r2, [pc, #632]	; (8006da0 <st_prep_buffer+0x290>)
 8006b28:	781b      	ldrb	r3, [r3, #0]
 8006b2a:	7812      	ldrb	r2, [r2, #0]
 8006b2c:	429a      	cmp	r2, r3
 8006b2e:	f000 812c 	beq.w	8006d8a <st_prep_buffer+0x27a>
 8006b32:	4d9c      	ldr	r5, [pc, #624]	; (8006da4 <st_prep_buffer+0x294>)
 8006b34:	682b      	ldr	r3, [r5, #0]
 8006b36:	2b00      	cmp	r3, #0
 8006b38:	d14e      	bne.n	8006bd8 <st_prep_buffer+0xc8>
 8006b3a:	4b97      	ldr	r3, [pc, #604]	; (8006d98 <st_prep_buffer+0x288>)
 8006b3c:	791b      	ldrb	r3, [r3, #4]
 8006b3e:	0758      	lsls	r0, r3, #29
 8006b40:	f140 8126 	bpl.w	8006d90 <st_prep_buffer+0x280>
 8006b44:	f7fd fe08 	bl	8004758 <plan_get_system_motion_block>
 8006b48:	6028      	str	r0, [r5, #0]
 8006b4a:	682e      	ldr	r6, [r5, #0]
 8006b4c:	2e00      	cmp	r6, #0
 8006b4e:	f000 811c 	beq.w	8006d8a <st_prep_buffer+0x27a>
 8006b52:	4c95      	ldr	r4, [pc, #596]	; (8006da8 <st_prep_buffer+0x298>)
 8006b54:	f894 8001 	ldrb.w	r8, [r4, #1]
 8006b58:	f018 0101 	ands.w	r1, r8, #1
 8006b5c:	f000 812e 	beq.w	8006dbc <st_prep_buffer+0x2ac>
 8006b60:	2300      	movs	r3, #0
 8006b62:	7063      	strb	r3, [r4, #1]
 8006b64:	f8d5 9000 	ldr.w	r9, [r5]
 8006b68:	f8c4 b018 	str.w	fp, [r4, #24]
 8006b6c:	f8d9 7028 	ldr.w	r7, [r9, #40]	; 0x28
 8006b70:	f04f 507c 	mov.w	r0, #1056964608	; 0x3f000000
 8006b74:	4639      	mov	r1, r7
 8006b76:	f7fa f9b9 	bl	8000eec <__aeabi_fdiv>
 8006b7a:	4b87      	ldr	r3, [pc, #540]	; (8006d98 <st_prep_buffer+0x288>)
 8006b7c:	4680      	mov	r8, r0
 8006b7e:	791b      	ldrb	r3, [r3, #4]
 8006b80:	f8d9 602c 	ldr.w	r6, [r9, #44]	; 0x2c
 8006b84:	f013 0202 	ands.w	r2, r3, #2
 8006b88:	f000 8171 	beq.w	8006e6e <st_prep_buffer+0x35e>
 8006b8c:	2302      	movs	r3, #2
 8006b8e:	f8d9 8020 	ldr.w	r8, [r9, #32]
 8006b92:	7523      	strb	r3, [r4, #20]
 8006b94:	4641      	mov	r1, r8
 8006b96:	f7fa f8f5 	bl	8000d84 <__aeabi_fmul>
 8006b9a:	4601      	mov	r1, r0
 8006b9c:	4630      	mov	r0, r6
 8006b9e:	f7f9 ffe7 	bl	8000b70 <__aeabi_fsub>
 8006ba2:	4659      	mov	r1, fp
 8006ba4:	4681      	mov	r9, r0
 8006ba6:	f7fa fa8b 	bl	80010c0 <__aeabi_fcmplt>
 8006baa:	2800      	cmp	r0, #0
 8006bac:	f000 815a 	beq.w	8006e64 <st_prep_buffer+0x354>
 8006bb0:	4639      	mov	r1, r7
 8006bb2:	4638      	mov	r0, r7
 8006bb4:	f7f9 ffde 	bl	8000b74 <__addsf3>
 8006bb8:	4631      	mov	r1, r6
 8006bba:	f7fa f8e3 	bl	8000d84 <__aeabi_fmul>
 8006bbe:	4601      	mov	r1, r0
 8006bc0:	4640      	mov	r0, r8
 8006bc2:	f7f9 ffd5 	bl	8000b70 <__aeabi_fsub>
 8006bc6:	f001 fdc5 	bl	8008754 <sqrtf>
 8006bca:	6260      	str	r0, [r4, #36]	; 0x24
 8006bcc:	4b72      	ldr	r3, [pc, #456]	; (8006d98 <st_prep_buffer+0x288>)
 8006bce:	4a72      	ldr	r2, [pc, #456]	; (8006d98 <st_prep_buffer+0x288>)
 8006bd0:	791b      	ldrb	r3, [r3, #4]
 8006bd2:	f043 0308 	orr.w	r3, r3, #8
 8006bd6:	7113      	strb	r3, [r2, #4]
 8006bd8:	4b74      	ldr	r3, [pc, #464]	; (8006dac <st_prep_buffer+0x29c>)
 8006bda:	4c73      	ldr	r4, [pc, #460]	; (8006da8 <st_prep_buffer+0x298>)
 8006bdc:	781b      	ldrb	r3, [r3, #0]
 8006bde:	6921      	ldr	r1, [r4, #16]
 8006be0:	9305      	str	r3, [sp, #20]
 8006be2:	9a05      	ldr	r2, [sp, #20]
 8006be4:	4b72      	ldr	r3, [pc, #456]	; (8006db0 <st_prep_buffer+0x2a0>)
 8006be6:	eb03 03c2 	add.w	r3, r3, r2, lsl #3
 8006bea:	7822      	ldrb	r2, [r4, #0]
 8006bec:	711a      	strb	r2, [r3, #4]
 8006bee:	682b      	ldr	r3, [r5, #0]
 8006bf0:	9301      	str	r3, [sp, #4]
 8006bf2:	6adb      	ldr	r3, [r3, #44]	; 0x2c
 8006bf4:	4618      	mov	r0, r3
 8006bf6:	9306      	str	r3, [sp, #24]
 8006bf8:	f7f9 ffba 	bl	8000b70 <__aeabi_fsub>
 8006bfc:	4659      	mov	r1, fp
 8006bfe:	9009      	str	r0, [sp, #36]	; 0x24
 8006c00:	f7fa fa5e 	bl	80010c0 <__aeabi_fcmplt>
 8006c04:	b108      	cbz	r0, 8006c0a <st_prep_buffer+0xfa>
 8006c06:	f8cd b024 	str.w	fp, [sp, #36]	; 0x24
 8006c0a:	6aa3      	ldr	r3, [r4, #40]	; 0x28
 8006c0c:	f8d4 a020 	ldr.w	sl, [r4, #32]
 8006c10:	9302      	str	r3, [sp, #8]
 8006c12:	6ae3      	ldr	r3, [r4, #44]	; 0x2c
 8006c14:	9802      	ldr	r0, [sp, #8]
 8006c16:	9307      	str	r3, [sp, #28]
 8006c18:	69a3      	ldr	r3, [r4, #24]
 8006c1a:	9907      	ldr	r1, [sp, #28]
 8006c1c:	9308      	str	r3, [sp, #32]
 8006c1e:	6a63      	ldr	r3, [r4, #36]	; 0x24
 8006c20:	69e5      	ldr	r5, [r4, #28]
 8006c22:	f894 8014 	ldrb.w	r8, [r4, #20]
 8006c26:	930a      	str	r3, [sp, #40]	; 0x28
 8006c28:	f7fa fa40 	bl	80010ac <__aeabi_fcmpeq>
 8006c2c:	2800      	cmp	r0, #0
 8006c2e:	f000 81c7 	beq.w	8006fc0 <st_prep_buffer+0x4b0>
 8006c32:	f04f 0302 	mov.w	r3, #2
 8006c36:	2700      	movs	r7, #0
 8006c38:	4e5e      	ldr	r6, [pc, #376]	; (8006db4 <st_prep_buffer+0x2a4>)
 8006c3a:	b2db      	uxtb	r3, r3
 8006c3c:	f8dd 9018 	ldr.w	r9, [sp, #24]
 8006c40:	930b      	str	r3, [sp, #44]	; 0x2c
 8006c42:	9703      	str	r7, [sp, #12]
 8006c44:	f8cd b000 	str.w	fp, [sp]
 8006c48:	9604      	str	r6, [sp, #16]
 8006c4a:	f1b8 0f01 	cmp.w	r8, #1
 8006c4e:	f000 8212 	beq.w	8007076 <st_prep_buffer+0x566>
 8006c52:	9b01      	ldr	r3, [sp, #4]
 8006c54:	4630      	mov	r0, r6
 8006c56:	6a99      	ldr	r1, [r3, #40]	; 0x28
 8006c58:	f0c0 81cd 	bcc.w	8006ff6 <st_prep_buffer+0x4e6>
 8006c5c:	f1b8 0f03 	cmp.w	r8, #3
 8006c60:	f040 8226 	bne.w	80070b0 <st_prep_buffer+0x5a0>
 8006c64:	f7fa f88e 	bl	8000d84 <__aeabi_fmul>
 8006c68:	4651      	mov	r1, sl
 8006c6a:	4607      	mov	r7, r0
 8006c6c:	4628      	mov	r0, r5
 8006c6e:	f7f9 ff7f 	bl	8000b70 <__aeabi_fsub>
 8006c72:	4601      	mov	r1, r0
 8006c74:	4638      	mov	r0, r7
 8006c76:	f7fa fa37 	bl	80010e8 <__aeabi_fcmpge>
 8006c7a:	2800      	cmp	r0, #0
 8006c7c:	f000 81a5 	beq.w	8006fca <st_prep_buffer+0x4ba>
 8006c80:	9902      	ldr	r1, [sp, #8]
 8006c82:	9806      	ldr	r0, [sp, #24]
 8006c84:	f7f9 ff74 	bl	8000b70 <__aeabi_fsub>
 8006c88:	4601      	mov	r1, r0
 8006c8a:	f7f9 ff73 	bl	8000b74 <__addsf3>
 8006c8e:	4629      	mov	r1, r5
 8006c90:	4604      	mov	r4, r0
 8006c92:	4650      	mov	r0, sl
 8006c94:	f7f9 ff6e 	bl	8000b74 <__addsf3>
 8006c98:	4601      	mov	r1, r0
 8006c9a:	4620      	mov	r0, r4
 8006c9c:	f7fa f926 	bl	8000eec <__aeabi_fdiv>
 8006ca0:	2701      	movs	r7, #1
 8006ca2:	4606      	mov	r6, r0
 8006ca4:	4655      	mov	r5, sl
 8006ca6:	46b8      	mov	r8, r7
 8006ca8:	9c02      	ldr	r4, [sp, #8]
 8006caa:	9703      	str	r7, [sp, #12]
 8006cac:	4631      	mov	r1, r6
 8006cae:	9800      	ldr	r0, [sp, #0]
 8006cb0:	f7f9 ff60 	bl	8000b74 <__addsf3>
 8006cb4:	9000      	str	r0, [sp, #0]
 8006cb6:	4601      	mov	r1, r0
 8006cb8:	9804      	ldr	r0, [sp, #16]
 8006cba:	f7fa fa1f 	bl	80010fc <__aeabi_fcmpgt>
 8006cbe:	2800      	cmp	r0, #0
 8006cc0:	f000 8227 	beq.w	8007112 <st_prep_buffer+0x602>
 8006cc4:	9900      	ldr	r1, [sp, #0]
 8006cc6:	9804      	ldr	r0, [sp, #16]
 8006cc8:	f7f9 ff52 	bl	8000b70 <__aeabi_fsub>
 8006ccc:	9908      	ldr	r1, [sp, #32]
 8006cce:	4606      	mov	r6, r0
 8006cd0:	4620      	mov	r0, r4
 8006cd2:	f7fa fa13 	bl	80010fc <__aeabi_fcmpgt>
 8006cd6:	2800      	cmp	r0, #0
 8006cd8:	f040 8175 	bne.w	8006fc6 <st_prep_buffer+0x4b6>
 8006cdc:	9a03      	ldr	r2, [sp, #12]
 8006cde:	4b32      	ldr	r3, [pc, #200]	; (8006da8 <st_prep_buffer+0x298>)
 8006ce0:	b10a      	cbz	r2, 8006ce6 <st_prep_buffer+0x1d6>
 8006ce2:	f883 8014 	strb.w	r8, [r3, #20]
 8006ce6:	b107      	cbz	r7, 8006cea <st_prep_buffer+0x1da>
 8006ce8:	61dd      	str	r5, [r3, #28]
 8006cea:	4b33      	ldr	r3, [pc, #204]	; (8006db8 <st_prep_buffer+0x2a8>)
 8006cec:	4f2a      	ldr	r7, [pc, #168]	; (8006d98 <st_prep_buffer+0x288>)
 8006cee:	681b      	ldr	r3, [r3, #0]
 8006cf0:	4d2d      	ldr	r5, [pc, #180]	; (8006da8 <st_prep_buffer+0x298>)
 8006cf2:	7f5a      	ldrb	r2, [r3, #29]
 8006cf4:	b912      	cbnz	r2, 8006cfc <st_prep_buffer+0x1ec>
 8006cf6:	793b      	ldrb	r3, [r7, #4]
 8006cf8:	0718      	lsls	r0, r3, #28
 8006cfa:	d519      	bpl.n	8006d30 <st_prep_buffer+0x220>
 8006cfc:	9b01      	ldr	r3, [sp, #4]
 8006cfe:	7f5b      	ldrb	r3, [r3, #29]
 8006d00:	f013 0330 	ands.w	r3, r3, #48	; 0x30
 8006d04:	f000 8219 	beq.w	800713a <st_prep_buffer+0x62a>
 8006d08:	9b01      	ldr	r3, [sp, #4]
 8006d0a:	6bde      	ldr	r6, [r3, #60]	; 0x3c
 8006d0c:	b142      	cbz	r2, 8006d20 <st_prep_buffer+0x210>
 8006d0e:	6b29      	ldr	r1, [r5, #48]	; 0x30
 8006d10:	69e8      	ldr	r0, [r5, #28]
 8006d12:	f7fa f837 	bl	8000d84 <__aeabi_fmul>
 8006d16:	4601      	mov	r1, r0
 8006d18:	4630      	mov	r0, r6
 8006d1a:	f7fa f833 	bl	8000d84 <__aeabi_fmul>
 8006d1e:	4606      	mov	r6, r0
 8006d20:	4630      	mov	r0, r6
 8006d22:	f7ff fbc1 	bl	80064a8 <spindle_compute_pwm_value>
 8006d26:	86a8      	strh	r0, [r5, #52]	; 0x34
 8006d28:	793b      	ldrb	r3, [r7, #4]
 8006d2a:	f023 0308 	bic.w	r3, r3, #8
 8006d2e:	713b      	strb	r3, [r7, #4]
 8006d30:	9a05      	ldr	r2, [sp, #20]
 8006d32:	4b1f      	ldr	r3, [pc, #124]	; (8006db0 <st_prep_buffer+0x2a0>)
 8006d34:	8ea9      	ldrh	r1, [r5, #52]	; 0x34
 8006d36:	ea4f 08c2 	mov.w	r8, r2, lsl #3
 8006d3a:	eb03 0208 	add.w	r2, r3, r8
 8006d3e:	80d1      	strh	r1, [r2, #6]
 8006d40:	4620      	mov	r0, r4
 8006d42:	68e9      	ldr	r1, [r5, #12]
 8006d44:	9303      	str	r3, [sp, #12]
 8006d46:	f7fa f81d 	bl	8000d84 <__aeabi_fmul>
 8006d4a:	9001      	str	r0, [sp, #4]
 8006d4c:	f001 fc02 	bl	8008554 <ceilf>
 8006d50:	4682      	mov	sl, r0
 8006d52:	68a8      	ldr	r0, [r5, #8]
 8006d54:	f001 fbfe 	bl	8008554 <ceilf>
 8006d58:	4651      	mov	r1, sl
 8006d5a:	9002      	str	r0, [sp, #8]
 8006d5c:	f7f9 ff08 	bl	8000b70 <__aeabi_fsub>
 8006d60:	f7fa fa12 	bl	8001188 <__aeabi_f2uiz>
 8006d64:	9b05      	ldr	r3, [sp, #20]
 8006d66:	fa1f f980 	uxth.w	r9, r0
 8006d6a:	461a      	mov	r2, r3
 8006d6c:	9b03      	ldr	r3, [sp, #12]
 8006d6e:	f823 9032 	strh.w	r9, [r3, r2, lsl #3]
 8006d72:	461e      	mov	r6, r3
 8006d74:	f1b9 0f00 	cmp.w	r9, #0
 8006d78:	f040 81e3 	bne.w	8007142 <st_prep_buffer+0x632>
 8006d7c:	793a      	ldrb	r2, [r7, #4]
 8006d7e:	0791      	lsls	r1, r2, #30
 8006d80:	f140 81df 	bpl.w	8007142 <st_prep_buffer+0x632>
 8006d84:	f042 0201 	orr.w	r2, r2, #1
 8006d88:	713a      	strb	r2, [r7, #4]
 8006d8a:	b00d      	add	sp, #52	; 0x34
 8006d8c:	e8bd 8ff0 	ldmia.w	sp!, {r4, r5, r6, r7, r8, r9, sl, fp, pc}
 8006d90:	f7fd fcec 	bl	800476c <plan_get_current_block>
 8006d94:	e6d8      	b.n	8006b48 <st_prep_buffer+0x38>
 8006d96:	bf00      	nop
 8006d98:	200038d4 	.word	0x200038d4
 8006d9c:	20003469 	.word	0x20003469
 8006da0:	2000346a 	.word	0x2000346a
 8006da4:	2000332c 	.word	0x2000332c
 8006da8:	20003330 	.word	0x20003330
 8006dac:	20003468 	.word	0x20003468
 8006db0:	20003368 	.word	0x20003368
 8006db4:	365fb23b 	.word	0x365fb23b
 8006db8:	20003890 	.word	0x20003890
 8006dbc:	7823      	ldrb	r3, [r4, #0]
 8006dbe:	4aa5      	ldr	r2, [pc, #660]	; (8007054 <st_prep_buffer+0x544>)
 8006dc0:	3301      	adds	r3, #1
 8006dc2:	b2db      	uxtb	r3, r3
 8006dc4:	2b1f      	cmp	r3, #31
 8006dc6:	bf08      	it	eq
 8006dc8:	2300      	moveq	r3, #0
 8006dca:	4696      	mov	lr, r2
 8006dcc:	48a2      	ldr	r0, [pc, #648]	; (8007058 <st_prep_buffer+0x548>)
 8006dce:	7023      	strb	r3, [r4, #0]
 8006dd0:	015b      	lsls	r3, r3, #5
 8006dd2:	18d7      	adds	r7, r2, r3
 8006dd4:	6007      	str	r7, [r0, #0]
 8006dd6:	7f30      	ldrb	r0, [r6, #28]
 8006dd8:	7738      	strb	r0, [r7, #28]
 8006dda:	f856 2021 	ldr.w	r2, [r6, r1, lsl #2]
 8006dde:	00d2      	lsls	r2, r2, #3
 8006de0:	f847 2021 	str.w	r2, [r7, r1, lsl #2]
 8006de4:	3101      	adds	r1, #1
 8006de6:	2906      	cmp	r1, #6
 8006de8:	d1f7      	bne.n	8006dda <st_prep_buffer+0x2ca>
 8006dea:	69b0      	ldr	r0, [r6, #24]
 8006dec:	4473      	add	r3, lr
 8006dee:	00c2      	lsls	r2, r0, #3
 8006df0:	619a      	str	r2, [r3, #24]
 8006df2:	f7f9 ff6f 	bl	8000cd4 <__aeabi_ui2f>
 8006df6:	6af1      	ldr	r1, [r6, #44]	; 0x2c
 8006df8:	60a0      	str	r0, [r4, #8]
 8006dfa:	f7fa f877 	bl	8000eec <__aeabi_fdiv>
 8006dfe:	4601      	mov	r1, r0
 8006e00:	60e0      	str	r0, [r4, #12]
 8006e02:	4896      	ldr	r0, [pc, #600]	; (800705c <st_prep_buffer+0x54c>)
 8006e04:	f7fa f872 	bl	8000eec <__aeabi_fdiv>
 8006e08:	4b95      	ldr	r3, [pc, #596]	; (8007060 <st_prep_buffer+0x550>)
 8006e0a:	6120      	str	r0, [r4, #16]
 8006e0c:	791b      	ldrb	r3, [r3, #4]
 8006e0e:	f8c4 b004 	str.w	fp, [r4, #4]
 8006e12:	0799      	lsls	r1, r3, #30
 8006e14:	d402      	bmi.n	8006e1c <st_prep_buffer+0x30c>
 8006e16:	f018 0f08 	tst.w	r8, #8
 8006e1a:	d01e      	beq.n	8006e5a <st_prep_buffer+0x34a>
 8006e1c:	6a61      	ldr	r1, [r4, #36]	; 0x24
 8006e1e:	f028 0808 	bic.w	r8, r8, #8
 8006e22:	61e1      	str	r1, [r4, #28]
 8006e24:	4608      	mov	r0, r1
 8006e26:	f7f9 ffad 	bl	8000d84 <__aeabi_fmul>
 8006e2a:	f884 8001 	strb.w	r8, [r4, #1]
 8006e2e:	6230      	str	r0, [r6, #32]
 8006e30:	2300      	movs	r3, #0
 8006e32:	777b      	strb	r3, [r7, #29]
 8006e34:	4b8b      	ldr	r3, [pc, #556]	; (8007064 <st_prep_buffer+0x554>)
 8006e36:	f893 3078 	ldrb.w	r3, [r3, #120]	; 0x78
 8006e3a:	079a      	lsls	r2, r3, #30
 8006e3c:	f57f ae92 	bpl.w	8006b64 <st_prep_buffer+0x54>
 8006e40:	7f73      	ldrb	r3, [r6, #29]
 8006e42:	069b      	lsls	r3, r3, #26
 8006e44:	f57f ae8e 	bpl.w	8006b64 <st_prep_buffer+0x54>
 8006e48:	6bb1      	ldr	r1, [r6, #56]	; 0x38
 8006e4a:	f04f 507e 	mov.w	r0, #1065353216	; 0x3f800000
 8006e4e:	f7fa f84d 	bl	8000eec <__aeabi_fdiv>
 8006e52:	2301      	movs	r3, #1
 8006e54:	6320      	str	r0, [r4, #48]	; 0x30
 8006e56:	777b      	strb	r3, [r7, #29]
 8006e58:	e684      	b.n	8006b64 <st_prep_buffer+0x54>
 8006e5a:	6a30      	ldr	r0, [r6, #32]
 8006e5c:	f001 fc7a 	bl	8008754 <sqrtf>
 8006e60:	61e0      	str	r0, [r4, #28]
 8006e62:	e7e5      	b.n	8006e30 <st_prep_buffer+0x320>
 8006e64:	f8c4 9018 	str.w	r9, [r4, #24]
 8006e68:	f8c4 b024 	str.w	fp, [r4, #36]	; 0x24
 8006e6c:	e6ae      	b.n	8006bcc <st_prep_buffer+0xbc>
 8006e6e:	62a6      	str	r6, [r4, #40]	; 0x28
 8006e70:	075e      	lsls	r6, r3, #29
 8006e72:	7522      	strb	r2, [r4, #20]
 8006e74:	d53b      	bpl.n	8006eee <st_prep_buffer+0x3de>
 8006e76:	46da      	mov	sl, fp
 8006e78:	f8c4 b024 	str.w	fp, [r4, #36]	; 0x24
 8006e7c:	6828      	ldr	r0, [r5, #0]
 8006e7e:	f7fd fcab 	bl	80047d8 <plan_compute_profile_nominal_speed>
 8006e82:	4601      	mov	r1, r0
 8006e84:	9002      	str	r0, [sp, #8]
 8006e86:	f7f9 ff7d 	bl	8000d84 <__aeabi_fmul>
 8006e8a:	682b      	ldr	r3, [r5, #0]
 8006e8c:	4681      	mov	r9, r0
 8006e8e:	9300      	str	r3, [sp, #0]
 8006e90:	6adb      	ldr	r3, [r3, #44]	; 0x2c
 8006e92:	9301      	str	r3, [sp, #4]
 8006e94:	9b00      	ldr	r3, [sp, #0]
 8006e96:	6a1e      	ldr	r6, [r3, #32]
 8006e98:	4631      	mov	r1, r6
 8006e9a:	f7fa f911 	bl	80010c0 <__aeabi_fcmplt>
 8006e9e:	2800      	cmp	r0, #0
 8006ea0:	d039      	beq.n	8006f16 <st_prep_buffer+0x406>
 8006ea2:	4649      	mov	r1, r9
 8006ea4:	4630      	mov	r0, r6
 8006ea6:	f7f9 fe63 	bl	8000b70 <__aeabi_fsub>
 8006eaa:	4641      	mov	r1, r8
 8006eac:	f7f9 ff6a 	bl	8000d84 <__aeabi_fmul>
 8006eb0:	4601      	mov	r1, r0
 8006eb2:	9801      	ldr	r0, [sp, #4]
 8006eb4:	f7f9 fe5c 	bl	8000b70 <__aeabi_fsub>
 8006eb8:	4659      	mov	r1, fp
 8006eba:	62a0      	str	r0, [r4, #40]	; 0x28
 8006ebc:	f7fa f90a 	bl	80010d4 <__aeabi_fcmple>
 8006ec0:	b1e0      	cbz	r0, 8006efc <st_prep_buffer+0x3ec>
 8006ec2:	2302      	movs	r3, #2
 8006ec4:	7523      	strb	r3, [r4, #20]
 8006ec6:	9b00      	ldr	r3, [sp, #0]
 8006ec8:	6a99      	ldr	r1, [r3, #40]	; 0x28
 8006eca:	4608      	mov	r0, r1
 8006ecc:	f7f9 fe52 	bl	8000b74 <__addsf3>
 8006ed0:	9901      	ldr	r1, [sp, #4]
 8006ed2:	f7f9 ff57 	bl	8000d84 <__aeabi_fmul>
 8006ed6:	4601      	mov	r1, r0
 8006ed8:	4630      	mov	r0, r6
 8006eda:	f7f9 fe49 	bl	8000b70 <__aeabi_fsub>
 8006ede:	f001 fc39 	bl	8008754 <sqrtf>
 8006ee2:	7863      	ldrb	r3, [r4, #1]
 8006ee4:	6260      	str	r0, [r4, #36]	; 0x24
 8006ee6:	f043 0308 	orr.w	r3, r3, #8
 8006eea:	7063      	strb	r3, [r4, #1]
 8006eec:	e66e      	b.n	8006bcc <st_prep_buffer+0xbc>
 8006eee:	f7fd fc4f 	bl	8004790 <plan_get_exec_block_exit_speed_sqr>
 8006ef2:	4682      	mov	sl, r0
 8006ef4:	f001 fc2e 	bl	8008754 <sqrtf>
 8006ef8:	6260      	str	r0, [r4, #36]	; 0x24
 8006efa:	e7bf      	b.n	8006e7c <st_prep_buffer+0x36c>
 8006efc:	4651      	mov	r1, sl
 8006efe:	4648      	mov	r0, r9
 8006f00:	f7f9 fe36 	bl	8000b70 <__aeabi_fsub>
 8006f04:	4641      	mov	r1, r8
 8006f06:	f7f9 ff3d 	bl	8000d84 <__aeabi_fmul>
 8006f0a:	9b02      	ldr	r3, [sp, #8]
 8006f0c:	62e0      	str	r0, [r4, #44]	; 0x2c
 8006f0e:	6223      	str	r3, [r4, #32]
 8006f10:	2303      	movs	r3, #3
 8006f12:	7523      	strb	r3, [r4, #20]
 8006f14:	e65a      	b.n	8006bcc <st_prep_buffer+0xbc>
 8006f16:	4651      	mov	r1, sl
 8006f18:	4630      	mov	r0, r6
 8006f1a:	f7f9 fe29 	bl	8000b70 <__aeabi_fsub>
 8006f1e:	4641      	mov	r1, r8
 8006f20:	f7f9 ff30 	bl	8000d84 <__aeabi_fmul>
 8006f24:	9901      	ldr	r1, [sp, #4]
 8006f26:	f7f9 fe25 	bl	8000b74 <__addsf3>
 8006f2a:	f04f 517c 	mov.w	r1, #1056964608	; 0x3f000000
 8006f2e:	f7f9 ff29 	bl	8000d84 <__aeabi_fmul>
 8006f32:	4659      	mov	r1, fp
 8006f34:	4607      	mov	r7, r0
 8006f36:	f7fa f8e1 	bl	80010fc <__aeabi_fcmpgt>
 8006f3a:	2800      	cmp	r0, #0
 8006f3c:	d03b      	beq.n	8006fb6 <st_prep_buffer+0x4a6>
 8006f3e:	4639      	mov	r1, r7
 8006f40:	9801      	ldr	r0, [sp, #4]
 8006f42:	f7fa f8db 	bl	80010fc <__aeabi_fcmpgt>
 8006f46:	2800      	cmp	r0, #0
 8006f48:	d033      	beq.n	8006fb2 <st_prep_buffer+0x4a2>
 8006f4a:	4651      	mov	r1, sl
 8006f4c:	4648      	mov	r0, r9
 8006f4e:	f7f9 fe0f 	bl	8000b70 <__aeabi_fsub>
 8006f52:	4641      	mov	r1, r8
 8006f54:	f7f9 ff16 	bl	8000d84 <__aeabi_fmul>
 8006f58:	4601      	mov	r1, r0
 8006f5a:	62e0      	str	r0, [r4, #44]	; 0x2c
 8006f5c:	4638      	mov	r0, r7
 8006f5e:	f7fa f8cd 	bl	80010fc <__aeabi_fcmpgt>
 8006f62:	b1a8      	cbz	r0, 8006f90 <st_prep_buffer+0x480>
 8006f64:	9b02      	ldr	r3, [sp, #8]
 8006f66:	4631      	mov	r1, r6
 8006f68:	6223      	str	r3, [r4, #32]
 8006f6a:	4648      	mov	r0, r9
 8006f6c:	f7fa f89e 	bl	80010ac <__aeabi_fcmpeq>
 8006f70:	b108      	cbz	r0, 8006f76 <st_prep_buffer+0x466>
 8006f72:	2301      	movs	r3, #1
 8006f74:	e7cd      	b.n	8006f12 <st_prep_buffer+0x402>
 8006f76:	4631      	mov	r1, r6
 8006f78:	4648      	mov	r0, r9
 8006f7a:	f7f9 fdf9 	bl	8000b70 <__aeabi_fsub>
 8006f7e:	4641      	mov	r1, r8
 8006f80:	f7f9 ff00 	bl	8000d84 <__aeabi_fmul>
 8006f84:	4601      	mov	r1, r0
 8006f86:	6aa0      	ldr	r0, [r4, #40]	; 0x28
 8006f88:	f7f9 fdf2 	bl	8000b70 <__aeabi_fsub>
 8006f8c:	62a0      	str	r0, [r4, #40]	; 0x28
 8006f8e:	e61d      	b.n	8006bcc <st_prep_buffer+0xbc>
 8006f90:	9b00      	ldr	r3, [sp, #0]
 8006f92:	62a7      	str	r7, [r4, #40]	; 0x28
 8006f94:	6a99      	ldr	r1, [r3, #40]	; 0x28
 8006f96:	62e7      	str	r7, [r4, #44]	; 0x2c
 8006f98:	4608      	mov	r0, r1
 8006f9a:	f7f9 fdeb 	bl	8000b74 <__addsf3>
 8006f9e:	4639      	mov	r1, r7
 8006fa0:	f7f9 fef0 	bl	8000d84 <__aeabi_fmul>
 8006fa4:	4651      	mov	r1, sl
 8006fa6:	f7f9 fde5 	bl	8000b74 <__addsf3>
 8006faa:	f001 fbd3 	bl	8008754 <sqrtf>
 8006fae:	6220      	str	r0, [r4, #32]
 8006fb0:	e60c      	b.n	8006bcc <st_prep_buffer+0xbc>
 8006fb2:	2302      	movs	r3, #2
 8006fb4:	e7ad      	b.n	8006f12 <st_prep_buffer+0x402>
 8006fb6:	6a63      	ldr	r3, [r4, #36]	; 0x24
 8006fb8:	f8c4 b028 	str.w	fp, [r4, #40]	; 0x28
 8006fbc:	6223      	str	r3, [r4, #32]
 8006fbe:	e605      	b.n	8006bcc <st_prep_buffer+0xbc>
 8006fc0:	f04f 0301 	mov.w	r3, #1
 8006fc4:	e637      	b.n	8006c36 <st_prep_buffer+0x126>
 8006fc6:	46a1      	mov	r9, r4
 8006fc8:	e63f      	b.n	8006c4a <st_prep_buffer+0x13a>
 8006fca:	f04f 517c 	mov.w	r1, #1056964608	; 0x3f000000
 8006fce:	4638      	mov	r0, r7
 8006fd0:	f7f9 fed8 	bl	8000d84 <__aeabi_fmul>
 8006fd4:	4601      	mov	r1, r0
 8006fd6:	4628      	mov	r0, r5
 8006fd8:	f7f9 fdca 	bl	8000b70 <__aeabi_fsub>
 8006fdc:	4631      	mov	r1, r6
 8006fde:	f7f9 fed1 	bl	8000d84 <__aeabi_fmul>
 8006fe2:	4601      	mov	r1, r0
 8006fe4:	4648      	mov	r0, r9
 8006fe6:	f7f9 fdc3 	bl	8000b70 <__aeabi_fsub>
 8006fea:	4604      	mov	r4, r0
 8006fec:	4639      	mov	r1, r7
 8006fee:	4628      	mov	r0, r5
 8006ff0:	f7f9 fdbe 	bl	8000b70 <__aeabi_fsub>
 8006ff4:	e03c      	b.n	8007070 <st_prep_buffer+0x560>
 8006ff6:	f7f9 fec5 	bl	8000d84 <__aeabi_fmul>
 8006ffa:	f04f 517c 	mov.w	r1, #1056964608	; 0x3f000000
 8006ffe:	4607      	mov	r7, r0
 8007000:	f7f9 fec0 	bl	8000d84 <__aeabi_fmul>
 8007004:	4629      	mov	r1, r5
 8007006:	f7f9 fdb5 	bl	8000b74 <__addsf3>
 800700a:	4631      	mov	r1, r6
 800700c:	f7f9 feba 	bl	8000d84 <__aeabi_fmul>
 8007010:	4601      	mov	r1, r0
 8007012:	4648      	mov	r0, r9
 8007014:	f7f9 fdac 	bl	8000b70 <__aeabi_fsub>
 8007018:	4604      	mov	r4, r0
 800701a:	4601      	mov	r1, r0
 800701c:	9802      	ldr	r0, [sp, #8]
 800701e:	f7fa f86d 	bl	80010fc <__aeabi_fcmpgt>
 8007022:	b308      	cbz	r0, 8007068 <st_prep_buffer+0x558>
 8007024:	9902      	ldr	r1, [sp, #8]
 8007026:	9806      	ldr	r0, [sp, #24]
 8007028:	f7f9 fda2 	bl	8000b70 <__aeabi_fsub>
 800702c:	4601      	mov	r1, r0
 800702e:	f7f9 fda1 	bl	8000b74 <__addsf3>
 8007032:	4629      	mov	r1, r5
 8007034:	4604      	mov	r4, r0
 8007036:	4650      	mov	r0, sl
 8007038:	f7f9 fd9c 	bl	8000b74 <__addsf3>
 800703c:	4601      	mov	r1, r0
 800703e:	4620      	mov	r0, r4
 8007040:	f7f9 ff54 	bl	8000eec <__aeabi_fdiv>
 8007044:	2701      	movs	r7, #1
 8007046:	4606      	mov	r6, r0
 8007048:	4655      	mov	r5, sl
 800704a:	f8dd 802c 	ldr.w	r8, [sp, #44]	; 0x2c
 800704e:	9c02      	ldr	r4, [sp, #8]
 8007050:	9703      	str	r7, [sp, #12]
 8007052:	e62b      	b.n	8006cac <st_prep_buffer+0x19c>
 8007054:	200034b0 	.word	0x200034b0
 8007058:	20003890 	.word	0x20003890
 800705c:	3fa00000 	.word	0x3fa00000
 8007060:	200038d4 	.word	0x200038d4
 8007064:	20003f70 	.word	0x20003f70
 8007068:	4639      	mov	r1, r7
 800706a:	4628      	mov	r0, r5
 800706c:	f7f9 fd82 	bl	8000b74 <__addsf3>
 8007070:	4605      	mov	r5, r0
 8007072:	2701      	movs	r7, #1
 8007074:	e61a      	b.n	8006cac <st_prep_buffer+0x19c>
 8007076:	4651      	mov	r1, sl
 8007078:	4630      	mov	r0, r6
 800707a:	f7f9 fe83 	bl	8000d84 <__aeabi_fmul>
 800707e:	4601      	mov	r1, r0
 8007080:	4648      	mov	r0, r9
 8007082:	f7f9 fd75 	bl	8000b70 <__aeabi_fsub>
 8007086:	9907      	ldr	r1, [sp, #28]
 8007088:	4604      	mov	r4, r0
 800708a:	f7fa f819 	bl	80010c0 <__aeabi_fcmplt>
 800708e:	2800      	cmp	r0, #0
 8007090:	f43f ae0c 	beq.w	8006cac <st_prep_buffer+0x19c>
 8007094:	9907      	ldr	r1, [sp, #28]
 8007096:	4648      	mov	r0, r9
 8007098:	f7f9 fd6a 	bl	8000b70 <__aeabi_fsub>
 800709c:	4651      	mov	r1, sl
 800709e:	f7f9 ff25 	bl	8000eec <__aeabi_fdiv>
 80070a2:	f8cd 800c 	str.w	r8, [sp, #12]
 80070a6:	4606      	mov	r6, r0
 80070a8:	9c07      	ldr	r4, [sp, #28]
 80070aa:	f04f 0802 	mov.w	r8, #2
 80070ae:	e5fd      	b.n	8006cac <st_prep_buffer+0x19c>
 80070b0:	f7f9 fe68 	bl	8000d84 <__aeabi_fmul>
 80070b4:	4629      	mov	r1, r5
 80070b6:	4607      	mov	r7, r0
 80070b8:	f7fa f802 	bl	80010c0 <__aeabi_fcmplt>
 80070bc:	b1a8      	cbz	r0, 80070ea <st_prep_buffer+0x5da>
 80070be:	f04f 517c 	mov.w	r1, #1056964608	; 0x3f000000
 80070c2:	4638      	mov	r0, r7
 80070c4:	f7f9 fe5e 	bl	8000d84 <__aeabi_fmul>
 80070c8:	4601      	mov	r1, r0
 80070ca:	4628      	mov	r0, r5
 80070cc:	f7f9 fd50 	bl	8000b70 <__aeabi_fsub>
 80070d0:	4631      	mov	r1, r6
 80070d2:	f7f9 fe57 	bl	8000d84 <__aeabi_fmul>
 80070d6:	4601      	mov	r1, r0
 80070d8:	4648      	mov	r0, r9
 80070da:	f7f9 fd49 	bl	8000b70 <__aeabi_fsub>
 80070de:	9908      	ldr	r1, [sp, #32]
 80070e0:	4604      	mov	r4, r0
 80070e2:	f7fa f80b 	bl	80010fc <__aeabi_fcmpgt>
 80070e6:	2800      	cmp	r0, #0
 80070e8:	d180      	bne.n	8006fec <st_prep_buffer+0x4dc>
 80070ea:	9908      	ldr	r1, [sp, #32]
 80070ec:	4648      	mov	r0, r9
 80070ee:	f7f9 fd3f 	bl	8000b70 <__aeabi_fsub>
 80070f2:	4601      	mov	r1, r0
 80070f4:	f7f9 fd3e 	bl	8000b74 <__addsf3>
 80070f8:	4629      	mov	r1, r5
 80070fa:	4604      	mov	r4, r0
 80070fc:	980a      	ldr	r0, [sp, #40]	; 0x28
 80070fe:	f7f9 fd39 	bl	8000b74 <__addsf3>
 8007102:	4601      	mov	r1, r0
 8007104:	4620      	mov	r0, r4
 8007106:	f7f9 fef1 	bl	8000eec <__aeabi_fdiv>
 800710a:	9d0a      	ldr	r5, [sp, #40]	; 0x28
 800710c:	4606      	mov	r6, r0
 800710e:	9c08      	ldr	r4, [sp, #32]
 8007110:	e7af      	b.n	8007072 <st_prep_buffer+0x562>
 8007112:	9909      	ldr	r1, [sp, #36]	; 0x24
 8007114:	4620      	mov	r0, r4
 8007116:	f7f9 fff1 	bl	80010fc <__aeabi_fcmpgt>
 800711a:	2800      	cmp	r0, #0
 800711c:	f43f adde 	beq.w	8006cdc <st_prep_buffer+0x1cc>
 8007120:	9804      	ldr	r0, [sp, #16]
 8007122:	f7f9 f985 	bl	8000430 <__aeabi_f2d>
 8007126:	a346      	add	r3, pc, #280	; (adr r3, 8007240 <st_prep_buffer+0x730>)
 8007128:	e9d3 2300 	ldrd	r2, r3, [r3]
 800712c:	f7f9 f822 	bl	8000174 <__adddf3>
 8007130:	f7f9 fcca 	bl	8000ac8 <__aeabi_d2f>
 8007134:	9900      	ldr	r1, [sp, #0]
 8007136:	9004      	str	r0, [sp, #16]
 8007138:	e5c6      	b.n	8006cc8 <st_prep_buffer+0x1b8>
 800713a:	f8c7 b010 	str.w	fp, [r7, #16]
 800713e:	86ab      	strh	r3, [r5, #52]	; 0x34
 8007140:	e5f2      	b.n	8006d28 <st_prep_buffer+0x218>
 8007142:	9800      	ldr	r0, [sp, #0]
 8007144:	6869      	ldr	r1, [r5, #4]
 8007146:	9303      	str	r3, [sp, #12]
 8007148:	f7f9 fd14 	bl	8000b74 <__addsf3>
 800714c:	9901      	ldr	r1, [sp, #4]
 800714e:	9000      	str	r0, [sp, #0]
 8007150:	9802      	ldr	r0, [sp, #8]
 8007152:	f7f9 fd0d 	bl	8000b70 <__aeabi_fsub>
 8007156:	9a00      	ldr	r2, [sp, #0]
 8007158:	4601      	mov	r1, r0
 800715a:	4610      	mov	r0, r2
 800715c:	f7f9 fec6 	bl	8000eec <__aeabi_fdiv>
 8007160:	4a39      	ldr	r2, [pc, #228]	; (8007248 <st_prep_buffer+0x738>)
 8007162:	9000      	str	r0, [sp, #0]
 8007164:	6811      	ldr	r1, [r2, #0]
 8007166:	f7f9 fe0d 	bl	8000d84 <__aeabi_fmul>
 800716a:	f001 f9f3 	bl	8008554 <ceilf>
 800716e:	f7fa f80b 	bl	8001188 <__aeabi_f2uiz>
 8007172:	f44f 51fa 	mov.w	r1, #8000	; 0x1f40
 8007176:	4a35      	ldr	r2, [pc, #212]	; (800724c <st_prep_buffer+0x73c>)
 8007178:	9b03      	ldr	r3, [sp, #12]
 800717a:	6812      	ldr	r2, [r2, #0]
 800717c:	fbb2 f1f1 	udiv	r1, r2, r1
 8007180:	4288      	cmp	r0, r1
 8007182:	d235      	bcs.n	80071f0 <st_prep_buffer+0x6e0>
 8007184:	2200      	movs	r2, #0
 8007186:	eb06 0308 	add.w	r3, r6, r8
 800718a:	715a      	strb	r2, [r3, #5]
 800718c:	f5b0 3f80 	cmp.w	r0, #65536	; 0x10000
 8007190:	bf28      	it	cs
 8007192:	f64f 73ff 	movwcs	r3, #65535	; 0xffff
 8007196:	4a2e      	ldr	r2, [pc, #184]	; (8007250 <st_prep_buffer+0x740>)
 8007198:	4446      	add	r6, r8
 800719a:	bf28      	it	cs
 800719c:	8073      	strhcs	r3, [r6, #2]
 800719e:	492d      	ldr	r1, [pc, #180]	; (8007254 <st_prep_buffer+0x744>)
 80071a0:	7813      	ldrb	r3, [r2, #0]
 80071a2:	bf38      	it	cc
 80071a4:	8070      	strhcc	r0, [r6, #2]
 80071a6:	700b      	strb	r3, [r1, #0]
 80071a8:	3301      	adds	r3, #1
 80071aa:	b2db      	uxtb	r3, r3
 80071ac:	2b20      	cmp	r3, #32
 80071ae:	bf08      	it	eq
 80071b0:	2300      	moveq	r3, #0
 80071b2:	4e29      	ldr	r6, [pc, #164]	; (8007258 <st_prep_buffer+0x748>)
 80071b4:	7013      	strb	r3, [r2, #0]
 80071b6:	6833      	ldr	r3, [r6, #0]
 80071b8:	9901      	ldr	r1, [sp, #4]
 80071ba:	62dc      	str	r4, [r3, #44]	; 0x2c
 80071bc:	f8c5 a008 	str.w	sl, [r5, #8]
 80071c0:	4650      	mov	r0, sl
 80071c2:	f7f9 fcd5 	bl	8000b70 <__aeabi_fsub>
 80071c6:	9900      	ldr	r1, [sp, #0]
 80071c8:	f7f9 fddc 	bl	8000d84 <__aeabi_fmul>
 80071cc:	69a9      	ldr	r1, [r5, #24]
 80071ce:	6068      	str	r0, [r5, #4]
 80071d0:	4620      	mov	r0, r4
 80071d2:	f7f9 ff6b 	bl	80010ac <__aeabi_fcmpeq>
 80071d6:	2800      	cmp	r0, #0
 80071d8:	f43f aca4 	beq.w	8006b24 <st_prep_buffer+0x14>
 80071dc:	4659      	mov	r1, fp
 80071de:	4620      	mov	r0, r4
 80071e0:	f7f9 ff8c 	bl	80010fc <__aeabi_fcmpgt>
 80071e4:	793b      	ldrb	r3, [r7, #4]
 80071e6:	b318      	cbz	r0, 8007230 <st_prep_buffer+0x720>
 80071e8:	f043 0301 	orr.w	r3, r3, #1
 80071ec:	713b      	strb	r3, [r7, #4]
 80071ee:	e5cc      	b.n	8006d8a <st_prep_buffer+0x27a>
 80071f0:	f44f 617a 	mov.w	r1, #4000	; 0xfa0
 80071f4:	fbb2 f1f1 	udiv	r1, r2, r1
 80071f8:	4288      	cmp	r0, r1
 80071fa:	d20d      	bcs.n	8007218 <st_prep_buffer+0x708>
 80071fc:	2101      	movs	r1, #1
 80071fe:	eb06 0208 	add.w	r2, r6, r8
 8007202:	7151      	strb	r1, [r2, #5]
 8007204:	eb06 0208 	add.w	r2, r6, r8
 8007208:	7952      	ldrb	r2, [r2, #5]
 800720a:	fa09 f902 	lsl.w	r9, r9, r2
 800720e:	40d0      	lsrs	r0, r2
 8007210:	9a05      	ldr	r2, [sp, #20]
 8007212:	f823 9032 	strh.w	r9, [r3, r2, lsl #3]
 8007216:	e7b9      	b.n	800718c <st_prep_buffer+0x67c>
 8007218:	f44f 61fa 	mov.w	r1, #2000	; 0x7d0
 800721c:	fbb2 f2f1 	udiv	r2, r2, r1
 8007220:	4290      	cmp	r0, r2
 8007222:	bf38      	it	cc
 8007224:	2102      	movcc	r1, #2
 8007226:	eb06 0208 	add.w	r2, r6, r8
 800722a:	bf28      	it	cs
 800722c:	2103      	movcs	r1, #3
 800722e:	e7e8      	b.n	8007202 <st_prep_buffer+0x6f2>
 8007230:	f013 0204 	ands.w	r2, r3, #4
 8007234:	d1d8      	bne.n	80071e8 <st_prep_buffer+0x6d8>
 8007236:	6032      	str	r2, [r6, #0]
 8007238:	f7fd fa74 	bl	8004724 <plan_discard_current_block>
 800723c:	e472      	b.n	8006b24 <st_prep_buffer+0x14>
 800723e:	bf00      	nop
 8007240:	612f3696 	.word	0x612f3696
 8007244:	3ecbf647 	.word	0x3ecbf647
 8007248:	20003898 	.word	0x20003898
 800724c:	20000008 	.word	0x20000008
 8007250:	2000346a 	.word	0x2000346a
 8007254:	20003468 	.word	0x20003468
 8007258:	2000332c 	.word	0x2000332c

0800725c <st_get_realtime_rate>:
 800725c:	4b04      	ldr	r3, [pc, #16]	; (8007270 <st_get_realtime_rate+0x14>)
 800725e:	781b      	ldrb	r3, [r3, #0]
 8007260:	f013 0f7c 	tst.w	r3, #124	; 0x7c
 8007264:	bf1a      	itte	ne
 8007266:	4b03      	ldrne	r3, [pc, #12]	; (8007274 <st_get_realtime_rate+0x18>)
 8007268:	69d8      	ldrne	r0, [r3, #28]
 800726a:	2000      	moveq	r0, #0
 800726c:	4770      	bx	lr
 800726e:	bf00      	nop
 8007270:	200038d4 	.word	0x200038d4
 8007274:	20003330 	.word	0x20003330

08007278 <system_init>:
 8007278:	4770      	bx	lr
	...

0800727c <system_control_get_state>:
 800727c:	4b0a      	ldr	r3, [pc, #40]	; (80072a8 <system_control_get_state+0x2c>)
 800727e:	689a      	ldr	r2, [r3, #8]
 8007280:	b290      	uxth	r0, r2
 8007282:	b180      	cbz	r0, 80072a6 <system_control_get_state+0x2a>
 8007284:	4603      	mov	r3, r0
 8007286:	f080 0010 	eor.w	r0, r0, #16
 800728a:	f3c0 1000 	ubfx	r0, r0, #4, #1
 800728e:	0711      	lsls	r1, r2, #28
 8007290:	bf58      	it	pl
 8007292:	f040 0002 	orrpl.w	r0, r0, #2
 8007296:	079a      	lsls	r2, r3, #30
 8007298:	bf58      	it	pl
 800729a:	f040 0004 	orrpl.w	r0, r0, #4
 800729e:	07db      	lsls	r3, r3, #31
 80072a0:	bf58      	it	pl
 80072a2:	f040 0008 	orrpl.w	r0, r0, #8
 80072a6:	4770      	bx	lr
 80072a8:	40010c00 	.word	0x40010c00

080072ac <HandleControlIT>:
 80072ac:	b510      	push	{r4, lr}
 80072ae:	4604      	mov	r4, r0
 80072b0:	f7ff ffe4 	bl	800727c <system_control_get_state>
 80072b4:	2c02      	cmp	r4, #2
 80072b6:	d008      	beq.n	80072ca <HandleControlIT+0x1e>
 80072b8:	d802      	bhi.n	80072c0 <HandleControlIT+0x14>
 80072ba:	2c01      	cmp	r4, #1
 80072bc:	d00d      	beq.n	80072da <HandleControlIT+0x2e>
 80072be:	bd10      	pop	{r4, pc}
 80072c0:	2c08      	cmp	r4, #8
 80072c2:	d011      	beq.n	80072e8 <HandleControlIT+0x3c>
 80072c4:	2c10      	cmp	r4, #16
 80072c6:	d015      	beq.n	80072f4 <HandleControlIT+0x48>
 80072c8:	bd10      	pop	{r4, pc}
 80072ca:	0740      	lsls	r0, r0, #29
 80072cc:	d504      	bpl.n	80072d8 <HandleControlIT+0x2c>
 80072ce:	4a0d      	ldr	r2, [pc, #52]	; (8007304 <HandleControlIT+0x58>)
 80072d0:	7813      	ldrb	r3, [r2, #0]
 80072d2:	f043 0308 	orr.w	r3, r3, #8
 80072d6:	7013      	strb	r3, [r2, #0]
 80072d8:	bd10      	pop	{r4, pc}
 80072da:	0701      	lsls	r1, r0, #28
 80072dc:	d5fc      	bpl.n	80072d8 <HandleControlIT+0x2c>
 80072de:	4a09      	ldr	r2, [pc, #36]	; (8007304 <HandleControlIT+0x58>)
 80072e0:	7813      	ldrb	r3, [r2, #0]
 80072e2:	f043 0302 	orr.w	r3, r3, #2
 80072e6:	e7f6      	b.n	80072d6 <HandleControlIT+0x2a>
 80072e8:	0782      	lsls	r2, r0, #30
 80072ea:	d5f5      	bpl.n	80072d8 <HandleControlIT+0x2c>
 80072ec:	e8bd 4010 	ldmia.w	sp!, {r4, lr}
 80072f0:	f7fc bfe0 	b.w	80042b4 <mc_reset>
 80072f4:	07c3      	lsls	r3, r0, #31
 80072f6:	d5ef      	bpl.n	80072d8 <HandleControlIT+0x2c>
 80072f8:	4a02      	ldr	r2, [pc, #8]	; (8007304 <HandleControlIT+0x58>)
 80072fa:	7813      	ldrb	r3, [r2, #0]
 80072fc:	f043 0320 	orr.w	r3, r3, #32
 8007300:	e7e9      	b.n	80072d6 <HandleControlIT+0x2a>
 8007302:	bf00      	nop
 8007304:	200038e9 	.word	0x200038e9

08007308 <system_check_safety_door_ajar>:
 8007308:	b508      	push	{r3, lr}
 800730a:	f7ff ffb7 	bl	800727c <system_control_get_state>
 800730e:	f000 0001 	and.w	r0, r0, #1
 8007312:	bd08      	pop	{r3, pc}

08007314 <system_execute_startup>:
 8007314:	b538      	push	{r3, r4, r5, lr}
 8007316:	4604      	mov	r4, r0
 8007318:	2500      	movs	r5, #0
 800731a:	4621      	mov	r1, r4
 800731c:	b2e8      	uxtb	r0, r5
 800731e:	f7fe fec1 	bl	80060a4 <settings_read_startup_line>
 8007322:	b940      	cbnz	r0, 8007336 <system_execute_startup+0x22>
 8007324:	2107      	movs	r1, #7
 8007326:	7020      	strb	r0, [r4, #0]
 8007328:	4620      	mov	r0, r4
 800732a:	f7fe fb93 	bl	8005a54 <report_execute_startup_message>
 800732e:	3501      	adds	r5, #1
 8007330:	2d02      	cmp	r5, #2
 8007332:	d1f2      	bne.n	800731a <system_execute_startup+0x6>
 8007334:	bd38      	pop	{r3, r4, r5, pc}
 8007336:	7823      	ldrb	r3, [r4, #0]
 8007338:	2b00      	cmp	r3, #0
 800733a:	d0f8      	beq.n	800732e <system_execute_startup+0x1a>
 800733c:	4620      	mov	r0, r4
 800733e:	f7fb fb67 	bl	8002a10 <gc_execute_line>
 8007342:	4601      	mov	r1, r0
 8007344:	e7f0      	b.n	8007328 <system_execute_startup+0x14>
	...

08007348 <system_flag_wco_change>:
 8007348:	b508      	push	{r3, lr}
 800734a:	f7fe f8cb 	bl	80054e4 <protocol_buffer_synchronize>
 800734e:	2200      	movs	r2, #0
 8007350:	4b01      	ldr	r3, [pc, #4]	; (8007358 <system_flag_wco_change+0x10>)
 8007352:	735a      	strb	r2, [r3, #13]
 8007354:	bd08      	pop	{r3, pc}
 8007356:	bf00      	nop
 8007358:	200038d4 	.word	0x200038d4

0800735c <system_convert_axis_steps_to_mpos>:
 800735c:	b510      	push	{r4, lr}
 800735e:	460c      	mov	r4, r1
 8007360:	f850 0021 	ldr.w	r0, [r0, r1, lsl #2]
 8007364:	f7f9 fcba 	bl	8000cdc <__aeabi_i2f>
 8007368:	4b02      	ldr	r3, [pc, #8]	; (8007374 <system_convert_axis_steps_to_mpos+0x18>)
 800736a:	f853 1024 	ldr.w	r1, [r3, r4, lsl #2]
 800736e:	f7f9 fdbd 	bl	8000eec <__aeabi_fdiv>
 8007372:	bd10      	pop	{r4, pc}
 8007374:	20003f70 	.word	0x20003f70

08007378 <system_convert_array_steps_to_mpos>:
 8007378:	b570      	push	{r4, r5, r6, lr}
 800737a:	4605      	mov	r5, r0
 800737c:	460e      	mov	r6, r1
 800737e:	2400      	movs	r4, #0
 8007380:	b2e1      	uxtb	r1, r4
 8007382:	4630      	mov	r0, r6
 8007384:	f7ff ffea 	bl	800735c <system_convert_axis_steps_to_mpos>
 8007388:	f845 0024 	str.w	r0, [r5, r4, lsl #2]
 800738c:	3401      	adds	r4, #1
 800738e:	2c06      	cmp	r4, #6
 8007390:	d1f6      	bne.n	8007380 <system_convert_array_steps_to_mpos+0x8>
 8007392:	bd70      	pop	{r4, r5, r6, pc}

08007394 <system_check_travel_limits>:
 8007394:	e92d 41f0 	stmdb	sp!, {r4, r5, r6, r7, r8, lr}
 8007398:	f04f 0800 	mov.w	r8, #0
 800739c:	4e0b      	ldr	r6, [pc, #44]	; (80073cc <system_check_travel_limits+0x38>)
 800739e:	1f05      	subs	r5, r0, #4
 80073a0:	f100 0414 	add.w	r4, r0, #20
 80073a4:	f855 7f04 	ldr.w	r7, [r5, #4]!
 80073a8:	4641      	mov	r1, r8
 80073aa:	4638      	mov	r0, r7
 80073ac:	f7f9 fea6 	bl	80010fc <__aeabi_fcmpgt>
 80073b0:	b948      	cbnz	r0, 80073c6 <system_check_travel_limits+0x32>
 80073b2:	f856 1f04 	ldr.w	r1, [r6, #4]!
 80073b6:	4638      	mov	r0, r7
 80073b8:	f7f9 fe82 	bl	80010c0 <__aeabi_fcmplt>
 80073bc:	b918      	cbnz	r0, 80073c6 <system_check_travel_limits+0x32>
 80073be:	42a5      	cmp	r5, r4
 80073c0:	d1f0      	bne.n	80073a4 <system_check_travel_limits+0x10>
 80073c2:	e8bd 81f0 	ldmia.w	sp!, {r4, r5, r6, r7, r8, pc}
 80073c6:	2001      	movs	r0, #1
 80073c8:	e8bd 81f0 	ldmia.w	sp!, {r4, r5, r6, r7, r8, pc}
 80073cc:	20003fb4 	.word	0x20003fb4

080073d0 <system_set_exec_state_flag>:
 80073d0:	b672      	cpsid	i
 80073d2:	4a03      	ldr	r2, [pc, #12]	; (80073e0 <system_set_exec_state_flag+0x10>)
 80073d4:	7813      	ldrb	r3, [r2, #0]
 80073d6:	4318      	orrs	r0, r3
 80073d8:	7010      	strb	r0, [r2, #0]
 80073da:	b662      	cpsie	i
 80073dc:	4770      	bx	lr
 80073de:	bf00      	nop
 80073e0:	200038e9 	.word	0x200038e9

080073e4 <system_execute_line>:
 80073e4:	b57f      	push	{r0, r1, r2, r3, r4, r5, r6, lr}
 80073e6:	2301      	movs	r3, #1
 80073e8:	7844      	ldrb	r4, [r0, #1]
 80073ea:	4605      	mov	r5, r0
 80073ec:	2c43      	cmp	r4, #67	; 0x43
 80073ee:	f88d 3007 	strb.w	r3, [sp, #7]
 80073f2:	d003      	beq.n	80073fc <system_execute_line+0x18>
 80073f4:	d80b      	bhi.n	800740e <system_execute_line+0x2a>
 80073f6:	b184      	cbz	r4, 800741a <system_execute_line+0x36>
 80073f8:	2c24      	cmp	r4, #36	; 0x24
 80073fa:	d154      	bne.n	80074a6 <system_execute_line+0xc2>
 80073fc:	78ad      	ldrb	r5, [r5, #2]
 80073fe:	b9d5      	cbnz	r5, 8007436 <system_execute_line+0x52>
 8007400:	2c43      	cmp	r4, #67	; 0x43
 8007402:	d038      	beq.n	8007476 <system_execute_line+0x92>
 8007404:	d81d      	bhi.n	8007442 <system_execute_line+0x5e>
 8007406:	2c24      	cmp	r4, #36	; 0x24
 8007408:	d029      	beq.n	800745e <system_execute_line+0x7a>
 800740a:	2400      	movs	r4, #0
 800740c:	e007      	b.n	800741e <system_execute_line+0x3a>
 800740e:	2c4a      	cmp	r4, #74	; 0x4a
 8007410:	d008      	beq.n	8007424 <system_execute_line+0x40>
 8007412:	2c58      	cmp	r4, #88	; 0x58
 8007414:	d0f2      	beq.n	80073fc <system_execute_line+0x18>
 8007416:	2c47      	cmp	r4, #71	; 0x47
 8007418:	e7ef      	b.n	80073fa <system_execute_line+0x16>
 800741a:	f7fe f92b 	bl	8005674 <report_grbl_help>
 800741e:	4620      	mov	r0, r4
 8007420:	b004      	add	sp, #16
 8007422:	bd70      	pop	{r4, r5, r6, pc}
 8007424:	4baf      	ldr	r3, [pc, #700]	; (80076e4 <system_execute_line+0x300>)
 8007426:	781b      	ldrb	r3, [r3, #0]
 8007428:	f013 0fdf 	tst.w	r3, #223	; 0xdf
 800742c:	f040 8158 	bne.w	80076e0 <system_execute_line+0x2fc>
 8007430:	7883      	ldrb	r3, [r0, #2]
 8007432:	2b3d      	cmp	r3, #61	; 0x3d
 8007434:	d001      	beq.n	800743a <system_execute_line+0x56>
 8007436:	2403      	movs	r4, #3
 8007438:	e7f1      	b.n	800741e <system_execute_line+0x3a>
 800743a:	f7fb fae9 	bl	8002a10 <gc_execute_line>
 800743e:	4604      	mov	r4, r0
 8007440:	e7ed      	b.n	800741e <system_execute_line+0x3a>
 8007442:	2c47      	cmp	r4, #71	; 0x47
 8007444:	d014      	beq.n	8007470 <system_execute_line+0x8c>
 8007446:	2c58      	cmp	r4, #88	; 0x58
 8007448:	d1df      	bne.n	800740a <system_execute_line+0x26>
 800744a:	4da6      	ldr	r5, [pc, #664]	; (80076e4 <system_execute_line+0x300>)
 800744c:	782b      	ldrb	r3, [r5, #0]
 800744e:	2b01      	cmp	r3, #1
 8007450:	d1db      	bne.n	800740a <system_execute_line+0x26>
 8007452:	f7ff ff59 	bl	8007308 <system_check_safety_door_ajar>
 8007456:	4604      	mov	r4, r0
 8007458:	b300      	cbz	r0, 800749c <system_execute_line+0xb8>
 800745a:	240d      	movs	r4, #13
 800745c:	e7df      	b.n	800741e <system_execute_line+0x3a>
 800745e:	4ba1      	ldr	r3, [pc, #644]	; (80076e4 <system_execute_line+0x300>)
 8007460:	781c      	ldrb	r4, [r3, #0]
 8007462:	f014 0418 	ands.w	r4, r4, #24
 8007466:	f040 813b 	bne.w	80076e0 <system_execute_line+0x2fc>
 800746a:	f7fe f909 	bl	8005680 <report_grbl_settings>
 800746e:	e7d6      	b.n	800741e <system_execute_line+0x3a>
 8007470:	f7fe fa3e 	bl	80058f0 <report_gcode_modes>
 8007474:	e7c9      	b.n	800740a <system_execute_line+0x26>
 8007476:	4b9b      	ldr	r3, [pc, #620]	; (80076e4 <system_execute_line+0x300>)
 8007478:	781c      	ldrb	r4, [r3, #0]
 800747a:	2c02      	cmp	r4, #2
 800747c:	d105      	bne.n	800748a <system_execute_line+0xa6>
 800747e:	f7fc ff19 	bl	80042b4 <mc_reset>
 8007482:	2005      	movs	r0, #5
 8007484:	f7fe f8ac 	bl	80055e0 <report_feedback_message>
 8007488:	e7bf      	b.n	800740a <system_execute_line+0x26>
 800748a:	2c00      	cmp	r4, #0
 800748c:	f040 8128 	bne.w	80076e0 <system_execute_line+0x2fc>
 8007490:	2202      	movs	r2, #2
 8007492:	2004      	movs	r0, #4
 8007494:	701a      	strb	r2, [r3, #0]
 8007496:	f7fe f8a3 	bl	80055e0 <report_feedback_message>
 800749a:	e7c0      	b.n	800741e <system_execute_line+0x3a>
 800749c:	2003      	movs	r0, #3
 800749e:	f7fe f89f 	bl	80055e0 <report_feedback_message>
 80074a2:	702c      	strb	r4, [r5, #0]
 80074a4:	e7bb      	b.n	800741e <system_execute_line+0x3a>
 80074a6:	4e8f      	ldr	r6, [pc, #572]	; (80076e4 <system_execute_line+0x300>)
 80074a8:	7833      	ldrb	r3, [r6, #0]
 80074aa:	2b01      	cmp	r3, #1
 80074ac:	f200 8118 	bhi.w	80076e0 <system_execute_line+0x2fc>
 80074b0:	2c49      	cmp	r4, #73	; 0x49
 80074b2:	d077      	beq.n	80075a4 <system_execute_line+0x1c0>
 80074b4:	d805      	bhi.n	80074c2 <system_execute_line+0xde>
 80074b6:	2c23      	cmp	r4, #35	; 0x23
 80074b8:	d020      	beq.n	80074fc <system_execute_line+0x118>
 80074ba:	2c48      	cmp	r4, #72	; 0x48
 80074bc:	d024      	beq.n	8007508 <system_execute_line+0x124>
 80074be:	2400      	movs	r4, #0
 80074c0:	e0bb      	b.n	800763a <system_execute_line+0x256>
 80074c2:	2c52      	cmp	r4, #82	; 0x52
 80074c4:	f000 808c 	beq.w	80075e0 <system_execute_line+0x1fc>
 80074c8:	2c53      	cmp	r4, #83	; 0x53
 80074ca:	d05b      	beq.n	8007584 <system_execute_line+0x1a0>
 80074cc:	2c4e      	cmp	r4, #78	; 0x4e
 80074ce:	d1f6      	bne.n	80074be <system_execute_line+0xda>
 80074d0:	2202      	movs	r2, #2
 80074d2:	78ac      	ldrb	r4, [r5, #2]
 80074d4:	f88d 2007 	strb.w	r2, [sp, #7]
 80074d8:	2c00      	cmp	r4, #0
 80074da:	f040 80ab 	bne.w	8007634 <system_execute_line+0x250>
 80074de:	b2e6      	uxtb	r6, r4
 80074e0:	4629      	mov	r1, r5
 80074e2:	4630      	mov	r0, r6
 80074e4:	f7fe fdde 	bl	80060a4 <settings_read_startup_line>
 80074e8:	2800      	cmp	r0, #0
 80074ea:	f040 809e 	bne.w	800762a <system_execute_line+0x246>
 80074ee:	2007      	movs	r0, #7
 80074f0:	f7fe f84e 	bl	8005590 <report_status_message>
 80074f4:	3401      	adds	r4, #1
 80074f6:	2c02      	cmp	r4, #2
 80074f8:	d087      	beq.n	800740a <system_execute_line+0x26>
 80074fa:	e7f0      	b.n	80074de <system_execute_line+0xfa>
 80074fc:	78ac      	ldrb	r4, [r5, #2]
 80074fe:	2c00      	cmp	r4, #0
 8007500:	d199      	bne.n	8007436 <system_execute_line+0x52>
 8007502:	f7fe f99b 	bl	800583c <report_ngc_parameters>
 8007506:	e78a      	b.n	800741e <system_execute_line+0x3a>
 8007508:	4b77      	ldr	r3, [pc, #476]	; (80076e8 <system_execute_line+0x304>)
 800750a:	f893 3078 	ldrb.w	r3, [r3, #120]	; 0x78
 800750e:	06db      	lsls	r3, r3, #27
 8007510:	f140 80e4 	bpl.w	80076dc <system_execute_line+0x2f8>
 8007514:	f7ff fef8 	bl	8007308 <system_check_safety_door_ajar>
 8007518:	2800      	cmp	r0, #0
 800751a:	d19e      	bne.n	800745a <system_execute_line+0x76>
 800751c:	2304      	movs	r3, #4
 800751e:	7033      	strb	r3, [r6, #0]
 8007520:	78ab      	ldrb	r3, [r5, #2]
 8007522:	b983      	cbnz	r3, 8007546 <system_execute_line+0x162>
 8007524:	f7fc fe36 	bl	8004194 <mc_homing_cycle>
 8007528:	7874      	ldrb	r4, [r6, #1]
 800752a:	2c00      	cmp	r4, #0
 800752c:	f47f af6d 	bne.w	800740a <system_execute_line+0x26>
 8007530:	7034      	strb	r4, [r6, #0]
 8007532:	f7ff f899 	bl	8006668 <st_go_idle>
 8007536:	78ab      	ldrb	r3, [r5, #2]
 8007538:	2b00      	cmp	r3, #0
 800753a:	f47f af66 	bne.w	800740a <system_execute_line+0x26>
 800753e:	4628      	mov	r0, r5
 8007540:	f7ff fee8 	bl	8007314 <system_execute_startup>
 8007544:	e76b      	b.n	800741e <system_execute_line+0x3a>
 8007546:	78ea      	ldrb	r2, [r5, #3]
 8007548:	2a00      	cmp	r2, #0
 800754a:	f47f af74 	bne.w	8007436 <system_execute_line+0x52>
 800754e:	2b43      	cmp	r3, #67	; 0x43
 8007550:	d016      	beq.n	8007580 <system_execute_line+0x19c>
 8007552:	d806      	bhi.n	8007562 <system_execute_line+0x17e>
 8007554:	2b41      	cmp	r3, #65	; 0x41
 8007556:	d011      	beq.n	800757c <system_execute_line+0x198>
 8007558:	2b42      	cmp	r3, #66	; 0x42
 800755a:	f47f af6c 	bne.w	8007436 <system_execute_line+0x52>
 800755e:	2010      	movs	r0, #16
 8007560:	e7e0      	b.n	8007524 <system_execute_line+0x140>
 8007562:	2b59      	cmp	r3, #89	; 0x59
 8007564:	d006      	beq.n	8007574 <system_execute_line+0x190>
 8007566:	2b5a      	cmp	r3, #90	; 0x5a
 8007568:	d006      	beq.n	8007578 <system_execute_line+0x194>
 800756a:	2b58      	cmp	r3, #88	; 0x58
 800756c:	f47f af63 	bne.w	8007436 <system_execute_line+0x52>
 8007570:	2001      	movs	r0, #1
 8007572:	e7d7      	b.n	8007524 <system_execute_line+0x140>
 8007574:	2002      	movs	r0, #2
 8007576:	e7d5      	b.n	8007524 <system_execute_line+0x140>
 8007578:	2004      	movs	r0, #4
 800757a:	e7d3      	b.n	8007524 <system_execute_line+0x140>
 800757c:	2008      	movs	r0, #8
 800757e:	e7d1      	b.n	8007524 <system_execute_line+0x140>
 8007580:	2020      	movs	r0, #32
 8007582:	e7cf      	b.n	8007524 <system_execute_line+0x140>
 8007584:	78ab      	ldrb	r3, [r5, #2]
 8007586:	2b4c      	cmp	r3, #76	; 0x4c
 8007588:	f47f af55 	bne.w	8007436 <system_execute_line+0x52>
 800758c:	78eb      	ldrb	r3, [r5, #3]
 800758e:	2b50      	cmp	r3, #80	; 0x50
 8007590:	f47f af51 	bne.w	8007436 <system_execute_line+0x52>
 8007594:	792c      	ldrb	r4, [r5, #4]
 8007596:	2c00      	cmp	r4, #0
 8007598:	f47f af4d 	bne.w	8007436 <system_execute_line+0x52>
 800759c:	2080      	movs	r0, #128	; 0x80
 800759e:	f7ff ff17 	bl	80073d0 <system_set_exec_state_flag>
 80075a2:	e73c      	b.n	800741e <system_execute_line+0x3a>
 80075a4:	2302      	movs	r3, #2
 80075a6:	78ac      	ldrb	r4, [r5, #2]
 80075a8:	f88d 3007 	strb.w	r3, [sp, #7]
 80075ac:	b934      	cbnz	r4, 80075bc <system_execute_line+0x1d8>
 80075ae:	4628      	mov	r0, r5
 80075b0:	f7fe fd8e 	bl	80060d0 <settings_read_build_info>
 80075b4:	4628      	mov	r0, r5
 80075b6:	f7fe fa5f 	bl	8005a78 <report_build_info>
 80075ba:	e730      	b.n	800741e <system_execute_line+0x3a>
 80075bc:	2c3d      	cmp	r4, #61	; 0x3d
 80075be:	f47f af3a 	bne.w	8007436 <system_execute_line+0x52>
 80075c2:	2303      	movs	r3, #3
 80075c4:	5cec      	ldrb	r4, [r5, r3]
 80075c6:	18ea      	adds	r2, r5, r3
 80075c8:	3301      	adds	r3, #1
 80075ca:	f802 4c03 	strb.w	r4, [r2, #-3]
 80075ce:	b2db      	uxtb	r3, r3
 80075d0:	2c00      	cmp	r4, #0
 80075d2:	d1f7      	bne.n	80075c4 <system_execute_line+0x1e0>
 80075d4:	4628      	mov	r0, r5
 80075d6:	f88d 3007 	strb.w	r3, [sp, #7]
 80075da:	f7fe fca7 	bl	8005f2c <settings_store_build_info>
 80075de:	e71e      	b.n	800741e <system_execute_line+0x3a>
 80075e0:	78ab      	ldrb	r3, [r5, #2]
 80075e2:	2b53      	cmp	r3, #83	; 0x53
 80075e4:	f47f af27 	bne.w	8007436 <system_execute_line+0x52>
 80075e8:	78eb      	ldrb	r3, [r5, #3]
 80075ea:	2b54      	cmp	r3, #84	; 0x54
 80075ec:	f47f af23 	bne.w	8007436 <system_execute_line+0x52>
 80075f0:	792b      	ldrb	r3, [r5, #4]
 80075f2:	2b3d      	cmp	r3, #61	; 0x3d
 80075f4:	f47f af1f 	bne.w	8007436 <system_execute_line+0x52>
 80075f8:	79ab      	ldrb	r3, [r5, #6]
 80075fa:	2b00      	cmp	r3, #0
 80075fc:	f47f af1b 	bne.w	8007436 <system_execute_line+0x52>
 8007600:	796b      	ldrb	r3, [r5, #5]
 8007602:	2b24      	cmp	r3, #36	; 0x24
 8007604:	d006      	beq.n	8007614 <system_execute_line+0x230>
 8007606:	2b2a      	cmp	r3, #42	; 0x2a
 8007608:	d00d      	beq.n	8007626 <system_execute_line+0x242>
 800760a:	2b23      	cmp	r3, #35	; 0x23
 800760c:	f47f af13 	bne.w	8007436 <system_execute_line+0x52>
 8007610:	2002      	movs	r0, #2
 8007612:	e000      	b.n	8007616 <system_execute_line+0x232>
 8007614:	2001      	movs	r0, #1
 8007616:	f7fe fcad 	bl	8005f74 <settings_restore>
 800761a:	2009      	movs	r0, #9
 800761c:	f7fd ffe0 	bl	80055e0 <report_feedback_message>
 8007620:	f7fc fe48 	bl	80042b4 <mc_reset>
 8007624:	e6f1      	b.n	800740a <system_execute_line+0x26>
 8007626:	20ff      	movs	r0, #255	; 0xff
 8007628:	e7f5      	b.n	8007616 <system_execute_line+0x232>
 800762a:	4629      	mov	r1, r5
 800762c:	4630      	mov	r0, r6
 800762e:	f7fe f9fb 	bl	8005a28 <report_startup_line>
 8007632:	e75f      	b.n	80074f4 <system_execute_line+0x110>
 8007634:	2b00      	cmp	r3, #0
 8007636:	d153      	bne.n	80076e0 <system_execute_line+0x2fc>
 8007638:	2401      	movs	r4, #1
 800763a:	aa02      	add	r2, sp, #8
 800763c:	f10d 0107 	add.w	r1, sp, #7
 8007640:	4628      	mov	r0, r5
 8007642:	f7fc fe61 	bl	8004308 <read_float>
 8007646:	b908      	cbnz	r0, 800764c <system_execute_line+0x268>
 8007648:	2402      	movs	r4, #2
 800764a:	e6e8      	b.n	800741e <system_execute_line+0x3a>
 800764c:	f89d 3007 	ldrb.w	r3, [sp, #7]
 8007650:	1c5a      	adds	r2, r3, #1
 8007652:	5ceb      	ldrb	r3, [r5, r3]
 8007654:	b2d2      	uxtb	r2, r2
 8007656:	2b3d      	cmp	r3, #61	; 0x3d
 8007658:	f88d 2007 	strb.w	r2, [sp, #7]
 800765c:	f47f aeeb 	bne.w	8007436 <system_execute_line+0x52>
 8007660:	b1f4      	cbz	r4, 80076a0 <system_execute_line+0x2bc>
 8007662:	4613      	mov	r3, r2
 8007664:	5cec      	ldrb	r4, [r5, r3]
 8007666:	1a98      	subs	r0, r3, r2
 8007668:	18e9      	adds	r1, r5, r3
 800766a:	542c      	strb	r4, [r5, r0]
 800766c:	7809      	ldrb	r1, [r1, #0]
 800766e:	3301      	adds	r3, #1
 8007670:	b2db      	uxtb	r3, r3
 8007672:	2900      	cmp	r1, #0
 8007674:	d1f6      	bne.n	8007664 <system_execute_line+0x280>
 8007676:	4628      	mov	r0, r5
 8007678:	f88d 3007 	strb.w	r3, [sp, #7]
 800767c:	f7fb f9c8 	bl	8002a10 <gc_execute_line>
 8007680:	4604      	mov	r4, r0
 8007682:	2800      	cmp	r0, #0
 8007684:	f47f aecb 	bne.w	800741e <system_execute_line+0x3a>
 8007688:	9802      	ldr	r0, [sp, #8]
 800768a:	f7f8 fed1 	bl	8000430 <__aeabi_f2d>
 800768e:	f000 ff2f 	bl	80084f0 <trunc>
 8007692:	f7f9 f9f9 	bl	8000a88 <__aeabi_d2uiz>
 8007696:	4629      	mov	r1, r5
 8007698:	b2c0      	uxtb	r0, r0
 800769a:	f7fe fc37 	bl	8005f0c <settings_store_startup_line>
 800769e:	e6be      	b.n	800741e <system_execute_line+0x3a>
 80076a0:	aa03      	add	r2, sp, #12
 80076a2:	f10d 0107 	add.w	r1, sp, #7
 80076a6:	4628      	mov	r0, r5
 80076a8:	f7fc fe2e 	bl	8004308 <read_float>
 80076ac:	2800      	cmp	r0, #0
 80076ae:	d0cb      	beq.n	8007648 <system_execute_line+0x264>
 80076b0:	f89d 3007 	ldrb.w	r3, [sp, #7]
 80076b4:	5ceb      	ldrb	r3, [r5, r3]
 80076b6:	2b00      	cmp	r3, #0
 80076b8:	f47f aebd 	bne.w	8007436 <system_execute_line+0x52>
 80076bc:	9c02      	ldr	r4, [sp, #8]
 80076be:	490b      	ldr	r1, [pc, #44]	; (80076ec <system_execute_line+0x308>)
 80076c0:	4620      	mov	r0, r4
 80076c2:	f7f9 fd1b 	bl	80010fc <__aeabi_fcmpgt>
 80076c6:	2800      	cmp	r0, #0
 80076c8:	f47f aeb5 	bne.w	8007436 <system_execute_line+0x52>
 80076cc:	4620      	mov	r0, r4
 80076ce:	f7f9 fd5b 	bl	8001188 <__aeabi_f2uiz>
 80076d2:	9903      	ldr	r1, [sp, #12]
 80076d4:	b2c0      	uxtb	r0, r0
 80076d6:	f7fe fd3d 	bl	8006154 <settings_store_global_setting>
 80076da:	e6b0      	b.n	800743e <system_execute_line+0x5a>
 80076dc:	2405      	movs	r4, #5
 80076de:	e69e      	b.n	800741e <system_execute_line+0x3a>
 80076e0:	2408      	movs	r4, #8
 80076e2:	e69c      	b.n	800741e <system_execute_line+0x3a>
 80076e4:	200038d4 	.word	0x200038d4
 80076e8:	20003f70 	.word	0x20003f70
 80076ec:	437f0000 	.word	0x437f0000

080076f0 <system_clear_exec_state_flag>:
 80076f0:	b672      	cpsid	i
 80076f2:	4a03      	ldr	r2, [pc, #12]	; (8007700 <system_clear_exec_state_flag+0x10>)
 80076f4:	7813      	ldrb	r3, [r2, #0]
 80076f6:	ea23 0000 	bic.w	r0, r3, r0
 80076fa:	7010      	strb	r0, [r2, #0]
 80076fc:	b662      	cpsie	i
 80076fe:	4770      	bx	lr
 8007700:	200038e9 	.word	0x200038e9

08007704 <system_set_exec_alarm>:
 8007704:	b672      	cpsid	i
 8007706:	4a03      	ldr	r2, [pc, #12]	; (8007714 <system_set_exec_alarm+0x10>)
 8007708:	7813      	ldrb	r3, [r2, #0]
 800770a:	4318      	orrs	r0, r3
 800770c:	7010      	strb	r0, [r2, #0]
 800770e:	b662      	cpsie	i
 8007710:	4770      	bx	lr
 8007712:	bf00      	nop
 8007714:	2000391c 	.word	0x2000391c

08007718 <system_clear_exec_alarm>:
 8007718:	b672      	cpsid	i
 800771a:	2200      	movs	r2, #0
 800771c:	4b01      	ldr	r3, [pc, #4]	; (8007724 <system_clear_exec_alarm+0xc>)
 800771e:	701a      	strb	r2, [r3, #0]
 8007720:	b662      	cpsie	i
 8007722:	4770      	bx	lr
 8007724:	2000391c 	.word	0x2000391c

08007728 <system_set_exec_motion_override_flag>:
 8007728:	b672      	cpsid	i
 800772a:	4a03      	ldr	r2, [pc, #12]	; (8007738 <system_set_exec_motion_override_flag+0x10>)
 800772c:	7813      	ldrb	r3, [r2, #0]
 800772e:	4318      	orrs	r0, r3
 8007730:	7010      	strb	r0, [r2, #0]
 8007732:	b662      	cpsie	i
 8007734:	4770      	bx	lr
 8007736:	bf00      	nop
 8007738:	200038d0 	.word	0x200038d0

0800773c <system_set_exec_accessory_override_flag>:
 800773c:	b672      	cpsid	i
 800773e:	4a03      	ldr	r2, [pc, #12]	; (800774c <system_set_exec_accessory_override_flag+0x10>)
 8007740:	7813      	ldrb	r3, [r2, #0]
 8007742:	4318      	orrs	r0, r3
 8007744:	7010      	strb	r0, [r2, #0]
 8007746:	b662      	cpsie	i
 8007748:	4770      	bx	lr
 800774a:	bf00      	nop
 800774c:	200038e8 	.word	0x200038e8

08007750 <system_clear_exec_motion_overrides>:
 8007750:	b672      	cpsid	i
 8007752:	2200      	movs	r2, #0
 8007754:	4b01      	ldr	r3, [pc, #4]	; (800775c <system_clear_exec_motion_overrides+0xc>)
 8007756:	701a      	strb	r2, [r3, #0]
 8007758:	b662      	cpsie	i
 800775a:	4770      	bx	lr
 800775c:	200038d0 	.word	0x200038d0

08007760 <system_clear_exec_accessory_overrides>:
 8007760:	b672      	cpsid	i
 8007762:	2200      	movs	r2, #0
 8007764:	4b01      	ldr	r3, [pc, #4]	; (800776c <system_clear_exec_accessory_overrides+0xc>)
 8007766:	701a      	strb	r2, [r3, #0]
 8007768:	b662      	cpsie	i
 800776a:	4770      	bx	lr
 800776c:	200038e8 	.word	0x200038e8

08007770 <Reset_Handler>:
 8007770:	2100      	movs	r1, #0
 8007772:	e003      	b.n	800777c <LoopCopyDataInit>

08007774 <CopyDataInit>:
 8007774:	4b0b      	ldr	r3, [pc, #44]	; (80077a4 <LoopFillZerobss+0x14>)
 8007776:	585b      	ldr	r3, [r3, r1]
 8007778:	5043      	str	r3, [r0, r1]
 800777a:	3104      	adds	r1, #4

0800777c <LoopCopyDataInit>:
 800777c:	480a      	ldr	r0, [pc, #40]	; (80077a8 <LoopFillZerobss+0x18>)
 800777e:	4b0b      	ldr	r3, [pc, #44]	; (80077ac <LoopFillZerobss+0x1c>)
 8007780:	1842      	adds	r2, r0, r1
 8007782:	429a      	cmp	r2, r3
 8007784:	d3f6      	bcc.n	8007774 <CopyDataInit>
 8007786:	4a0a      	ldr	r2, [pc, #40]	; (80077b0 <LoopFillZerobss+0x20>)
 8007788:	e002      	b.n	8007790 <LoopFillZerobss>

0800778a <FillZerobss>:
 800778a:	2300      	movs	r3, #0
 800778c:	f842 3b04 	str.w	r3, [r2], #4

08007790 <LoopFillZerobss>:
 8007790:	4b08      	ldr	r3, [pc, #32]	; (80077b4 <LoopFillZerobss+0x24>)
 8007792:	429a      	cmp	r2, r3
 8007794:	d3f9      	bcc.n	800778a <FillZerobss>
 8007796:	f7fa feab 	bl	80024f0 <SystemInit>
 800779a:	f000 f8af 	bl	80078fc <__libc_init_array>
 800779e:	f7fa fd25 	bl	80021ec <main>
 80077a2:	4770      	bx	lr
 80077a4:	08009eac 	.word	0x08009eac
 80077a8:	20000000 	.word	0x20000000
 80077ac:	20000074 	.word	0x20000074
 80077b0:	20000078 	.word	0x20000078
 80077b4:	200040a8 	.word	0x200040a8

080077b8 <ADC1_2_IRQHandler>:
 80077b8:	e7fe      	b.n	80077b8 <ADC1_2_IRQHandler>
	...

080077bc <outputs_digital_reset>:
 80077bc:	2120      	movs	r1, #32
 80077be:	4801      	ldr	r0, [pc, #4]	; (80077c4 <outputs_digital_reset+0x8>)
 80077c0:	f000 b890 	b.w	80078e4 <GPIO_ResetBits>
 80077c4:	40010c00 	.word	0x40010c00

080077c8 <inoutputs_init>:
 80077c8:	f7ff bff8 	b.w	80077bc <outputs_digital_reset>

080077cc <outputs_digital_set>:
 80077cc:	2120      	movs	r1, #32
 80077ce:	4801      	ldr	r0, [pc, #4]	; (80077d4 <outputs_digital_set+0x8>)
 80077d0:	f000 b88b 	b.w	80078ea <GPIO_SetBits>
 80077d4:	40010c00 	.word	0x40010c00

080077d8 <outputs_set_digital>:
 80077d8:	b940      	cbnz	r0, 80077ec <outputs_set_digital+0x14>
 80077da:	b119      	cbz	r1, 80077e4 <outputs_set_digital+0xc>
 80077dc:	2120      	movs	r1, #32
 80077de:	4804      	ldr	r0, [pc, #16]	; (80077f0 <outputs_set_digital+0x18>)
 80077e0:	f000 b883 	b.w	80078ea <GPIO_SetBits>
 80077e4:	2120      	movs	r1, #32
 80077e6:	4802      	ldr	r0, [pc, #8]	; (80077f0 <outputs_set_digital+0x18>)
 80077e8:	f000 b87c 	b.w	80078e4 <GPIO_ResetBits>
 80077ec:	4770      	bx	lr
 80077ee:	bf00      	nop
 80077f0:	40010c00 	.word	0x40010c00

080077f4 <outputs_digital_action>:
 80077f4:	b538      	push	{r3, r4, r5, lr}
 80077f6:	4605      	mov	r5, r0
 80077f8:	460c      	mov	r4, r1
 80077fa:	f7fd fe73 	bl	80054e4 <protocol_buffer_synchronize>
 80077fe:	2dff      	cmp	r5, #255	; 0xff
 8007800:	d10b      	bne.n	800781a <outputs_digital_action+0x26>
 8007802:	2c01      	cmp	r4, #1
 8007804:	d103      	bne.n	800780e <outputs_digital_action+0x1a>
 8007806:	e8bd 4038 	ldmia.w	sp!, {r3, r4, r5, lr}
 800780a:	f7ff bfdf 	b.w	80077cc <outputs_digital_set>
 800780e:	2c02      	cmp	r4, #2
 8007810:	d114      	bne.n	800783c <outputs_digital_action+0x48>
 8007812:	e8bd 4038 	ldmia.w	sp!, {r3, r4, r5, lr}
 8007816:	f7ff bfd1 	b.w	80077bc <outputs_digital_reset>
 800781a:	b97d      	cbnz	r5, 800783c <outputs_digital_action+0x48>
 800781c:	2c01      	cmp	r4, #1
 800781e:	d105      	bne.n	800782c <outputs_digital_action+0x38>
 8007820:	2120      	movs	r1, #32
 8007822:	e8bd 4038 	ldmia.w	sp!, {r3, r4, r5, lr}
 8007826:	4806      	ldr	r0, [pc, #24]	; (8007840 <outputs_digital_action+0x4c>)
 8007828:	f000 b85f 	b.w	80078ea <GPIO_SetBits>
 800782c:	2c02      	cmp	r4, #2
 800782e:	d105      	bne.n	800783c <outputs_digital_action+0x48>
 8007830:	4629      	mov	r1, r5
 8007832:	4628      	mov	r0, r5
 8007834:	e8bd 4038 	ldmia.w	sp!, {r3, r4, r5, lr}
 8007838:	f7ff bfce 	b.w	80077d8 <outputs_set_digital>
 800783c:	bd38      	pop	{r3, r4, r5, pc}
 800783e:	bf00      	nop
 8007840:	40010c00 	.word	0x40010c00

08007844 <outputs_analog_init>:
 8007844:	4770      	bx	lr

08007846 <outputs_analog_action>:
 8007846:	4770      	bx	lr

08007848 <wait_on_input_action>:
 8007848:	4770      	bx	lr
	...

0800784c <timing_init>:
 800784c:	b508      	push	{r3, lr}
 800784e:	4b07      	ldr	r3, [pc, #28]	; (800786c <timing_init+0x20>)
 8007850:	4a07      	ldr	r2, [pc, #28]	; (8007870 <timing_init+0x24>)
 8007852:	6818      	ldr	r0, [r3, #0]
 8007854:	4b07      	ldr	r3, [pc, #28]	; (8007874 <timing_init+0x28>)
 8007856:	fbb0 f3f3 	udiv	r3, r0, r3
 800785a:	6013      	str	r3, [r2, #0]
 800785c:	f7f9 fa3a 	bl	8000cd4 <__aeabi_ui2f>
 8007860:	4905      	ldr	r1, [pc, #20]	; (8007878 <timing_init+0x2c>)
 8007862:	f7f9 fa8f 	bl	8000d84 <__aeabi_fmul>
 8007866:	4b05      	ldr	r3, [pc, #20]	; (800787c <timing_init+0x30>)
 8007868:	6018      	str	r0, [r3, #0]
 800786a:	bd08      	pop	{r3, pc}
 800786c:	20000008 	.word	0x20000008
 8007870:	2000389c 	.word	0x2000389c
 8007874:	000f4240 	.word	0x000f4240
 8007878:	42700000 	.word	0x42700000
 800787c:	20003898 	.word	0x20003898

08007880 <uart_sendch>:
 8007880:	4b02      	ldr	r3, [pc, #8]	; (800788c <uart_sendch+0xc>)
 8007882:	6058      	str	r0, [r3, #4]
 8007884:	681a      	ldr	r2, [r3, #0]
 8007886:	0612      	lsls	r2, r2, #24
 8007888:	d5fc      	bpl.n	8007884 <uart_sendch+0x4>
 800788a:	4770      	bx	lr
 800788c:	40013800 	.word	0x40013800

08007890 <uart_sendstr>:
 8007890:	b508      	push	{r3, lr}
 8007892:	1e41      	subs	r1, r0, #1
 8007894:	f811 0f01 	ldrb.w	r0, [r1, #1]!
 8007898:	b900      	cbnz	r0, 800789c <uart_sendstr+0xc>
 800789a:	bd08      	pop	{r3, pc}
 800789c:	f7ff fff0 	bl	8007880 <uart_sendch>
 80078a0:	e7f8      	b.n	8007894 <uart_sendstr+0x4>
	...

080078a4 <uart_init>:
 80078a4:	4a0b      	ldr	r2, [pc, #44]	; (80078d4 <uart_init+0x30>)
 80078a6:	b510      	push	{r4, lr}
 80078a8:	68d3      	ldr	r3, [r2, #12]
 80078aa:	4c0b      	ldr	r4, [pc, #44]	; (80078d8 <uart_init+0x34>)
 80078ac:	f043 0320 	orr.w	r3, r3, #32
 80078b0:	60d3      	str	r3, [r2, #12]
 80078b2:	2100      	movs	r1, #0
 80078b4:	2250      	movs	r2, #80	; 0x50
 80078b6:	4620      	mov	r0, r4
 80078b8:	f000 f853 	bl	8007962 <memset>
 80078bc:	4b07      	ldr	r3, [pc, #28]	; (80078dc <uart_init+0x38>)
 80078be:	4620      	mov	r0, r4
 80078c0:	681a      	ldr	r2, [r3, #0]
 80078c2:	4907      	ldr	r1, [pc, #28]	; (80078e0 <uart_init+0x3c>)
 80078c4:	f000 f856 	bl	8007974 <siprintf>
 80078c8:	4620      	mov	r0, r4
 80078ca:	e8bd 4010 	ldmia.w	sp!, {r4, lr}
 80078ce:	f7ff bfdf 	b.w	8007890 <uart_sendstr>
 80078d2:	bf00      	nop
 80078d4:	40013800 	.word	0x40013800
 80078d8:	20004030 	.word	0x20004030
 80078dc:	20000008 	.word	0x20000008
 80078e0:	08009a66 	.word	0x08009a66

080078e4 <GPIO_ResetBits>:
 80078e4:	2200      	movs	r2, #0
 80078e6:	f7f9 bee5 	b.w	80016b4 <HAL_GPIO_WritePin>

080078ea <GPIO_SetBits>:
 80078ea:	2201      	movs	r2, #1
 80078ec:	f7f9 bee2 	b.w	80016b4 <HAL_GPIO_WritePin>

080078f0 <__errno>:
 80078f0:	4b01      	ldr	r3, [pc, #4]	; (80078f8 <__errno+0x8>)
 80078f2:	6818      	ldr	r0, [r3, #0]
 80078f4:	4770      	bx	lr
 80078f6:	bf00      	nop
 80078f8:	2000000c 	.word	0x2000000c

080078fc <__libc_init_array>:
 80078fc:	b570      	push	{r4, r5, r6, lr}
 80078fe:	2500      	movs	r5, #0
 8007900:	4e0c      	ldr	r6, [pc, #48]	; (8007934 <__libc_init_array+0x38>)
 8007902:	4c0d      	ldr	r4, [pc, #52]	; (8007938 <__libc_init_array+0x3c>)
 8007904:	1ba4      	subs	r4, r4, r6
 8007906:	10a4      	asrs	r4, r4, #2
 8007908:	42a5      	cmp	r5, r4
 800790a:	d109      	bne.n	8007920 <__libc_init_array+0x24>
 800790c:	f001 ff92 	bl	8009834 <_init>
 8007910:	2500      	movs	r5, #0
 8007912:	4e0a      	ldr	r6, [pc, #40]	; (800793c <__libc_init_array+0x40>)
 8007914:	4c0a      	ldr	r4, [pc, #40]	; (8007940 <__libc_init_array+0x44>)
 8007916:	1ba4      	subs	r4, r4, r6
 8007918:	10a4      	asrs	r4, r4, #2
 800791a:	42a5      	cmp	r5, r4
 800791c:	d105      	bne.n	800792a <__libc_init_array+0x2e>
 800791e:	bd70      	pop	{r4, r5, r6, pc}
 8007920:	f856 3025 	ldr.w	r3, [r6, r5, lsl #2]
 8007924:	4798      	blx	r3
 8007926:	3501      	adds	r5, #1
 8007928:	e7ee      	b.n	8007908 <__libc_init_array+0xc>
 800792a:	f856 3025 	ldr.w	r3, [r6, r5, lsl #2]
 800792e:	4798      	blx	r3
 8007930:	3501      	adds	r5, #1
 8007932:	e7f2      	b.n	800791a <__libc_init_array+0x1e>
 8007934:	08009ea4 	.word	0x08009ea4
 8007938:	08009ea4 	.word	0x08009ea4
 800793c:	08009ea4 	.word	0x08009ea4
 8007940:	08009ea8 	.word	0x08009ea8

08007944 <memcmp>:
 8007944:	b510      	push	{r4, lr}
 8007946:	3901      	subs	r1, #1
 8007948:	4402      	add	r2, r0
 800794a:	4290      	cmp	r0, r2
 800794c:	d101      	bne.n	8007952 <memcmp+0xe>
 800794e:	2000      	movs	r0, #0
 8007950:	bd10      	pop	{r4, pc}
 8007952:	f810 3b01 	ldrb.w	r3, [r0], #1
 8007956:	f811 4f01 	ldrb.w	r4, [r1, #1]!
 800795a:	42a3      	cmp	r3, r4
 800795c:	d0f5      	beq.n	800794a <memcmp+0x6>
 800795e:	1b18      	subs	r0, r3, r4
 8007960:	bd10      	pop	{r4, pc}

08007962 <memset>:
 8007962:	4603      	mov	r3, r0
 8007964:	4402      	add	r2, r0
 8007966:	4293      	cmp	r3, r2
 8007968:	d100      	bne.n	800796c <memset+0xa>
 800796a:	4770      	bx	lr
 800796c:	f803 1b01 	strb.w	r1, [r3], #1
 8007970:	e7f9      	b.n	8007966 <memset+0x4>
	...

08007974 <siprintf>:
 8007974:	b40e      	push	{r1, r2, r3}
 8007976:	f44f 7102 	mov.w	r1, #520	; 0x208
 800797a:	b500      	push	{lr}
 800797c:	b09c      	sub	sp, #112	; 0x70
 800797e:	f8ad 1014 	strh.w	r1, [sp, #20]
 8007982:	f06f 4100 	mvn.w	r1, #2147483648	; 0x80000000
 8007986:	9104      	str	r1, [sp, #16]
 8007988:	9107      	str	r1, [sp, #28]
 800798a:	f64f 71ff 	movw	r1, #65535	; 0xffff
 800798e:	ab1d      	add	r3, sp, #116	; 0x74
 8007990:	9002      	str	r0, [sp, #8]
 8007992:	9006      	str	r0, [sp, #24]
 8007994:	4808      	ldr	r0, [pc, #32]	; (80079b8 <siprintf+0x44>)
 8007996:	f853 2b04 	ldr.w	r2, [r3], #4
 800799a:	f8ad 1016 	strh.w	r1, [sp, #22]
 800799e:	6800      	ldr	r0, [r0, #0]
 80079a0:	a902      	add	r1, sp, #8
 80079a2:	9301      	str	r3, [sp, #4]
 80079a4:	f000 f866 	bl	8007a74 <_svfiprintf_r>
 80079a8:	2200      	movs	r2, #0
 80079aa:	9b02      	ldr	r3, [sp, #8]
 80079ac:	701a      	strb	r2, [r3, #0]
 80079ae:	b01c      	add	sp, #112	; 0x70
 80079b0:	f85d eb04 	ldr.w	lr, [sp], #4
 80079b4:	b003      	add	sp, #12
 80079b6:	4770      	bx	lr
 80079b8:	2000000c 	.word	0x2000000c

080079bc <__ssputs_r>:
 80079bc:	e92d 47f0 	stmdb	sp!, {r4, r5, r6, r7, r8, r9, sl, lr}
 80079c0:	688e      	ldr	r6, [r1, #8]
 80079c2:	4682      	mov	sl, r0
 80079c4:	429e      	cmp	r6, r3
 80079c6:	460c      	mov	r4, r1
 80079c8:	4691      	mov	r9, r2
 80079ca:	4698      	mov	r8, r3
 80079cc:	d835      	bhi.n	8007a3a <__ssputs_r+0x7e>
 80079ce:	898a      	ldrh	r2, [r1, #12]
 80079d0:	f412 6f90 	tst.w	r2, #1152	; 0x480
 80079d4:	d031      	beq.n	8007a3a <__ssputs_r+0x7e>
 80079d6:	2302      	movs	r3, #2
 80079d8:	6825      	ldr	r5, [r4, #0]
 80079da:	6909      	ldr	r1, [r1, #16]
 80079dc:	1a6f      	subs	r7, r5, r1
 80079de:	6965      	ldr	r5, [r4, #20]
 80079e0:	eb05 0545 	add.w	r5, r5, r5, lsl #1
 80079e4:	fb95 f5f3 	sdiv	r5, r5, r3
 80079e8:	f108 0301 	add.w	r3, r8, #1
 80079ec:	443b      	add	r3, r7
 80079ee:	429d      	cmp	r5, r3
 80079f0:	bf38      	it	cc
 80079f2:	461d      	movcc	r5, r3
 80079f4:	0553      	lsls	r3, r2, #21
 80079f6:	d531      	bpl.n	8007a5c <__ssputs_r+0xa0>
 80079f8:	4629      	mov	r1, r5
 80079fa:	f000 fb47 	bl	800808c <_malloc_r>
 80079fe:	4606      	mov	r6, r0
 8007a00:	b950      	cbnz	r0, 8007a18 <__ssputs_r+0x5c>
 8007a02:	230c      	movs	r3, #12
 8007a04:	f8ca 3000 	str.w	r3, [sl]
 8007a08:	89a3      	ldrh	r3, [r4, #12]
 8007a0a:	f04f 30ff 	mov.w	r0, #4294967295
 8007a0e:	f043 0340 	orr.w	r3, r3, #64	; 0x40
 8007a12:	81a3      	strh	r3, [r4, #12]
 8007a14:	e8bd 87f0 	ldmia.w	sp!, {r4, r5, r6, r7, r8, r9, sl, pc}
 8007a18:	463a      	mov	r2, r7
 8007a1a:	6921      	ldr	r1, [r4, #16]
 8007a1c:	f000 fac4 	bl	8007fa8 <memcpy>
 8007a20:	89a3      	ldrh	r3, [r4, #12]
 8007a22:	f423 6390 	bic.w	r3, r3, #1152	; 0x480
 8007a26:	f043 0380 	orr.w	r3, r3, #128	; 0x80
 8007a2a:	81a3      	strh	r3, [r4, #12]
 8007a2c:	6126      	str	r6, [r4, #16]
 8007a2e:	443e      	add	r6, r7
 8007a30:	6026      	str	r6, [r4, #0]
 8007a32:	4646      	mov	r6, r8
 8007a34:	6165      	str	r5, [r4, #20]
 8007a36:	1bed      	subs	r5, r5, r7
 8007a38:	60a5      	str	r5, [r4, #8]
 8007a3a:	4546      	cmp	r6, r8
 8007a3c:	bf28      	it	cs
 8007a3e:	4646      	movcs	r6, r8
 8007a40:	4649      	mov	r1, r9
 8007a42:	4632      	mov	r2, r6
 8007a44:	6820      	ldr	r0, [r4, #0]
 8007a46:	f000 faba 	bl	8007fbe <memmove>
 8007a4a:	68a3      	ldr	r3, [r4, #8]
 8007a4c:	2000      	movs	r0, #0
 8007a4e:	1b9b      	subs	r3, r3, r6
 8007a50:	60a3      	str	r3, [r4, #8]
 8007a52:	6823      	ldr	r3, [r4, #0]
 8007a54:	441e      	add	r6, r3
 8007a56:	6026      	str	r6, [r4, #0]
 8007a58:	e8bd 87f0 	ldmia.w	sp!, {r4, r5, r6, r7, r8, r9, sl, pc}
 8007a5c:	462a      	mov	r2, r5
 8007a5e:	f000 fb73 	bl	8008148 <_realloc_r>
 8007a62:	4606      	mov	r6, r0
 8007a64:	2800      	cmp	r0, #0
 8007a66:	d1e1      	bne.n	8007a2c <__ssputs_r+0x70>
 8007a68:	6921      	ldr	r1, [r4, #16]
 8007a6a:	4650      	mov	r0, sl
 8007a6c:	f000 fac2 	bl	8007ff4 <_free_r>
 8007a70:	e7c7      	b.n	8007a02 <__ssputs_r+0x46>
	...

08007a74 <_svfiprintf_r>:
 8007a74:	e92d 4ff0 	stmdb	sp!, {r4, r5, r6, r7, r8, r9, sl, fp, lr}
 8007a78:	b09d      	sub	sp, #116	; 0x74
 8007a7a:	9303      	str	r3, [sp, #12]
 8007a7c:	898b      	ldrh	r3, [r1, #12]
 8007a7e:	4680      	mov	r8, r0
 8007a80:	061c      	lsls	r4, r3, #24
 8007a82:	460d      	mov	r5, r1
 8007a84:	4616      	mov	r6, r2
 8007a86:	d50f      	bpl.n	8007aa8 <_svfiprintf_r+0x34>
 8007a88:	690b      	ldr	r3, [r1, #16]
 8007a8a:	b96b      	cbnz	r3, 8007aa8 <_svfiprintf_r+0x34>
 8007a8c:	2140      	movs	r1, #64	; 0x40
 8007a8e:	f000 fafd 	bl	800808c <_malloc_r>
 8007a92:	6028      	str	r0, [r5, #0]
 8007a94:	6128      	str	r0, [r5, #16]
 8007a96:	b928      	cbnz	r0, 8007aa4 <_svfiprintf_r+0x30>
 8007a98:	230c      	movs	r3, #12
 8007a9a:	f8c8 3000 	str.w	r3, [r8]
 8007a9e:	f04f 30ff 	mov.w	r0, #4294967295
 8007aa2:	e0c4      	b.n	8007c2e <_svfiprintf_r+0x1ba>
 8007aa4:	2340      	movs	r3, #64	; 0x40
 8007aa6:	616b      	str	r3, [r5, #20]
 8007aa8:	2300      	movs	r3, #0
 8007aaa:	9309      	str	r3, [sp, #36]	; 0x24
 8007aac:	2320      	movs	r3, #32
 8007aae:	f88d 3029 	strb.w	r3, [sp, #41]	; 0x29
 8007ab2:	2330      	movs	r3, #48	; 0x30
 8007ab4:	f04f 0b01 	mov.w	fp, #1
 8007ab8:	f88d 302a 	strb.w	r3, [sp, #42]	; 0x2a
 8007abc:	4637      	mov	r7, r6
 8007abe:	463c      	mov	r4, r7
 8007ac0:	f814 3b01 	ldrb.w	r3, [r4], #1
 8007ac4:	2b00      	cmp	r3, #0
 8007ac6:	d13c      	bne.n	8007b42 <_svfiprintf_r+0xce>
 8007ac8:	ebb7 0a06 	subs.w	sl, r7, r6
 8007acc:	d00b      	beq.n	8007ae6 <_svfiprintf_r+0x72>
 8007ace:	4653      	mov	r3, sl
 8007ad0:	4632      	mov	r2, r6
 8007ad2:	4629      	mov	r1, r5
 8007ad4:	4640      	mov	r0, r8
 8007ad6:	f7ff ff71 	bl	80079bc <__ssputs_r>
 8007ada:	3001      	adds	r0, #1
 8007adc:	f000 80a2 	beq.w	8007c24 <_svfiprintf_r+0x1b0>
 8007ae0:	9b09      	ldr	r3, [sp, #36]	; 0x24
 8007ae2:	4453      	add	r3, sl
 8007ae4:	9309      	str	r3, [sp, #36]	; 0x24
 8007ae6:	783b      	ldrb	r3, [r7, #0]
 8007ae8:	2b00      	cmp	r3, #0
 8007aea:	f000 809b 	beq.w	8007c24 <_svfiprintf_r+0x1b0>
 8007aee:	2300      	movs	r3, #0
 8007af0:	f04f 32ff 	mov.w	r2, #4294967295
 8007af4:	9304      	str	r3, [sp, #16]
 8007af6:	9307      	str	r3, [sp, #28]
 8007af8:	9205      	str	r2, [sp, #20]
 8007afa:	9306      	str	r3, [sp, #24]
 8007afc:	f88d 3053 	strb.w	r3, [sp, #83]	; 0x53
 8007b00:	931a      	str	r3, [sp, #104]	; 0x68
 8007b02:	2205      	movs	r2, #5
 8007b04:	7821      	ldrb	r1, [r4, #0]
 8007b06:	4850      	ldr	r0, [pc, #320]	; (8007c48 <_svfiprintf_r+0x1d4>)
 8007b08:	f000 fa40 	bl	8007f8c <memchr>
 8007b0c:	1c67      	adds	r7, r4, #1
 8007b0e:	9b04      	ldr	r3, [sp, #16]
 8007b10:	b9d8      	cbnz	r0, 8007b4a <_svfiprintf_r+0xd6>
 8007b12:	06d9      	lsls	r1, r3, #27
 8007b14:	bf44      	itt	mi
 8007b16:	2220      	movmi	r2, #32
 8007b18:	f88d 2053 	strbmi.w	r2, [sp, #83]	; 0x53
 8007b1c:	071a      	lsls	r2, r3, #28
 8007b1e:	bf44      	itt	mi
 8007b20:	222b      	movmi	r2, #43	; 0x2b
 8007b22:	f88d 2053 	strbmi.w	r2, [sp, #83]	; 0x53
 8007b26:	7822      	ldrb	r2, [r4, #0]
 8007b28:	2a2a      	cmp	r2, #42	; 0x2a
 8007b2a:	d016      	beq.n	8007b5a <_svfiprintf_r+0xe6>
 8007b2c:	2100      	movs	r1, #0
 8007b2e:	200a      	movs	r0, #10
 8007b30:	9a07      	ldr	r2, [sp, #28]
 8007b32:	4627      	mov	r7, r4
 8007b34:	783b      	ldrb	r3, [r7, #0]
 8007b36:	3401      	adds	r4, #1
 8007b38:	3b30      	subs	r3, #48	; 0x30
 8007b3a:	2b09      	cmp	r3, #9
 8007b3c:	d950      	bls.n	8007be0 <_svfiprintf_r+0x16c>
 8007b3e:	b1c9      	cbz	r1, 8007b74 <_svfiprintf_r+0x100>
 8007b40:	e011      	b.n	8007b66 <_svfiprintf_r+0xf2>
 8007b42:	2b25      	cmp	r3, #37	; 0x25
 8007b44:	d0c0      	beq.n	8007ac8 <_svfiprintf_r+0x54>
 8007b46:	4627      	mov	r7, r4
 8007b48:	e7b9      	b.n	8007abe <_svfiprintf_r+0x4a>
 8007b4a:	4a3f      	ldr	r2, [pc, #252]	; (8007c48 <_svfiprintf_r+0x1d4>)
 8007b4c:	463c      	mov	r4, r7
 8007b4e:	1a80      	subs	r0, r0, r2
 8007b50:	fa0b f000 	lsl.w	r0, fp, r0
 8007b54:	4318      	orrs	r0, r3
 8007b56:	9004      	str	r0, [sp, #16]
 8007b58:	e7d3      	b.n	8007b02 <_svfiprintf_r+0x8e>
 8007b5a:	9a03      	ldr	r2, [sp, #12]
 8007b5c:	1d11      	adds	r1, r2, #4
 8007b5e:	6812      	ldr	r2, [r2, #0]
 8007b60:	9103      	str	r1, [sp, #12]
 8007b62:	2a00      	cmp	r2, #0
 8007b64:	db01      	blt.n	8007b6a <_svfiprintf_r+0xf6>
 8007b66:	9207      	str	r2, [sp, #28]
 8007b68:	e004      	b.n	8007b74 <_svfiprintf_r+0x100>
 8007b6a:	4252      	negs	r2, r2
 8007b6c:	f043 0302 	orr.w	r3, r3, #2
 8007b70:	9207      	str	r2, [sp, #28]
 8007b72:	9304      	str	r3, [sp, #16]
 8007b74:	783b      	ldrb	r3, [r7, #0]
 8007b76:	2b2e      	cmp	r3, #46	; 0x2e
 8007b78:	d10d      	bne.n	8007b96 <_svfiprintf_r+0x122>
 8007b7a:	787b      	ldrb	r3, [r7, #1]
 8007b7c:	1c79      	adds	r1, r7, #1
 8007b7e:	2b2a      	cmp	r3, #42	; 0x2a
 8007b80:	d132      	bne.n	8007be8 <_svfiprintf_r+0x174>
 8007b82:	9b03      	ldr	r3, [sp, #12]
 8007b84:	3702      	adds	r7, #2
 8007b86:	1d1a      	adds	r2, r3, #4
 8007b88:	681b      	ldr	r3, [r3, #0]
 8007b8a:	9203      	str	r2, [sp, #12]
 8007b8c:	2b00      	cmp	r3, #0
 8007b8e:	bfb8      	it	lt
 8007b90:	f04f 33ff 	movlt.w	r3, #4294967295
 8007b94:	9305      	str	r3, [sp, #20]
 8007b96:	4c2d      	ldr	r4, [pc, #180]	; (8007c4c <_svfiprintf_r+0x1d8>)
 8007b98:	2203      	movs	r2, #3
 8007b9a:	7839      	ldrb	r1, [r7, #0]
 8007b9c:	4620      	mov	r0, r4
 8007b9e:	f000 f9f5 	bl	8007f8c <memchr>
 8007ba2:	b138      	cbz	r0, 8007bb4 <_svfiprintf_r+0x140>
 8007ba4:	2340      	movs	r3, #64	; 0x40
 8007ba6:	1b00      	subs	r0, r0, r4
 8007ba8:	fa03 f000 	lsl.w	r0, r3, r0
 8007bac:	9b04      	ldr	r3, [sp, #16]
 8007bae:	3701      	adds	r7, #1
 8007bb0:	4303      	orrs	r3, r0
 8007bb2:	9304      	str	r3, [sp, #16]
 8007bb4:	7839      	ldrb	r1, [r7, #0]
 8007bb6:	2206      	movs	r2, #6
 8007bb8:	4825      	ldr	r0, [pc, #148]	; (8007c50 <_svfiprintf_r+0x1dc>)
 8007bba:	1c7e      	adds	r6, r7, #1
 8007bbc:	f88d 1028 	strb.w	r1, [sp, #40]	; 0x28
 8007bc0:	f000 f9e4 	bl	8007f8c <memchr>
 8007bc4:	2800      	cmp	r0, #0
 8007bc6:	d035      	beq.n	8007c34 <_svfiprintf_r+0x1c0>
 8007bc8:	4b22      	ldr	r3, [pc, #136]	; (8007c54 <_svfiprintf_r+0x1e0>)
 8007bca:	b9fb      	cbnz	r3, 8007c0c <_svfiprintf_r+0x198>
 8007bcc:	9b03      	ldr	r3, [sp, #12]
 8007bce:	3307      	adds	r3, #7
 8007bd0:	f023 0307 	bic.w	r3, r3, #7
 8007bd4:	3308      	adds	r3, #8
 8007bd6:	9303      	str	r3, [sp, #12]
 8007bd8:	9b09      	ldr	r3, [sp, #36]	; 0x24
 8007bda:	444b      	add	r3, r9
 8007bdc:	9309      	str	r3, [sp, #36]	; 0x24
 8007bde:	e76d      	b.n	8007abc <_svfiprintf_r+0x48>
 8007be0:	fb00 3202 	mla	r2, r0, r2, r3
 8007be4:	2101      	movs	r1, #1
 8007be6:	e7a4      	b.n	8007b32 <_svfiprintf_r+0xbe>
 8007be8:	2300      	movs	r3, #0
 8007bea:	240a      	movs	r4, #10
 8007bec:	4618      	mov	r0, r3
 8007bee:	9305      	str	r3, [sp, #20]
 8007bf0:	460f      	mov	r7, r1
 8007bf2:	783a      	ldrb	r2, [r7, #0]
 8007bf4:	3101      	adds	r1, #1
 8007bf6:	3a30      	subs	r2, #48	; 0x30
 8007bf8:	2a09      	cmp	r2, #9
 8007bfa:	d903      	bls.n	8007c04 <_svfiprintf_r+0x190>
 8007bfc:	2b00      	cmp	r3, #0
 8007bfe:	d0ca      	beq.n	8007b96 <_svfiprintf_r+0x122>
 8007c00:	9005      	str	r0, [sp, #20]
 8007c02:	e7c8      	b.n	8007b96 <_svfiprintf_r+0x122>
 8007c04:	fb04 2000 	mla	r0, r4, r0, r2
 8007c08:	2301      	movs	r3, #1
 8007c0a:	e7f1      	b.n	8007bf0 <_svfiprintf_r+0x17c>
 8007c0c:	ab03      	add	r3, sp, #12
 8007c0e:	9300      	str	r3, [sp, #0]
 8007c10:	462a      	mov	r2, r5
 8007c12:	4b11      	ldr	r3, [pc, #68]	; (8007c58 <_svfiprintf_r+0x1e4>)
 8007c14:	a904      	add	r1, sp, #16
 8007c16:	4640      	mov	r0, r8
 8007c18:	f3af 8000 	nop.w
 8007c1c:	f1b0 3fff 	cmp.w	r0, #4294967295
 8007c20:	4681      	mov	r9, r0
 8007c22:	d1d9      	bne.n	8007bd8 <_svfiprintf_r+0x164>
 8007c24:	89ab      	ldrh	r3, [r5, #12]
 8007c26:	065b      	lsls	r3, r3, #25
 8007c28:	f53f af39 	bmi.w	8007a9e <_svfiprintf_r+0x2a>
 8007c2c:	9809      	ldr	r0, [sp, #36]	; 0x24
 8007c2e:	b01d      	add	sp, #116	; 0x74
 8007c30:	e8bd 8ff0 	ldmia.w	sp!, {r4, r5, r6, r7, r8, r9, sl, fp, pc}
 8007c34:	ab03      	add	r3, sp, #12
 8007c36:	9300      	str	r3, [sp, #0]
 8007c38:	462a      	mov	r2, r5
 8007c3a:	4b07      	ldr	r3, [pc, #28]	; (8007c58 <_svfiprintf_r+0x1e4>)
 8007c3c:	a904      	add	r1, sp, #16
 8007c3e:	4640      	mov	r0, r8
 8007c40:	f000 f884 	bl	8007d4c <_printf_i>
 8007c44:	e7ea      	b.n	8007c1c <_svfiprintf_r+0x1a8>
 8007c46:	bf00      	nop
 8007c48:	08009a75 	.word	0x08009a75
 8007c4c:	08009a7b 	.word	0x08009a7b
 8007c50:	08009a7f 	.word	0x08009a7f
 8007c54:	00000000 	.word	0x00000000
 8007c58:	080079bd 	.word	0x080079bd

08007c5c <_printf_common>:
 8007c5c:	e92d 47f0 	stmdb	sp!, {r4, r5, r6, r7, r8, r9, sl, lr}
 8007c60:	4691      	mov	r9, r2
 8007c62:	461f      	mov	r7, r3
 8007c64:	688a      	ldr	r2, [r1, #8]
 8007c66:	690b      	ldr	r3, [r1, #16]
 8007c68:	4606      	mov	r6, r0
 8007c6a:	4293      	cmp	r3, r2
 8007c6c:	bfb8      	it	lt
 8007c6e:	4613      	movlt	r3, r2
 8007c70:	f8c9 3000 	str.w	r3, [r9]
 8007c74:	f891 2043 	ldrb.w	r2, [r1, #67]	; 0x43
 8007c78:	460c      	mov	r4, r1
 8007c7a:	f8dd 8020 	ldr.w	r8, [sp, #32]
 8007c7e:	b112      	cbz	r2, 8007c86 <_printf_common+0x2a>
 8007c80:	3301      	adds	r3, #1
 8007c82:	f8c9 3000 	str.w	r3, [r9]
 8007c86:	6823      	ldr	r3, [r4, #0]
 8007c88:	0699      	lsls	r1, r3, #26
 8007c8a:	bf42      	ittt	mi
 8007c8c:	f8d9 3000 	ldrmi.w	r3, [r9]
 8007c90:	3302      	addmi	r3, #2
 8007c92:	f8c9 3000 	strmi.w	r3, [r9]
 8007c96:	6825      	ldr	r5, [r4, #0]
 8007c98:	f015 0506 	ands.w	r5, r5, #6
 8007c9c:	d107      	bne.n	8007cae <_printf_common+0x52>
 8007c9e:	f104 0a19 	add.w	sl, r4, #25
 8007ca2:	68e3      	ldr	r3, [r4, #12]
 8007ca4:	f8d9 2000 	ldr.w	r2, [r9]
 8007ca8:	1a9b      	subs	r3, r3, r2
 8007caa:	429d      	cmp	r5, r3
 8007cac:	db2a      	blt.n	8007d04 <_printf_common+0xa8>
 8007cae:	f894 3043 	ldrb.w	r3, [r4, #67]	; 0x43
 8007cb2:	6822      	ldr	r2, [r4, #0]
 8007cb4:	3300      	adds	r3, #0
 8007cb6:	bf18      	it	ne
 8007cb8:	2301      	movne	r3, #1
 8007cba:	0692      	lsls	r2, r2, #26
 8007cbc:	d42f      	bmi.n	8007d1e <_printf_common+0xc2>
 8007cbe:	f104 0243 	add.w	r2, r4, #67	; 0x43
 8007cc2:	4639      	mov	r1, r7
 8007cc4:	4630      	mov	r0, r6
 8007cc6:	47c0      	blx	r8
 8007cc8:	3001      	adds	r0, #1
 8007cca:	d022      	beq.n	8007d12 <_printf_common+0xb6>
 8007ccc:	6823      	ldr	r3, [r4, #0]
 8007cce:	68e5      	ldr	r5, [r4, #12]
 8007cd0:	f003 0306 	and.w	r3, r3, #6
 8007cd4:	2b04      	cmp	r3, #4
 8007cd6:	bf18      	it	ne
 8007cd8:	2500      	movne	r5, #0
 8007cda:	f8d9 2000 	ldr.w	r2, [r9]
 8007cde:	f04f 0900 	mov.w	r9, #0
 8007ce2:	bf08      	it	eq
 8007ce4:	1aad      	subeq	r5, r5, r2
 8007ce6:	68a3      	ldr	r3, [r4, #8]
 8007ce8:	6922      	ldr	r2, [r4, #16]
 8007cea:	bf08      	it	eq
 8007cec:	ea25 75e5 	biceq.w	r5, r5, r5, asr #31
 8007cf0:	4293      	cmp	r3, r2
 8007cf2:	bfc4      	itt	gt
 8007cf4:	1a9b      	subgt	r3, r3, r2
 8007cf6:	18ed      	addgt	r5, r5, r3
 8007cf8:	341a      	adds	r4, #26
 8007cfa:	454d      	cmp	r5, r9
 8007cfc:	d11b      	bne.n	8007d36 <_printf_common+0xda>
 8007cfe:	2000      	movs	r0, #0
 8007d00:	e8bd 87f0 	ldmia.w	sp!, {r4, r5, r6, r7, r8, r9, sl, pc}
 8007d04:	2301      	movs	r3, #1
 8007d06:	4652      	mov	r2, sl
 8007d08:	4639      	mov	r1, r7
 8007d0a:	4630      	mov	r0, r6
 8007d0c:	47c0      	blx	r8
 8007d0e:	3001      	adds	r0, #1
 8007d10:	d103      	bne.n	8007d1a <_printf_common+0xbe>
 8007d12:	f04f 30ff 	mov.w	r0, #4294967295
 8007d16:	e8bd 87f0 	ldmia.w	sp!, {r4, r5, r6, r7, r8, r9, sl, pc}
 8007d1a:	3501      	adds	r5, #1
 8007d1c:	e7c1      	b.n	8007ca2 <_printf_common+0x46>
 8007d1e:	2030      	movs	r0, #48	; 0x30
 8007d20:	18e1      	adds	r1, r4, r3
 8007d22:	f881 0043 	strb.w	r0, [r1, #67]	; 0x43
 8007d26:	1c5a      	adds	r2, r3, #1
 8007d28:	f894 1045 	ldrb.w	r1, [r4, #69]	; 0x45
 8007d2c:	4422      	add	r2, r4
 8007d2e:	3302      	adds	r3, #2
 8007d30:	f882 1043 	strb.w	r1, [r2, #67]	; 0x43
 8007d34:	e7c3      	b.n	8007cbe <_printf_common+0x62>
 8007d36:	2301      	movs	r3, #1
 8007d38:	4622      	mov	r2, r4
 8007d3a:	4639      	mov	r1, r7
 8007d3c:	4630      	mov	r0, r6
 8007d3e:	47c0      	blx	r8
 8007d40:	3001      	adds	r0, #1
 8007d42:	d0e6      	beq.n	8007d12 <_printf_common+0xb6>
 8007d44:	f109 0901 	add.w	r9, r9, #1
 8007d48:	e7d7      	b.n	8007cfa <_printf_common+0x9e>
	...

08007d4c <_printf_i>:
 8007d4c:	e92d 43f0 	stmdb	sp!, {r4, r5, r6, r7, r8, r9, lr}
 8007d50:	4617      	mov	r7, r2
 8007d52:	7e0a      	ldrb	r2, [r1, #24]
 8007d54:	b085      	sub	sp, #20
 8007d56:	2a6e      	cmp	r2, #110	; 0x6e
 8007d58:	4698      	mov	r8, r3
 8007d5a:	4606      	mov	r6, r0
 8007d5c:	460c      	mov	r4, r1
 8007d5e:	9b0c      	ldr	r3, [sp, #48]	; 0x30
 8007d60:	f101 0e43 	add.w	lr, r1, #67	; 0x43
 8007d64:	f000 80bc 	beq.w	8007ee0 <_printf_i+0x194>
 8007d68:	d81a      	bhi.n	8007da0 <_printf_i+0x54>
 8007d6a:	2a63      	cmp	r2, #99	; 0x63
 8007d6c:	d02e      	beq.n	8007dcc <_printf_i+0x80>
 8007d6e:	d80a      	bhi.n	8007d86 <_printf_i+0x3a>
 8007d70:	2a00      	cmp	r2, #0
 8007d72:	f000 80c8 	beq.w	8007f06 <_printf_i+0x1ba>
 8007d76:	2a58      	cmp	r2, #88	; 0x58
 8007d78:	f000 808a 	beq.w	8007e90 <_printf_i+0x144>
 8007d7c:	f104 0542 	add.w	r5, r4, #66	; 0x42
 8007d80:	f884 2042 	strb.w	r2, [r4, #66]	; 0x42
 8007d84:	e02a      	b.n	8007ddc <_printf_i+0x90>
 8007d86:	2a64      	cmp	r2, #100	; 0x64
 8007d88:	d001      	beq.n	8007d8e <_printf_i+0x42>
 8007d8a:	2a69      	cmp	r2, #105	; 0x69
 8007d8c:	d1f6      	bne.n	8007d7c <_printf_i+0x30>
 8007d8e:	6821      	ldr	r1, [r4, #0]
 8007d90:	681a      	ldr	r2, [r3, #0]
 8007d92:	f011 0f80 	tst.w	r1, #128	; 0x80
 8007d96:	d023      	beq.n	8007de0 <_printf_i+0x94>
 8007d98:	1d11      	adds	r1, r2, #4
 8007d9a:	6019      	str	r1, [r3, #0]
 8007d9c:	6813      	ldr	r3, [r2, #0]
 8007d9e:	e027      	b.n	8007df0 <_printf_i+0xa4>
 8007da0:	2a73      	cmp	r2, #115	; 0x73
 8007da2:	f000 80b4 	beq.w	8007f0e <_printf_i+0x1c2>
 8007da6:	d808      	bhi.n	8007dba <_printf_i+0x6e>
 8007da8:	2a6f      	cmp	r2, #111	; 0x6f
 8007daa:	d02a      	beq.n	8007e02 <_printf_i+0xb6>
 8007dac:	2a70      	cmp	r2, #112	; 0x70
 8007dae:	d1e5      	bne.n	8007d7c <_printf_i+0x30>
 8007db0:	680a      	ldr	r2, [r1, #0]
 8007db2:	f042 0220 	orr.w	r2, r2, #32
 8007db6:	600a      	str	r2, [r1, #0]
 8007db8:	e003      	b.n	8007dc2 <_printf_i+0x76>
 8007dba:	2a75      	cmp	r2, #117	; 0x75
 8007dbc:	d021      	beq.n	8007e02 <_printf_i+0xb6>
 8007dbe:	2a78      	cmp	r2, #120	; 0x78
 8007dc0:	d1dc      	bne.n	8007d7c <_printf_i+0x30>
 8007dc2:	2278      	movs	r2, #120	; 0x78
 8007dc4:	496f      	ldr	r1, [pc, #444]	; (8007f84 <_printf_i+0x238>)
 8007dc6:	f884 2045 	strb.w	r2, [r4, #69]	; 0x45
 8007dca:	e064      	b.n	8007e96 <_printf_i+0x14a>
 8007dcc:	681a      	ldr	r2, [r3, #0]
 8007dce:	f101 0542 	add.w	r5, r1, #66	; 0x42
 8007dd2:	1d11      	adds	r1, r2, #4
 8007dd4:	6019      	str	r1, [r3, #0]
 8007dd6:	6813      	ldr	r3, [r2, #0]
 8007dd8:	f884 3042 	strb.w	r3, [r4, #66]	; 0x42
 8007ddc:	2301      	movs	r3, #1
 8007dde:	e0a3      	b.n	8007f28 <_printf_i+0x1dc>
 8007de0:	f011 0f40 	tst.w	r1, #64	; 0x40
 8007de4:	f102 0104 	add.w	r1, r2, #4
 8007de8:	6019      	str	r1, [r3, #0]
 8007dea:	d0d7      	beq.n	8007d9c <_printf_i+0x50>
 8007dec:	f9b2 3000 	ldrsh.w	r3, [r2]
 8007df0:	2b00      	cmp	r3, #0
 8007df2:	da03      	bge.n	8007dfc <_printf_i+0xb0>
 8007df4:	222d      	movs	r2, #45	; 0x2d
 8007df6:	425b      	negs	r3, r3
 8007df8:	f884 2043 	strb.w	r2, [r4, #67]	; 0x43
 8007dfc:	4962      	ldr	r1, [pc, #392]	; (8007f88 <_printf_i+0x23c>)
 8007dfe:	220a      	movs	r2, #10
 8007e00:	e017      	b.n	8007e32 <_printf_i+0xe6>
 8007e02:	6820      	ldr	r0, [r4, #0]
 8007e04:	6819      	ldr	r1, [r3, #0]
 8007e06:	f010 0f80 	tst.w	r0, #128	; 0x80
 8007e0a:	d003      	beq.n	8007e14 <_printf_i+0xc8>
 8007e0c:	1d08      	adds	r0, r1, #4
 8007e0e:	6018      	str	r0, [r3, #0]
 8007e10:	680b      	ldr	r3, [r1, #0]
 8007e12:	e006      	b.n	8007e22 <_printf_i+0xd6>
 8007e14:	f010 0f40 	tst.w	r0, #64	; 0x40
 8007e18:	f101 0004 	add.w	r0, r1, #4
 8007e1c:	6018      	str	r0, [r3, #0]
 8007e1e:	d0f7      	beq.n	8007e10 <_printf_i+0xc4>
 8007e20:	880b      	ldrh	r3, [r1, #0]
 8007e22:	2a6f      	cmp	r2, #111	; 0x6f
 8007e24:	bf14      	ite	ne
 8007e26:	220a      	movne	r2, #10
 8007e28:	2208      	moveq	r2, #8
 8007e2a:	4957      	ldr	r1, [pc, #348]	; (8007f88 <_printf_i+0x23c>)
 8007e2c:	2000      	movs	r0, #0
 8007e2e:	f884 0043 	strb.w	r0, [r4, #67]	; 0x43
 8007e32:	6865      	ldr	r5, [r4, #4]
 8007e34:	2d00      	cmp	r5, #0
 8007e36:	60a5      	str	r5, [r4, #8]
 8007e38:	f2c0 809c 	blt.w	8007f74 <_printf_i+0x228>
 8007e3c:	6820      	ldr	r0, [r4, #0]
 8007e3e:	f020 0004 	bic.w	r0, r0, #4
 8007e42:	6020      	str	r0, [r4, #0]
 8007e44:	2b00      	cmp	r3, #0
 8007e46:	d13f      	bne.n	8007ec8 <_printf_i+0x17c>
 8007e48:	2d00      	cmp	r5, #0
 8007e4a:	f040 8095 	bne.w	8007f78 <_printf_i+0x22c>
 8007e4e:	4675      	mov	r5, lr
 8007e50:	2a08      	cmp	r2, #8
 8007e52:	d10b      	bne.n	8007e6c <_printf_i+0x120>
 8007e54:	6823      	ldr	r3, [r4, #0]
 8007e56:	07da      	lsls	r2, r3, #31
 8007e58:	d508      	bpl.n	8007e6c <_printf_i+0x120>
 8007e5a:	6923      	ldr	r3, [r4, #16]
 8007e5c:	6862      	ldr	r2, [r4, #4]
 8007e5e:	429a      	cmp	r2, r3
 8007e60:	bfde      	ittt	le
 8007e62:	2330      	movle	r3, #48	; 0x30
 8007e64:	f805 3c01 	strble.w	r3, [r5, #-1]
 8007e68:	f105 35ff 	addle.w	r5, r5, #4294967295
 8007e6c:	ebae 0305 	sub.w	r3, lr, r5
 8007e70:	6123      	str	r3, [r4, #16]
 8007e72:	f8cd 8000 	str.w	r8, [sp]
 8007e76:	463b      	mov	r3, r7
 8007e78:	aa03      	add	r2, sp, #12
 8007e7a:	4621      	mov	r1, r4
 8007e7c:	4630      	mov	r0, r6
 8007e7e:	f7ff feed 	bl	8007c5c <_printf_common>
 8007e82:	3001      	adds	r0, #1
 8007e84:	d155      	bne.n	8007f32 <_printf_i+0x1e6>
 8007e86:	f04f 30ff 	mov.w	r0, #4294967295
 8007e8a:	b005      	add	sp, #20
 8007e8c:	e8bd 83f0 	ldmia.w	sp!, {r4, r5, r6, r7, r8, r9, pc}
 8007e90:	f881 2045 	strb.w	r2, [r1, #69]	; 0x45
 8007e94:	493c      	ldr	r1, [pc, #240]	; (8007f88 <_printf_i+0x23c>)
 8007e96:	6822      	ldr	r2, [r4, #0]
 8007e98:	6818      	ldr	r0, [r3, #0]
 8007e9a:	f012 0f80 	tst.w	r2, #128	; 0x80
 8007e9e:	f100 0504 	add.w	r5, r0, #4
 8007ea2:	601d      	str	r5, [r3, #0]
 8007ea4:	d001      	beq.n	8007eaa <_printf_i+0x15e>
 8007ea6:	6803      	ldr	r3, [r0, #0]
 8007ea8:	e002      	b.n	8007eb0 <_printf_i+0x164>
 8007eaa:	0655      	lsls	r5, r2, #25
 8007eac:	d5fb      	bpl.n	8007ea6 <_printf_i+0x15a>
 8007eae:	8803      	ldrh	r3, [r0, #0]
 8007eb0:	07d0      	lsls	r0, r2, #31
 8007eb2:	bf44      	itt	mi
 8007eb4:	f042 0220 	orrmi.w	r2, r2, #32
 8007eb8:	6022      	strmi	r2, [r4, #0]
 8007eba:	b91b      	cbnz	r3, 8007ec4 <_printf_i+0x178>
 8007ebc:	6822      	ldr	r2, [r4, #0]
 8007ebe:	f022 0220 	bic.w	r2, r2, #32
 8007ec2:	6022      	str	r2, [r4, #0]
 8007ec4:	2210      	movs	r2, #16
 8007ec6:	e7b1      	b.n	8007e2c <_printf_i+0xe0>
 8007ec8:	4675      	mov	r5, lr
 8007eca:	fbb3 f0f2 	udiv	r0, r3, r2
 8007ece:	fb02 3310 	mls	r3, r2, r0, r3
 8007ed2:	5ccb      	ldrb	r3, [r1, r3]
 8007ed4:	f805 3d01 	strb.w	r3, [r5, #-1]!
 8007ed8:	4603      	mov	r3, r0
 8007eda:	2800      	cmp	r0, #0
 8007edc:	d1f5      	bne.n	8007eca <_printf_i+0x17e>
 8007ede:	e7b7      	b.n	8007e50 <_printf_i+0x104>
 8007ee0:	6808      	ldr	r0, [r1, #0]
 8007ee2:	681a      	ldr	r2, [r3, #0]
 8007ee4:	f010 0f80 	tst.w	r0, #128	; 0x80
 8007ee8:	6949      	ldr	r1, [r1, #20]
 8007eea:	d004      	beq.n	8007ef6 <_printf_i+0x1aa>
 8007eec:	1d10      	adds	r0, r2, #4
 8007eee:	6018      	str	r0, [r3, #0]
 8007ef0:	6813      	ldr	r3, [r2, #0]
 8007ef2:	6019      	str	r1, [r3, #0]
 8007ef4:	e007      	b.n	8007f06 <_printf_i+0x1ba>
 8007ef6:	f010 0f40 	tst.w	r0, #64	; 0x40
 8007efa:	f102 0004 	add.w	r0, r2, #4
 8007efe:	6018      	str	r0, [r3, #0]
 8007f00:	6813      	ldr	r3, [r2, #0]
 8007f02:	d0f6      	beq.n	8007ef2 <_printf_i+0x1a6>
 8007f04:	8019      	strh	r1, [r3, #0]
 8007f06:	2300      	movs	r3, #0
 8007f08:	4675      	mov	r5, lr
 8007f0a:	6123      	str	r3, [r4, #16]
 8007f0c:	e7b1      	b.n	8007e72 <_printf_i+0x126>
 8007f0e:	681a      	ldr	r2, [r3, #0]
 8007f10:	1d11      	adds	r1, r2, #4
 8007f12:	6019      	str	r1, [r3, #0]
 8007f14:	6815      	ldr	r5, [r2, #0]
 8007f16:	2100      	movs	r1, #0
 8007f18:	6862      	ldr	r2, [r4, #4]
 8007f1a:	4628      	mov	r0, r5
 8007f1c:	f000 f836 	bl	8007f8c <memchr>
 8007f20:	b108      	cbz	r0, 8007f26 <_printf_i+0x1da>
 8007f22:	1b40      	subs	r0, r0, r5
 8007f24:	6060      	str	r0, [r4, #4]
 8007f26:	6863      	ldr	r3, [r4, #4]
 8007f28:	6123      	str	r3, [r4, #16]
 8007f2a:	2300      	movs	r3, #0
 8007f2c:	f884 3043 	strb.w	r3, [r4, #67]	; 0x43
 8007f30:	e79f      	b.n	8007e72 <_printf_i+0x126>
 8007f32:	6923      	ldr	r3, [r4, #16]
 8007f34:	462a      	mov	r2, r5
 8007f36:	4639      	mov	r1, r7
 8007f38:	4630      	mov	r0, r6
 8007f3a:	47c0      	blx	r8
 8007f3c:	3001      	adds	r0, #1
 8007f3e:	d0a2      	beq.n	8007e86 <_printf_i+0x13a>
 8007f40:	6823      	ldr	r3, [r4, #0]
 8007f42:	079b      	lsls	r3, r3, #30
 8007f44:	d507      	bpl.n	8007f56 <_printf_i+0x20a>
 8007f46:	2500      	movs	r5, #0
 8007f48:	f104 0919 	add.w	r9, r4, #25
 8007f4c:	68e3      	ldr	r3, [r4, #12]
 8007f4e:	9a03      	ldr	r2, [sp, #12]
 8007f50:	1a9b      	subs	r3, r3, r2
 8007f52:	429d      	cmp	r5, r3
 8007f54:	db05      	blt.n	8007f62 <_printf_i+0x216>
 8007f56:	68e0      	ldr	r0, [r4, #12]
 8007f58:	9b03      	ldr	r3, [sp, #12]
 8007f5a:	4298      	cmp	r0, r3
 8007f5c:	bfb8      	it	lt
 8007f5e:	4618      	movlt	r0, r3
 8007f60:	e793      	b.n	8007e8a <_printf_i+0x13e>
 8007f62:	2301      	movs	r3, #1
 8007f64:	464a      	mov	r2, r9
 8007f66:	4639      	mov	r1, r7
 8007f68:	4630      	mov	r0, r6
 8007f6a:	47c0      	blx	r8
 8007f6c:	3001      	adds	r0, #1
 8007f6e:	d08a      	beq.n	8007e86 <_printf_i+0x13a>
 8007f70:	3501      	adds	r5, #1
 8007f72:	e7eb      	b.n	8007f4c <_printf_i+0x200>
 8007f74:	2b00      	cmp	r3, #0
 8007f76:	d1a7      	bne.n	8007ec8 <_printf_i+0x17c>
 8007f78:	780b      	ldrb	r3, [r1, #0]
 8007f7a:	f104 0542 	add.w	r5, r4, #66	; 0x42
 8007f7e:	f884 3042 	strb.w	r3, [r4, #66]	; 0x42
 8007f82:	e765      	b.n	8007e50 <_printf_i+0x104>
 8007f84:	08009a97 	.word	0x08009a97
 8007f88:	08009a86 	.word	0x08009a86

08007f8c <memchr>:
 8007f8c:	b510      	push	{r4, lr}
 8007f8e:	b2c9      	uxtb	r1, r1
 8007f90:	4402      	add	r2, r0
 8007f92:	4290      	cmp	r0, r2
 8007f94:	4603      	mov	r3, r0
 8007f96:	d101      	bne.n	8007f9c <memchr+0x10>
 8007f98:	2000      	movs	r0, #0
 8007f9a:	bd10      	pop	{r4, pc}
 8007f9c:	781c      	ldrb	r4, [r3, #0]
 8007f9e:	3001      	adds	r0, #1
 8007fa0:	428c      	cmp	r4, r1
 8007fa2:	d1f6      	bne.n	8007f92 <memchr+0x6>
 8007fa4:	4618      	mov	r0, r3
 8007fa6:	bd10      	pop	{r4, pc}

08007fa8 <memcpy>:
 8007fa8:	b510      	push	{r4, lr}
 8007faa:	1e43      	subs	r3, r0, #1
 8007fac:	440a      	add	r2, r1
 8007fae:	4291      	cmp	r1, r2
 8007fb0:	d100      	bne.n	8007fb4 <memcpy+0xc>
 8007fb2:	bd10      	pop	{r4, pc}
 8007fb4:	f811 4b01 	ldrb.w	r4, [r1], #1
 8007fb8:	f803 4f01 	strb.w	r4, [r3, #1]!
 8007fbc:	e7f7      	b.n	8007fae <memcpy+0x6>

08007fbe <memmove>:
 8007fbe:	4288      	cmp	r0, r1
 8007fc0:	b510      	push	{r4, lr}
 8007fc2:	eb01 0302 	add.w	r3, r1, r2
 8007fc6:	d803      	bhi.n	8007fd0 <memmove+0x12>
 8007fc8:	1e42      	subs	r2, r0, #1
 8007fca:	4299      	cmp	r1, r3
 8007fcc:	d10c      	bne.n	8007fe8 <memmove+0x2a>
 8007fce:	bd10      	pop	{r4, pc}
 8007fd0:	4298      	cmp	r0, r3
 8007fd2:	d2f9      	bcs.n	8007fc8 <memmove+0xa>
 8007fd4:	1881      	adds	r1, r0, r2
 8007fd6:	1ad2      	subs	r2, r2, r3
 8007fd8:	42d3      	cmn	r3, r2
 8007fda:	d100      	bne.n	8007fde <memmove+0x20>
 8007fdc:	bd10      	pop	{r4, pc}
 8007fde:	f813 4d01 	ldrb.w	r4, [r3, #-1]!
 8007fe2:	f801 4d01 	strb.w	r4, [r1, #-1]!
 8007fe6:	e7f7      	b.n	8007fd8 <memmove+0x1a>
 8007fe8:	f811 4b01 	ldrb.w	r4, [r1], #1
 8007fec:	f802 4f01 	strb.w	r4, [r2, #1]!
 8007ff0:	e7eb      	b.n	8007fca <memmove+0xc>
	...

08007ff4 <_free_r>:
 8007ff4:	b538      	push	{r3, r4, r5, lr}
 8007ff6:	4605      	mov	r5, r0
 8007ff8:	2900      	cmp	r1, #0
 8007ffa:	d043      	beq.n	8008084 <_free_r+0x90>
 8007ffc:	f851 3c04 	ldr.w	r3, [r1, #-4]
 8008000:	1f0c      	subs	r4, r1, #4
 8008002:	2b00      	cmp	r3, #0
 8008004:	bfb8      	it	lt
 8008006:	18e4      	addlt	r4, r4, r3
 8008008:	f000 f8d4 	bl	80081b4 <__malloc_lock>
 800800c:	4a1e      	ldr	r2, [pc, #120]	; (8008088 <_free_r+0x94>)
 800800e:	6813      	ldr	r3, [r2, #0]
 8008010:	4610      	mov	r0, r2
 8008012:	b933      	cbnz	r3, 8008022 <_free_r+0x2e>
 8008014:	6063      	str	r3, [r4, #4]
 8008016:	6014      	str	r4, [r2, #0]
 8008018:	4628      	mov	r0, r5
 800801a:	e8bd 4038 	ldmia.w	sp!, {r3, r4, r5, lr}
 800801e:	f000 b8ca 	b.w	80081b6 <__malloc_unlock>
 8008022:	42a3      	cmp	r3, r4
 8008024:	d90b      	bls.n	800803e <_free_r+0x4a>
 8008026:	6821      	ldr	r1, [r4, #0]
 8008028:	1862      	adds	r2, r4, r1
 800802a:	4293      	cmp	r3, r2
 800802c:	bf01      	itttt	eq
 800802e:	681a      	ldreq	r2, [r3, #0]
 8008030:	685b      	ldreq	r3, [r3, #4]
 8008032:	1852      	addeq	r2, r2, r1
 8008034:	6022      	streq	r2, [r4, #0]
 8008036:	6063      	str	r3, [r4, #4]
 8008038:	6004      	str	r4, [r0, #0]
 800803a:	e7ed      	b.n	8008018 <_free_r+0x24>
 800803c:	4613      	mov	r3, r2
 800803e:	685a      	ldr	r2, [r3, #4]
 8008040:	b10a      	cbz	r2, 8008046 <_free_r+0x52>
 8008042:	42a2      	cmp	r2, r4
 8008044:	d9fa      	bls.n	800803c <_free_r+0x48>
 8008046:	6819      	ldr	r1, [r3, #0]
 8008048:	1858      	adds	r0, r3, r1
 800804a:	42a0      	cmp	r0, r4
 800804c:	d10b      	bne.n	8008066 <_free_r+0x72>
 800804e:	6820      	ldr	r0, [r4, #0]
 8008050:	4401      	add	r1, r0
 8008052:	1858      	adds	r0, r3, r1
 8008054:	4282      	cmp	r2, r0
 8008056:	6019      	str	r1, [r3, #0]
 8008058:	d1de      	bne.n	8008018 <_free_r+0x24>
 800805a:	6810      	ldr	r0, [r2, #0]
 800805c:	6852      	ldr	r2, [r2, #4]
 800805e:	4401      	add	r1, r0
 8008060:	6019      	str	r1, [r3, #0]
 8008062:	605a      	str	r2, [r3, #4]
 8008064:	e7d8      	b.n	8008018 <_free_r+0x24>
 8008066:	d902      	bls.n	800806e <_free_r+0x7a>
 8008068:	230c      	movs	r3, #12
 800806a:	602b      	str	r3, [r5, #0]
 800806c:	e7d4      	b.n	8008018 <_free_r+0x24>
 800806e:	6820      	ldr	r0, [r4, #0]
 8008070:	1821      	adds	r1, r4, r0
 8008072:	428a      	cmp	r2, r1
 8008074:	bf01      	itttt	eq
 8008076:	6811      	ldreq	r1, [r2, #0]
 8008078:	6852      	ldreq	r2, [r2, #4]
 800807a:	1809      	addeq	r1, r1, r0
 800807c:	6021      	streq	r1, [r4, #0]
 800807e:	6062      	str	r2, [r4, #4]
 8008080:	605c      	str	r4, [r3, #4]
 8008082:	e7c9      	b.n	8008018 <_free_r+0x24>
 8008084:	bd38      	pop	{r3, r4, r5, pc}
 8008086:	bf00      	nop
 8008088:	200038a0 	.word	0x200038a0

0800808c <_malloc_r>:
 800808c:	b570      	push	{r4, r5, r6, lr}
 800808e:	1ccd      	adds	r5, r1, #3
 8008090:	f025 0503 	bic.w	r5, r5, #3
 8008094:	3508      	adds	r5, #8
 8008096:	2d0c      	cmp	r5, #12
 8008098:	bf38      	it	cc
 800809a:	250c      	movcc	r5, #12
 800809c:	2d00      	cmp	r5, #0
 800809e:	4606      	mov	r6, r0
 80080a0:	db01      	blt.n	80080a6 <_malloc_r+0x1a>
 80080a2:	42a9      	cmp	r1, r5
 80080a4:	d903      	bls.n	80080ae <_malloc_r+0x22>
 80080a6:	230c      	movs	r3, #12
 80080a8:	6033      	str	r3, [r6, #0]
 80080aa:	2000      	movs	r0, #0
 80080ac:	bd70      	pop	{r4, r5, r6, pc}
 80080ae:	f000 f881 	bl	80081b4 <__malloc_lock>
 80080b2:	4a23      	ldr	r2, [pc, #140]	; (8008140 <_malloc_r+0xb4>)
 80080b4:	6814      	ldr	r4, [r2, #0]
 80080b6:	4621      	mov	r1, r4
 80080b8:	b991      	cbnz	r1, 80080e0 <_malloc_r+0x54>
 80080ba:	4c22      	ldr	r4, [pc, #136]	; (8008144 <_malloc_r+0xb8>)
 80080bc:	6823      	ldr	r3, [r4, #0]
 80080be:	b91b      	cbnz	r3, 80080c8 <_malloc_r+0x3c>
 80080c0:	4630      	mov	r0, r6
 80080c2:	f000 f867 	bl	8008194 <_sbrk_r>
 80080c6:	6020      	str	r0, [r4, #0]
 80080c8:	4629      	mov	r1, r5
 80080ca:	4630      	mov	r0, r6
 80080cc:	f000 f862 	bl	8008194 <_sbrk_r>
 80080d0:	1c43      	adds	r3, r0, #1
 80080d2:	d126      	bne.n	8008122 <_malloc_r+0x96>
 80080d4:	230c      	movs	r3, #12
 80080d6:	4630      	mov	r0, r6
 80080d8:	6033      	str	r3, [r6, #0]
 80080da:	f000 f86c 	bl	80081b6 <__malloc_unlock>
 80080de:	e7e4      	b.n	80080aa <_malloc_r+0x1e>
 80080e0:	680b      	ldr	r3, [r1, #0]
 80080e2:	1b5b      	subs	r3, r3, r5
 80080e4:	d41a      	bmi.n	800811c <_malloc_r+0x90>
 80080e6:	2b0b      	cmp	r3, #11
 80080e8:	d90f      	bls.n	800810a <_malloc_r+0x7e>
 80080ea:	600b      	str	r3, [r1, #0]
 80080ec:	18cc      	adds	r4, r1, r3
 80080ee:	50cd      	str	r5, [r1, r3]
 80080f0:	4630      	mov	r0, r6
 80080f2:	f000 f860 	bl	80081b6 <__malloc_unlock>
 80080f6:	f104 000b 	add.w	r0, r4, #11
 80080fa:	1d23      	adds	r3, r4, #4
 80080fc:	f020 0007 	bic.w	r0, r0, #7
 8008100:	1ac3      	subs	r3, r0, r3
 8008102:	d01b      	beq.n	800813c <_malloc_r+0xb0>
 8008104:	425a      	negs	r2, r3
 8008106:	50e2      	str	r2, [r4, r3]
 8008108:	bd70      	pop	{r4, r5, r6, pc}
 800810a:	428c      	cmp	r4, r1
 800810c:	bf0b      	itete	eq
 800810e:	6863      	ldreq	r3, [r4, #4]
 8008110:	684b      	ldrne	r3, [r1, #4]
 8008112:	6013      	streq	r3, [r2, #0]
 8008114:	6063      	strne	r3, [r4, #4]
 8008116:	bf18      	it	ne
 8008118:	460c      	movne	r4, r1
 800811a:	e7e9      	b.n	80080f0 <_malloc_r+0x64>
 800811c:	460c      	mov	r4, r1
 800811e:	6849      	ldr	r1, [r1, #4]
 8008120:	e7ca      	b.n	80080b8 <_malloc_r+0x2c>
 8008122:	1cc4      	adds	r4, r0, #3
 8008124:	f024 0403 	bic.w	r4, r4, #3
 8008128:	42a0      	cmp	r0, r4
 800812a:	d005      	beq.n	8008138 <_malloc_r+0xac>
 800812c:	1a21      	subs	r1, r4, r0
 800812e:	4630      	mov	r0, r6
 8008130:	f000 f830 	bl	8008194 <_sbrk_r>
 8008134:	3001      	adds	r0, #1
 8008136:	d0cd      	beq.n	80080d4 <_malloc_r+0x48>
 8008138:	6025      	str	r5, [r4, #0]
 800813a:	e7d9      	b.n	80080f0 <_malloc_r+0x64>
 800813c:	bd70      	pop	{r4, r5, r6, pc}
 800813e:	bf00      	nop
 8008140:	200038a0 	.word	0x200038a0
 8008144:	200038a4 	.word	0x200038a4

08008148 <_realloc_r>:
 8008148:	b5f8      	push	{r3, r4, r5, r6, r7, lr}
 800814a:	4607      	mov	r7, r0
 800814c:	4614      	mov	r4, r2
 800814e:	460e      	mov	r6, r1
 8008150:	b921      	cbnz	r1, 800815c <_realloc_r+0x14>
 8008152:	4611      	mov	r1, r2
 8008154:	e8bd 40f8 	ldmia.w	sp!, {r3, r4, r5, r6, r7, lr}
 8008158:	f7ff bf98 	b.w	800808c <_malloc_r>
 800815c:	b922      	cbnz	r2, 8008168 <_realloc_r+0x20>
 800815e:	f7ff ff49 	bl	8007ff4 <_free_r>
 8008162:	4625      	mov	r5, r4
 8008164:	4628      	mov	r0, r5
 8008166:	bdf8      	pop	{r3, r4, r5, r6, r7, pc}
 8008168:	f000 f826 	bl	80081b8 <_malloc_usable_size_r>
 800816c:	4284      	cmp	r4, r0
 800816e:	d90f      	bls.n	8008190 <_realloc_r+0x48>
 8008170:	4621      	mov	r1, r4
 8008172:	4638      	mov	r0, r7
 8008174:	f7ff ff8a 	bl	800808c <_malloc_r>
 8008178:	4605      	mov	r5, r0
 800817a:	2800      	cmp	r0, #0
 800817c:	d0f2      	beq.n	8008164 <_realloc_r+0x1c>
 800817e:	4631      	mov	r1, r6
 8008180:	4622      	mov	r2, r4
 8008182:	f7ff ff11 	bl	8007fa8 <memcpy>
 8008186:	4631      	mov	r1, r6
 8008188:	4638      	mov	r0, r7
 800818a:	f7ff ff33 	bl	8007ff4 <_free_r>
 800818e:	e7e9      	b.n	8008164 <_realloc_r+0x1c>
 8008190:	4635      	mov	r5, r6
 8008192:	e7e7      	b.n	8008164 <_realloc_r+0x1c>

08008194 <_sbrk_r>:
 8008194:	b538      	push	{r3, r4, r5, lr}
 8008196:	2300      	movs	r3, #0
 8008198:	4c05      	ldr	r4, [pc, #20]	; (80081b0 <_sbrk_r+0x1c>)
 800819a:	4605      	mov	r5, r0
 800819c:	4608      	mov	r0, r1
 800819e:	6023      	str	r3, [r4, #0]
 80081a0:	f7fa f98c 	bl	80024bc <_sbrk>
 80081a4:	1c43      	adds	r3, r0, #1
 80081a6:	d102      	bne.n	80081ae <_sbrk_r+0x1a>
 80081a8:	6823      	ldr	r3, [r4, #0]
 80081aa:	b103      	cbz	r3, 80081ae <_sbrk_r+0x1a>
 80081ac:	602b      	str	r3, [r5, #0]
 80081ae:	bd38      	pop	{r3, r4, r5, pc}
 80081b0:	200040a4 	.word	0x200040a4

080081b4 <__malloc_lock>:
 80081b4:	4770      	bx	lr

080081b6 <__malloc_unlock>:
 80081b6:	4770      	bx	lr

080081b8 <_malloc_usable_size_r>:
 80081b8:	f851 0c04 	ldr.w	r0, [r1, #-4]
 80081bc:	2800      	cmp	r0, #0
 80081be:	f1a0 0004 	sub.w	r0, r0, #4
 80081c2:	bfbc      	itt	lt
 80081c4:	580b      	ldrlt	r3, [r1, r0]
 80081c6:	18c0      	addlt	r0, r0, r3
 80081c8:	4770      	bx	lr
 80081ca:	0000      	movs	r0, r0
 80081cc:	0000      	movs	r0, r0
	...

080081d0 <ceil>:
 80081d0:	e92d 43f8 	stmdb	sp!, {r3, r4, r5, r6, r7, r8, r9, lr}
 80081d4:	f3c1 580a 	ubfx	r8, r1, #20, #11
 80081d8:	f2a8 36ff 	subw	r6, r8, #1023	; 0x3ff
 80081dc:	2e13      	cmp	r6, #19
 80081de:	4607      	mov	r7, r0
 80081e0:	460b      	mov	r3, r1
 80081e2:	460c      	mov	r4, r1
 80081e4:	4605      	mov	r5, r0
 80081e6:	dc31      	bgt.n	800824c <ceil+0x7c>
 80081e8:	2e00      	cmp	r6, #0
 80081ea:	da12      	bge.n	8008212 <ceil+0x42>
 80081ec:	a336      	add	r3, pc, #216	; (adr r3, 80082c8 <ceil+0xf8>)
 80081ee:	e9d3 2300 	ldrd	r2, r3, [r3]
 80081f2:	f7f7 ffbf 	bl	8000174 <__adddf3>
 80081f6:	2200      	movs	r2, #0
 80081f8:	2300      	movs	r3, #0
 80081fa:	f7f8 fbfd 	bl	80009f8 <__aeabi_dcmpgt>
 80081fe:	b128      	cbz	r0, 800820c <ceil+0x3c>
 8008200:	2c00      	cmp	r4, #0
 8008202:	db58      	blt.n	80082b6 <ceil+0xe6>
 8008204:	433c      	orrs	r4, r7
 8008206:	d05a      	beq.n	80082be <ceil+0xee>
 8008208:	2500      	movs	r5, #0
 800820a:	4c31      	ldr	r4, [pc, #196]	; (80082d0 <ceil+0x100>)
 800820c:	4623      	mov	r3, r4
 800820e:	462f      	mov	r7, r5
 8008210:	e027      	b.n	8008262 <ceil+0x92>
 8008212:	4a30      	ldr	r2, [pc, #192]	; (80082d4 <ceil+0x104>)
 8008214:	fa42 f806 	asr.w	r8, r2, r6
 8008218:	ea01 0208 	and.w	r2, r1, r8
 800821c:	4302      	orrs	r2, r0
 800821e:	d020      	beq.n	8008262 <ceil+0x92>
 8008220:	a329      	add	r3, pc, #164	; (adr r3, 80082c8 <ceil+0xf8>)
 8008222:	e9d3 2300 	ldrd	r2, r3, [r3]
 8008226:	f7f7 ffa5 	bl	8000174 <__adddf3>
 800822a:	2200      	movs	r2, #0
 800822c:	2300      	movs	r3, #0
 800822e:	f7f8 fbe3 	bl	80009f8 <__aeabi_dcmpgt>
 8008232:	2800      	cmp	r0, #0
 8008234:	d0ea      	beq.n	800820c <ceil+0x3c>
 8008236:	2c00      	cmp	r4, #0
 8008238:	bfc2      	ittt	gt
 800823a:	f44f 1380 	movgt.w	r3, #1048576	; 0x100000
 800823e:	fa43 f606 	asrgt.w	r6, r3, r6
 8008242:	19a4      	addgt	r4, r4, r6
 8008244:	ea24 0408 	bic.w	r4, r4, r8
 8008248:	2500      	movs	r5, #0
 800824a:	e7df      	b.n	800820c <ceil+0x3c>
 800824c:	2e33      	cmp	r6, #51	; 0x33
 800824e:	dd0c      	ble.n	800826a <ceil+0x9a>
 8008250:	f5b6 6f80 	cmp.w	r6, #1024	; 0x400
 8008254:	d105      	bne.n	8008262 <ceil+0x92>
 8008256:	460b      	mov	r3, r1
 8008258:	4602      	mov	r2, r0
 800825a:	f7f7 ff8b 	bl	8000174 <__adddf3>
 800825e:	4607      	mov	r7, r0
 8008260:	460b      	mov	r3, r1
 8008262:	4638      	mov	r0, r7
 8008264:	4619      	mov	r1, r3
 8008266:	e8bd 83f8 	ldmia.w	sp!, {r3, r4, r5, r6, r7, r8, r9, pc}
 800826a:	f04f 32ff 	mov.w	r2, #4294967295
 800826e:	f2a8 4813 	subw	r8, r8, #1043	; 0x413
 8008272:	fa22 f808 	lsr.w	r8, r2, r8
 8008276:	ea10 0f08 	tst.w	r0, r8
 800827a:	d0f2      	beq.n	8008262 <ceil+0x92>
 800827c:	a312      	add	r3, pc, #72	; (adr r3, 80082c8 <ceil+0xf8>)
 800827e:	e9d3 2300 	ldrd	r2, r3, [r3]
 8008282:	f7f7 ff77 	bl	8000174 <__adddf3>
 8008286:	2200      	movs	r2, #0
 8008288:	2300      	movs	r3, #0
 800828a:	f7f8 fbb5 	bl	80009f8 <__aeabi_dcmpgt>
 800828e:	2800      	cmp	r0, #0
 8008290:	d0bc      	beq.n	800820c <ceil+0x3c>
 8008292:	2c00      	cmp	r4, #0
 8008294:	dd02      	ble.n	800829c <ceil+0xcc>
 8008296:	2e14      	cmp	r6, #20
 8008298:	d103      	bne.n	80082a2 <ceil+0xd2>
 800829a:	3401      	adds	r4, #1
 800829c:	ea25 0508 	bic.w	r5, r5, r8
 80082a0:	e7b4      	b.n	800820c <ceil+0x3c>
 80082a2:	2301      	movs	r3, #1
 80082a4:	f1c6 0634 	rsb	r6, r6, #52	; 0x34
 80082a8:	fa03 f606 	lsl.w	r6, r3, r6
 80082ac:	4435      	add	r5, r6
 80082ae:	42af      	cmp	r7, r5
 80082b0:	bf88      	it	hi
 80082b2:	18e4      	addhi	r4, r4, r3
 80082b4:	e7f2      	b.n	800829c <ceil+0xcc>
 80082b6:	2500      	movs	r5, #0
 80082b8:	f04f 4400 	mov.w	r4, #2147483648	; 0x80000000
 80082bc:	e7a6      	b.n	800820c <ceil+0x3c>
 80082be:	4625      	mov	r5, r4
 80082c0:	e7a4      	b.n	800820c <ceil+0x3c>
 80082c2:	bf00      	nop
 80082c4:	f3af 8000 	nop.w
 80082c8:	8800759c 	.word	0x8800759c
 80082cc:	7e37e43c 	.word	0x7e37e43c
 80082d0:	3ff00000 	.word	0x3ff00000
 80082d4:	000fffff 	.word	0x000fffff

080082d8 <floor>:
 80082d8:	e92d 43f8 	stmdb	sp!, {r3, r4, r5, r6, r7, r8, r9, lr}
 80082dc:	f3c1 580a 	ubfx	r8, r1, #20, #11
 80082e0:	f2a8 36ff 	subw	r6, r8, #1023	; 0x3ff
 80082e4:	2e13      	cmp	r6, #19
 80082e6:	4607      	mov	r7, r0
 80082e8:	460b      	mov	r3, r1
 80082ea:	460c      	mov	r4, r1
 80082ec:	4605      	mov	r5, r0
 80082ee:	dc35      	bgt.n	800835c <floor+0x84>
 80082f0:	2e00      	cmp	r6, #0
 80082f2:	da16      	bge.n	8008322 <floor+0x4a>
 80082f4:	a336      	add	r3, pc, #216	; (adr r3, 80083d0 <floor+0xf8>)
 80082f6:	e9d3 2300 	ldrd	r2, r3, [r3]
 80082fa:	f7f7 ff3b 	bl	8000174 <__adddf3>
 80082fe:	2200      	movs	r2, #0
 8008300:	2300      	movs	r3, #0
 8008302:	f7f8 fb79 	bl	80009f8 <__aeabi_dcmpgt>
 8008306:	b148      	cbz	r0, 800831c <floor+0x44>
 8008308:	2c00      	cmp	r4, #0
 800830a:	da5c      	bge.n	80083c6 <floor+0xee>
 800830c:	f024 4300 	bic.w	r3, r4, #2147483648	; 0x80000000
 8008310:	433b      	orrs	r3, r7
 8008312:	4b31      	ldr	r3, [pc, #196]	; (80083d8 <floor+0x100>)
 8008314:	f04f 0500 	mov.w	r5, #0
 8008318:	bf18      	it	ne
 800831a:	461c      	movne	r4, r3
 800831c:	4623      	mov	r3, r4
 800831e:	462f      	mov	r7, r5
 8008320:	e027      	b.n	8008372 <floor+0x9a>
 8008322:	4a2e      	ldr	r2, [pc, #184]	; (80083dc <floor+0x104>)
 8008324:	fa42 f806 	asr.w	r8, r2, r6
 8008328:	ea01 0208 	and.w	r2, r1, r8
 800832c:	4302      	orrs	r2, r0
 800832e:	d020      	beq.n	8008372 <floor+0x9a>
 8008330:	a327      	add	r3, pc, #156	; (adr r3, 80083d0 <floor+0xf8>)
 8008332:	e9d3 2300 	ldrd	r2, r3, [r3]
 8008336:	f7f7 ff1d 	bl	8000174 <__adddf3>
 800833a:	2200      	movs	r2, #0
 800833c:	2300      	movs	r3, #0
 800833e:	f7f8 fb5b 	bl	80009f8 <__aeabi_dcmpgt>
 8008342:	2800      	cmp	r0, #0
 8008344:	d0ea      	beq.n	800831c <floor+0x44>
 8008346:	2c00      	cmp	r4, #0
 8008348:	bfbe      	ittt	lt
 800834a:	f44f 1380 	movlt.w	r3, #1048576	; 0x100000
 800834e:	fa43 f606 	asrlt.w	r6, r3, r6
 8008352:	19a4      	addlt	r4, r4, r6
 8008354:	ea24 0408 	bic.w	r4, r4, r8
 8008358:	2500      	movs	r5, #0
 800835a:	e7df      	b.n	800831c <floor+0x44>
 800835c:	2e33      	cmp	r6, #51	; 0x33
 800835e:	dd0c      	ble.n	800837a <floor+0xa2>
 8008360:	f5b6 6f80 	cmp.w	r6, #1024	; 0x400
 8008364:	d105      	bne.n	8008372 <floor+0x9a>
 8008366:	460b      	mov	r3, r1
 8008368:	4602      	mov	r2, r0
 800836a:	f7f7 ff03 	bl	8000174 <__adddf3>
 800836e:	4607      	mov	r7, r0
 8008370:	460b      	mov	r3, r1
 8008372:	4638      	mov	r0, r7
 8008374:	4619      	mov	r1, r3
 8008376:	e8bd 83f8 	ldmia.w	sp!, {r3, r4, r5, r6, r7, r8, r9, pc}
 800837a:	f04f 32ff 	mov.w	r2, #4294967295
 800837e:	f2a8 4813 	subw	r8, r8, #1043	; 0x413
 8008382:	fa22 f808 	lsr.w	r8, r2, r8
 8008386:	ea10 0f08 	tst.w	r0, r8
 800838a:	d0f2      	beq.n	8008372 <floor+0x9a>
 800838c:	a310      	add	r3, pc, #64	; (adr r3, 80083d0 <floor+0xf8>)
 800838e:	e9d3 2300 	ldrd	r2, r3, [r3]
 8008392:	f7f7 feef 	bl	8000174 <__adddf3>
 8008396:	2200      	movs	r2, #0
 8008398:	2300      	movs	r3, #0
 800839a:	f7f8 fb2d 	bl	80009f8 <__aeabi_dcmpgt>
 800839e:	2800      	cmp	r0, #0
 80083a0:	d0bc      	beq.n	800831c <floor+0x44>
 80083a2:	2c00      	cmp	r4, #0
 80083a4:	da02      	bge.n	80083ac <floor+0xd4>
 80083a6:	2e14      	cmp	r6, #20
 80083a8:	d103      	bne.n	80083b2 <floor+0xda>
 80083aa:	3401      	adds	r4, #1
 80083ac:	ea25 0508 	bic.w	r5, r5, r8
 80083b0:	e7b4      	b.n	800831c <floor+0x44>
 80083b2:	2301      	movs	r3, #1
 80083b4:	f1c6 0634 	rsb	r6, r6, #52	; 0x34
 80083b8:	fa03 f606 	lsl.w	r6, r3, r6
 80083bc:	4435      	add	r5, r6
 80083be:	42af      	cmp	r7, r5
 80083c0:	bf88      	it	hi
 80083c2:	18e4      	addhi	r4, r4, r3
 80083c4:	e7f2      	b.n	80083ac <floor+0xd4>
 80083c6:	2500      	movs	r5, #0
 80083c8:	462c      	mov	r4, r5
 80083ca:	e7a7      	b.n	800831c <floor+0x44>
 80083cc:	f3af 8000 	nop.w
 80083d0:	8800759c 	.word	0x8800759c
 80083d4:	7e37e43c 	.word	0x7e37e43c
 80083d8:	bff00000 	.word	0xbff00000
 80083dc:	000fffff 	.word	0x000fffff

080083e0 <lround>:
 80083e0:	b5f8      	push	{r3, r4, r5, r6, r7, lr}
 80083e2:	460d      	mov	r5, r1
 80083e4:	2d00      	cmp	r5, #0
 80083e6:	f3c5 530a 	ubfx	r3, r5, #20, #11
 80083ea:	f2a3 36ff 	subw	r6, r3, #1023	; 0x3ff
 80083ee:	bfb4      	ite	lt
 80083f0:	f04f 34ff 	movlt.w	r4, #4294967295
 80083f4:	2401      	movge	r4, #1
 80083f6:	f3c5 0513 	ubfx	r5, r5, #0, #20
 80083fa:	2e13      	cmp	r6, #19
 80083fc:	f445 1580 	orr.w	r5, r5, #1048576	; 0x100000
 8008400:	dc0f      	bgt.n	8008422 <lround+0x42>
 8008402:	2e00      	cmp	r6, #0
 8008404:	da04      	bge.n	8008410 <lround+0x30>
 8008406:	3601      	adds	r6, #1
 8008408:	bf18      	it	ne
 800840a:	2400      	movne	r4, #0
 800840c:	4620      	mov	r0, r4
 800840e:	bdf8      	pop	{r3, r4, r5, r6, r7, pc}
 8008410:	f44f 2300 	mov.w	r3, #524288	; 0x80000
 8008414:	4133      	asrs	r3, r6
 8008416:	442b      	add	r3, r5
 8008418:	f1c6 0614 	rsb	r6, r6, #20
 800841c:	40f3      	lsrs	r3, r6
 800841e:	435c      	muls	r4, r3
 8008420:	e7f4      	b.n	800840c <lround+0x2c>
 8008422:	2e1e      	cmp	r6, #30
 8008424:	d81a      	bhi.n	800845c <lround+0x7c>
 8008426:	2e33      	cmp	r6, #51	; 0x33
 8008428:	f2a3 4113 	subw	r1, r3, #1043	; 0x413
 800842c:	dd06      	ble.n	800843c <lround+0x5c>
 800842e:	f2a3 4333 	subw	r3, r3, #1075	; 0x433
 8008432:	408d      	lsls	r5, r1
 8008434:	fa00 f303 	lsl.w	r3, r0, r3
 8008438:	432b      	orrs	r3, r5
 800843a:	e7f0      	b.n	800841e <lround+0x3e>
 800843c:	f04f 4200 	mov.w	r2, #2147483648	; 0x80000000
 8008440:	40ca      	lsrs	r2, r1
 8008442:	1812      	adds	r2, r2, r0
 8008444:	f1c6 0334 	rsb	r3, r6, #52	; 0x34
 8008448:	bf28      	it	cs
 800844a:	3501      	addcs	r5, #1
 800844c:	2b20      	cmp	r3, #32
 800844e:	fa05 f501 	lsl.w	r5, r5, r1
 8008452:	bf14      	ite	ne
 8008454:	fa22 f303 	lsrne.w	r3, r2, r3
 8008458:	2300      	moveq	r3, #0
 800845a:	e7ed      	b.n	8008438 <lround+0x58>
 800845c:	f7f8 faec 	bl	8000a38 <__aeabi_d2iz>
 8008460:	4604      	mov	r4, r0
 8008462:	e7d3      	b.n	800840c <lround+0x2c>

08008464 <round>:
 8008464:	b5f8      	push	{r3, r4, r5, r6, r7, lr}
 8008466:	f3c1 570a 	ubfx	r7, r1, #20, #11
 800846a:	f2a7 34ff 	subw	r4, r7, #1023	; 0x3ff
 800846e:	2c13      	cmp	r4, #19
 8008470:	4606      	mov	r6, r0
 8008472:	460d      	mov	r5, r1
 8008474:	460b      	mov	r3, r1
 8008476:	468e      	mov	lr, r1
 8008478:	dc17      	bgt.n	80084aa <round+0x46>
 800847a:	2c00      	cmp	r4, #0
 800847c:	da09      	bge.n	8008492 <round+0x2e>
 800847e:	3401      	adds	r4, #1
 8008480:	f001 4300 	and.w	r3, r1, #2147483648	; 0x80000000
 8008484:	d103      	bne.n	800848e <round+0x2a>
 8008486:	f043 537f 	orr.w	r3, r3, #1069547520	; 0x3fc00000
 800848a:	f443 1340 	orr.w	r3, r3, #3145728	; 0x300000
 800848e:	2200      	movs	r2, #0
 8008490:	e029      	b.n	80084e6 <round+0x82>
 8008492:	4916      	ldr	r1, [pc, #88]	; (80084ec <round+0x88>)
 8008494:	4121      	asrs	r1, r4
 8008496:	420d      	tst	r5, r1
 8008498:	d100      	bne.n	800849c <round+0x38>
 800849a:	b188      	cbz	r0, 80084c0 <round+0x5c>
 800849c:	f44f 2300 	mov.w	r3, #524288	; 0x80000
 80084a0:	4123      	asrs	r3, r4
 80084a2:	4473      	add	r3, lr
 80084a4:	ea23 0301 	bic.w	r3, r3, r1
 80084a8:	e7f1      	b.n	800848e <round+0x2a>
 80084aa:	2c33      	cmp	r4, #51	; 0x33
 80084ac:	dd0b      	ble.n	80084c6 <round+0x62>
 80084ae:	f5b4 6f80 	cmp.w	r4, #1024	; 0x400
 80084b2:	d105      	bne.n	80084c0 <round+0x5c>
 80084b4:	4602      	mov	r2, r0
 80084b6:	460b      	mov	r3, r1
 80084b8:	f7f7 fe5c 	bl	8000174 <__adddf3>
 80084bc:	4606      	mov	r6, r0
 80084be:	460d      	mov	r5, r1
 80084c0:	4630      	mov	r0, r6
 80084c2:	4629      	mov	r1, r5
 80084c4:	bdf8      	pop	{r3, r4, r5, r6, r7, pc}
 80084c6:	f04f 30ff 	mov.w	r0, #4294967295
 80084ca:	f2a7 4713 	subw	r7, r7, #1043	; 0x413
 80084ce:	40f8      	lsrs	r0, r7
 80084d0:	4206      	tst	r6, r0
 80084d2:	d0f5      	beq.n	80084c0 <round+0x5c>
 80084d4:	2101      	movs	r1, #1
 80084d6:	f1c4 0433 	rsb	r4, r4, #51	; 0x33
 80084da:	40a1      	lsls	r1, r4
 80084dc:	198a      	adds	r2, r1, r6
 80084de:	bf28      	it	cs
 80084e0:	3301      	addcs	r3, #1
 80084e2:	ea22 0200 	bic.w	r2, r2, r0
 80084e6:	4619      	mov	r1, r3
 80084e8:	4610      	mov	r0, r2
 80084ea:	e7e7      	b.n	80084bc <round+0x58>
 80084ec:	000fffff 	.word	0x000fffff

080084f0 <trunc>:
 80084f0:	b5f8      	push	{r3, r4, r5, r6, r7, lr}
 80084f2:	f3c1 550a 	ubfx	r5, r1, #20, #11
 80084f6:	f2a5 32ff 	subw	r2, r5, #1023	; 0x3ff
 80084fa:	2a13      	cmp	r2, #19
 80084fc:	4604      	mov	r4, r0
 80084fe:	460b      	mov	r3, r1
 8008500:	dc11      	bgt.n	8008526 <trunc+0x36>
 8008502:	2a00      	cmp	r2, #0
 8008504:	da04      	bge.n	8008510 <trunc+0x20>
 8008506:	2200      	movs	r2, #0
 8008508:	f001 4300 	and.w	r3, r1, #2147483648	; 0x80000000
 800850c:	4614      	mov	r4, r2
 800850e:	e007      	b.n	8008520 <trunc+0x30>
 8008510:	2000      	movs	r0, #0
 8008512:	4b0f      	ldr	r3, [pc, #60]	; (8008550 <trunc+0x60>)
 8008514:	fa43 f202 	asr.w	r2, r3, r2
 8008518:	ea21 0102 	bic.w	r1, r1, r2
 800851c:	4604      	mov	r4, r0
 800851e:	460b      	mov	r3, r1
 8008520:	4620      	mov	r0, r4
 8008522:	4619      	mov	r1, r3
 8008524:	bdf8      	pop	{r3, r4, r5, r6, r7, pc}
 8008526:	2a33      	cmp	r2, #51	; 0x33
 8008528:	dd07      	ble.n	800853a <trunc+0x4a>
 800852a:	f5b2 6f80 	cmp.w	r2, #1024	; 0x400
 800852e:	d1f7      	bne.n	8008520 <trunc+0x30>
 8008530:	4602      	mov	r2, r0
 8008532:	460b      	mov	r3, r1
 8008534:	f7f7 fe1e 	bl	8000174 <__adddf3>
 8008538:	e7f0      	b.n	800851c <trunc+0x2c>
 800853a:	460b      	mov	r3, r1
 800853c:	f04f 31ff 	mov.w	r1, #4294967295
 8008540:	f2a5 4513 	subw	r5, r5, #1043	; 0x413
 8008544:	fa21 f505 	lsr.w	r5, r1, r5
 8008548:	ea20 0205 	bic.w	r2, r0, r5
 800854c:	e7de      	b.n	800850c <trunc+0x1c>
 800854e:	bf00      	nop
 8008550:	000fffff 	.word	0x000fffff

08008554 <ceilf>:
 8008554:	b570      	push	{r4, r5, r6, lr}
 8008556:	f020 4600 	bic.w	r6, r0, #2147483648	; 0x80000000
 800855a:	0df5      	lsrs	r5, r6, #23
 800855c:	3d7f      	subs	r5, #127	; 0x7f
 800855e:	2d16      	cmp	r5, #22
 8008560:	4601      	mov	r1, r0
 8008562:	4604      	mov	r4, r0
 8008564:	dc26      	bgt.n	80085b4 <ceilf+0x60>
 8008566:	2d00      	cmp	r5, #0
 8008568:	da0e      	bge.n	8008588 <ceilf+0x34>
 800856a:	4918      	ldr	r1, [pc, #96]	; (80085cc <ceilf+0x78>)
 800856c:	f7f8 fb02 	bl	8000b74 <__addsf3>
 8008570:	2100      	movs	r1, #0
 8008572:	f7f8 fdc3 	bl	80010fc <__aeabi_fcmpgt>
 8008576:	b128      	cbz	r0, 8008584 <ceilf+0x30>
 8008578:	2c00      	cmp	r4, #0
 800857a:	db23      	blt.n	80085c4 <ceilf+0x70>
 800857c:	2e00      	cmp	r6, #0
 800857e:	bf18      	it	ne
 8008580:	f04f 547e 	movne.w	r4, #1065353216	; 0x3f800000
 8008584:	4621      	mov	r1, r4
 8008586:	e01b      	b.n	80085c0 <ceilf+0x6c>
 8008588:	4e11      	ldr	r6, [pc, #68]	; (80085d0 <ceilf+0x7c>)
 800858a:	412e      	asrs	r6, r5
 800858c:	4230      	tst	r0, r6
 800858e:	d017      	beq.n	80085c0 <ceilf+0x6c>
 8008590:	490e      	ldr	r1, [pc, #56]	; (80085cc <ceilf+0x78>)
 8008592:	f7f8 faef 	bl	8000b74 <__addsf3>
 8008596:	2100      	movs	r1, #0
 8008598:	f7f8 fdb0 	bl	80010fc <__aeabi_fcmpgt>
 800859c:	2800      	cmp	r0, #0
 800859e:	d0f1      	beq.n	8008584 <ceilf+0x30>
 80085a0:	2c00      	cmp	r4, #0
 80085a2:	bfc2      	ittt	gt
 80085a4:	f44f 0300 	movgt.w	r3, #8388608	; 0x800000
 80085a8:	fa43 f505 	asrgt.w	r5, r3, r5
 80085ac:	1964      	addgt	r4, r4, r5
 80085ae:	ea24 0406 	bic.w	r4, r4, r6
 80085b2:	e7e7      	b.n	8008584 <ceilf+0x30>
 80085b4:	f1b6 4fff 	cmp.w	r6, #2139095040	; 0x7f800000
 80085b8:	d302      	bcc.n	80085c0 <ceilf+0x6c>
 80085ba:	f7f8 fadb 	bl	8000b74 <__addsf3>
 80085be:	4601      	mov	r1, r0
 80085c0:	4608      	mov	r0, r1
 80085c2:	bd70      	pop	{r4, r5, r6, pc}
 80085c4:	f04f 4400 	mov.w	r4, #2147483648	; 0x80000000
 80085c8:	e7dc      	b.n	8008584 <ceilf+0x30>
 80085ca:	bf00      	nop
 80085cc:	7149f2ca 	.word	0x7149f2ca
 80085d0:	007fffff 	.word	0x007fffff

080085d4 <cosf>:
 80085d4:	b507      	push	{r0, r1, r2, lr}
 80085d6:	4a18      	ldr	r2, [pc, #96]	; (8008638 <cosf+0x64>)
 80085d8:	f020 4300 	bic.w	r3, r0, #2147483648	; 0x80000000
 80085dc:	4293      	cmp	r3, r2
 80085de:	4601      	mov	r1, r0
 80085e0:	dc03      	bgt.n	80085ea <cosf+0x16>
 80085e2:	2100      	movs	r1, #0
 80085e4:	f000 fbe6 	bl	8008db4 <__kernel_cosf>
 80085e8:	e004      	b.n	80085f4 <cosf+0x20>
 80085ea:	f1b3 4fff 	cmp.w	r3, #2139095040	; 0x7f800000
 80085ee:	db04      	blt.n	80085fa <cosf+0x26>
 80085f0:	f7f8 fabe 	bl	8000b70 <__aeabi_fsub>
 80085f4:	b003      	add	sp, #12
 80085f6:	f85d fb04 	ldr.w	pc, [sp], #4
 80085fa:	4669      	mov	r1, sp
 80085fc:	f000 fa30 	bl	8008a60 <__ieee754_rem_pio2f>
 8008600:	f000 0203 	and.w	r2, r0, #3
 8008604:	2a01      	cmp	r2, #1
 8008606:	d005      	beq.n	8008614 <cosf+0x40>
 8008608:	2a02      	cmp	r2, #2
 800860a:	d00a      	beq.n	8008622 <cosf+0x4e>
 800860c:	b972      	cbnz	r2, 800862c <cosf+0x58>
 800860e:	9901      	ldr	r1, [sp, #4]
 8008610:	9800      	ldr	r0, [sp, #0]
 8008612:	e7e7      	b.n	80085e4 <cosf+0x10>
 8008614:	9901      	ldr	r1, [sp, #4]
 8008616:	9800      	ldr	r0, [sp, #0]
 8008618:	f000 feee 	bl	80093f8 <__kernel_sinf>
 800861c:	f100 4000 	add.w	r0, r0, #2147483648	; 0x80000000
 8008620:	e7e8      	b.n	80085f4 <cosf+0x20>
 8008622:	9901      	ldr	r1, [sp, #4]
 8008624:	9800      	ldr	r0, [sp, #0]
 8008626:	f000 fbc5 	bl	8008db4 <__kernel_cosf>
 800862a:	e7f7      	b.n	800861c <cosf+0x48>
 800862c:	2201      	movs	r2, #1
 800862e:	9901      	ldr	r1, [sp, #4]
 8008630:	9800      	ldr	r0, [sp, #0]
 8008632:	f000 fee1 	bl	80093f8 <__kernel_sinf>
 8008636:	e7dd      	b.n	80085f4 <cosf+0x20>
 8008638:	3f490fd8 	.word	0x3f490fd8

0800863c <sinf>:
 800863c:	b507      	push	{r0, r1, r2, lr}
 800863e:	4a19      	ldr	r2, [pc, #100]	; (80086a4 <sinf+0x68>)
 8008640:	f020 4300 	bic.w	r3, r0, #2147483648	; 0x80000000
 8008644:	4293      	cmp	r3, r2
 8008646:	4601      	mov	r1, r0
 8008648:	dc04      	bgt.n	8008654 <sinf+0x18>
 800864a:	2200      	movs	r2, #0
 800864c:	2100      	movs	r1, #0
 800864e:	f000 fed3 	bl	80093f8 <__kernel_sinf>
 8008652:	e004      	b.n	800865e <sinf+0x22>
 8008654:	f1b3 4fff 	cmp.w	r3, #2139095040	; 0x7f800000
 8008658:	db04      	blt.n	8008664 <sinf+0x28>
 800865a:	f7f8 fa89 	bl	8000b70 <__aeabi_fsub>
 800865e:	b003      	add	sp, #12
 8008660:	f85d fb04 	ldr.w	pc, [sp], #4
 8008664:	4669      	mov	r1, sp
 8008666:	f000 f9fb 	bl	8008a60 <__ieee754_rem_pio2f>
 800866a:	f000 0003 	and.w	r0, r0, #3
 800866e:	2801      	cmp	r0, #1
 8008670:	d006      	beq.n	8008680 <sinf+0x44>
 8008672:	2802      	cmp	r0, #2
 8008674:	d009      	beq.n	800868a <sinf+0x4e>
 8008676:	b980      	cbnz	r0, 800869a <sinf+0x5e>
 8008678:	2201      	movs	r2, #1
 800867a:	9901      	ldr	r1, [sp, #4]
 800867c:	9800      	ldr	r0, [sp, #0]
 800867e:	e7e6      	b.n	800864e <sinf+0x12>
 8008680:	9901      	ldr	r1, [sp, #4]
 8008682:	9800      	ldr	r0, [sp, #0]
 8008684:	f000 fb96 	bl	8008db4 <__kernel_cosf>
 8008688:	e7e9      	b.n	800865e <sinf+0x22>
 800868a:	2201      	movs	r2, #1
 800868c:	9901      	ldr	r1, [sp, #4]
 800868e:	9800      	ldr	r0, [sp, #0]
 8008690:	f000 feb2 	bl	80093f8 <__kernel_sinf>
 8008694:	f100 4000 	add.w	r0, r0, #2147483648	; 0x80000000
 8008698:	e7e1      	b.n	800865e <sinf+0x22>
 800869a:	9901      	ldr	r1, [sp, #4]
 800869c:	9800      	ldr	r0, [sp, #0]
 800869e:	f000 fb89 	bl	8008db4 <__kernel_cosf>
 80086a2:	e7f7      	b.n	8008694 <sinf+0x58>
 80086a4:	3f490fd8 	.word	0x3f490fd8

080086a8 <sqrt>:
 80086a8:	e92d 4ff0 	stmdb	sp!, {r4, r5, r6, r7, r8, r9, sl, fp, lr}
 80086ac:	b08b      	sub	sp, #44	; 0x2c
 80086ae:	4604      	mov	r4, r0
 80086b0:	460d      	mov	r5, r1
 80086b2:	f000 f899 	bl	80087e8 <__ieee754_sqrt>
 80086b6:	4b24      	ldr	r3, [pc, #144]	; (8008748 <sqrt+0xa0>)
 80086b8:	4680      	mov	r8, r0
 80086ba:	f993 a000 	ldrsb.w	sl, [r3]
 80086be:	4689      	mov	r9, r1
 80086c0:	f1ba 3fff 	cmp.w	sl, #4294967295
 80086c4:	d02b      	beq.n	800871e <sqrt+0x76>
 80086c6:	4622      	mov	r2, r4
 80086c8:	462b      	mov	r3, r5
 80086ca:	4620      	mov	r0, r4
 80086cc:	4629      	mov	r1, r5
 80086ce:	f7f8 f99d 	bl	8000a0c <__aeabi_dcmpun>
 80086d2:	4683      	mov	fp, r0
 80086d4:	bb18      	cbnz	r0, 800871e <sqrt+0x76>
 80086d6:	2600      	movs	r6, #0
 80086d8:	2700      	movs	r7, #0
 80086da:	4632      	mov	r2, r6
 80086dc:	463b      	mov	r3, r7
 80086de:	4620      	mov	r0, r4
 80086e0:	4629      	mov	r1, r5
 80086e2:	f7f8 f96b 	bl	80009bc <__aeabi_dcmplt>
 80086e6:	b1d0      	cbz	r0, 800871e <sqrt+0x76>
 80086e8:	2301      	movs	r3, #1
 80086ea:	9300      	str	r3, [sp, #0]
 80086ec:	4b17      	ldr	r3, [pc, #92]	; (800874c <sqrt+0xa4>)
 80086ee:	f8cd b020 	str.w	fp, [sp, #32]
 80086f2:	9301      	str	r3, [sp, #4]
 80086f4:	e9cd 4504 	strd	r4, r5, [sp, #16]
 80086f8:	e9cd 4502 	strd	r4, r5, [sp, #8]
 80086fc:	f1ba 0f00 	cmp.w	sl, #0
 8008700:	d112      	bne.n	8008728 <sqrt+0x80>
 8008702:	e9cd 6706 	strd	r6, r7, [sp, #24]
 8008706:	4668      	mov	r0, sp
 8008708:	f000 feec 	bl	80094e4 <matherr>
 800870c:	b1b8      	cbz	r0, 800873e <sqrt+0x96>
 800870e:	9b08      	ldr	r3, [sp, #32]
 8008710:	b11b      	cbz	r3, 800871a <sqrt+0x72>
 8008712:	f7ff f8ed 	bl	80078f0 <__errno>
 8008716:	9b08      	ldr	r3, [sp, #32]
 8008718:	6003      	str	r3, [r0, #0]
 800871a:	e9dd 8906 	ldrd	r8, r9, [sp, #24]
 800871e:	4640      	mov	r0, r8
 8008720:	4649      	mov	r1, r9
 8008722:	b00b      	add	sp, #44	; 0x2c
 8008724:	e8bd 8ff0 	ldmia.w	sp!, {r4, r5, r6, r7, r8, r9, sl, fp, pc}
 8008728:	4632      	mov	r2, r6
 800872a:	463b      	mov	r3, r7
 800872c:	4630      	mov	r0, r6
 800872e:	4639      	mov	r1, r7
 8008730:	f7f7 fffc 	bl	800072c <__aeabi_ddiv>
 8008734:	f1ba 0f02 	cmp.w	sl, #2
 8008738:	e9cd 0106 	strd	r0, r1, [sp, #24]
 800873c:	d1e3      	bne.n	8008706 <sqrt+0x5e>
 800873e:	f7ff f8d7 	bl	80078f0 <__errno>
 8008742:	2321      	movs	r3, #33	; 0x21
 8008744:	6003      	str	r3, [r0, #0]
 8008746:	e7e2      	b.n	800870e <sqrt+0x66>
 8008748:	20000070 	.word	0x20000070
 800874c:	08009aa8 	.word	0x08009aa8

08008750 <atan2f>:
 8008750:	f000 b8f6 	b.w	8008940 <__ieee754_atan2f>

08008754 <sqrtf>:
 8008754:	b5f0      	push	{r4, r5, r6, r7, lr}
 8008756:	b08b      	sub	sp, #44	; 0x2c
 8008758:	4604      	mov	r4, r0
 800875a:	f000 fad9 	bl	8008d10 <__ieee754_sqrtf>
 800875e:	4b20      	ldr	r3, [pc, #128]	; (80087e0 <sqrtf+0x8c>)
 8008760:	4606      	mov	r6, r0
 8008762:	f993 5000 	ldrsb.w	r5, [r3]
 8008766:	1c6b      	adds	r3, r5, #1
 8008768:	d02a      	beq.n	80087c0 <sqrtf+0x6c>
 800876a:	4621      	mov	r1, r4
 800876c:	4620      	mov	r0, r4
 800876e:	f7f8 fccf 	bl	8001110 <__aeabi_fcmpun>
 8008772:	4607      	mov	r7, r0
 8008774:	bb20      	cbnz	r0, 80087c0 <sqrtf+0x6c>
 8008776:	2100      	movs	r1, #0
 8008778:	4620      	mov	r0, r4
 800877a:	f7f8 fca1 	bl	80010c0 <__aeabi_fcmplt>
 800877e:	b1f8      	cbz	r0, 80087c0 <sqrtf+0x6c>
 8008780:	2301      	movs	r3, #1
 8008782:	9300      	str	r3, [sp, #0]
 8008784:	4b17      	ldr	r3, [pc, #92]	; (80087e4 <sqrtf+0x90>)
 8008786:	4620      	mov	r0, r4
 8008788:	9301      	str	r3, [sp, #4]
 800878a:	9708      	str	r7, [sp, #32]
 800878c:	f7f7 fe50 	bl	8000430 <__aeabi_f2d>
 8008790:	2200      	movs	r2, #0
 8008792:	e9cd 0104 	strd	r0, r1, [sp, #16]
 8008796:	e9cd 0102 	strd	r0, r1, [sp, #8]
 800879a:	2300      	movs	r3, #0
 800879c:	b99d      	cbnz	r5, 80087c6 <sqrtf+0x72>
 800879e:	e9cd 2306 	strd	r2, r3, [sp, #24]
 80087a2:	4668      	mov	r0, sp
 80087a4:	f000 fe9e 	bl	80094e4 <matherr>
 80087a8:	b1a8      	cbz	r0, 80087d6 <sqrtf+0x82>
 80087aa:	9b08      	ldr	r3, [sp, #32]
 80087ac:	b11b      	cbz	r3, 80087b6 <sqrtf+0x62>
 80087ae:	f7ff f89f 	bl	80078f0 <__errno>
 80087b2:	9b08      	ldr	r3, [sp, #32]
 80087b4:	6003      	str	r3, [r0, #0]
 80087b6:	e9dd 0106 	ldrd	r0, r1, [sp, #24]
 80087ba:	f7f8 f985 	bl	8000ac8 <__aeabi_d2f>
 80087be:	4606      	mov	r6, r0
 80087c0:	4630      	mov	r0, r6
 80087c2:	b00b      	add	sp, #44	; 0x2c
 80087c4:	bdf0      	pop	{r4, r5, r6, r7, pc}
 80087c6:	4610      	mov	r0, r2
 80087c8:	4619      	mov	r1, r3
 80087ca:	f7f7 ffaf 	bl	800072c <__aeabi_ddiv>
 80087ce:	2d02      	cmp	r5, #2
 80087d0:	e9cd 0106 	strd	r0, r1, [sp, #24]
 80087d4:	d1e5      	bne.n	80087a2 <sqrtf+0x4e>
 80087d6:	f7ff f88b 	bl	80078f0 <__errno>
 80087da:	2321      	movs	r3, #33	; 0x21
 80087dc:	6003      	str	r3, [r0, #0]
 80087de:	e7e4      	b.n	80087aa <sqrtf+0x56>
 80087e0:	20000070 	.word	0x20000070
 80087e4:	08009aad 	.word	0x08009aad

080087e8 <__ieee754_sqrt>:
 80087e8:	e92d 41f0 	stmdb	sp!, {r4, r5, r6, r7, r8, lr}
 80087ec:	f8df e14c 	ldr.w	lr, [pc, #332]	; 800893c <__ieee754_sqrt+0x154>
 80087f0:	4606      	mov	r6, r0
 80087f2:	ea3e 0e01 	bics.w	lr, lr, r1
 80087f6:	460d      	mov	r5, r1
 80087f8:	4607      	mov	r7, r0
 80087fa:	460a      	mov	r2, r1
 80087fc:	460c      	mov	r4, r1
 80087fe:	4603      	mov	r3, r0
 8008800:	d10f      	bne.n	8008822 <__ieee754_sqrt+0x3a>
 8008802:	4602      	mov	r2, r0
 8008804:	460b      	mov	r3, r1
 8008806:	f7f7 fe67 	bl	80004d8 <__aeabi_dmul>
 800880a:	4602      	mov	r2, r0
 800880c:	460b      	mov	r3, r1
 800880e:	4630      	mov	r0, r6
 8008810:	4629      	mov	r1, r5
 8008812:	f7f7 fcaf 	bl	8000174 <__adddf3>
 8008816:	4606      	mov	r6, r0
 8008818:	460d      	mov	r5, r1
 800881a:	4630      	mov	r0, r6
 800881c:	4629      	mov	r1, r5
 800881e:	e8bd 81f0 	ldmia.w	sp!, {r4, r5, r6, r7, r8, pc}
 8008822:	2900      	cmp	r1, #0
 8008824:	dc0e      	bgt.n	8008844 <__ieee754_sqrt+0x5c>
 8008826:	f021 4e00 	bic.w	lr, r1, #2147483648	; 0x80000000
 800882a:	ea5e 0707 	orrs.w	r7, lr, r7
 800882e:	d0f4      	beq.n	800881a <__ieee754_sqrt+0x32>
 8008830:	b141      	cbz	r1, 8008844 <__ieee754_sqrt+0x5c>
 8008832:	4602      	mov	r2, r0
 8008834:	460b      	mov	r3, r1
 8008836:	f7f7 fc9b 	bl	8000170 <__aeabi_dsub>
 800883a:	4602      	mov	r2, r0
 800883c:	460b      	mov	r3, r1
 800883e:	f7f7 ff75 	bl	800072c <__aeabi_ddiv>
 8008842:	e7e8      	b.n	8008816 <__ieee754_sqrt+0x2e>
 8008844:	1512      	asrs	r2, r2, #20
 8008846:	d10c      	bne.n	8008862 <__ieee754_sqrt+0x7a>
 8008848:	2c00      	cmp	r4, #0
 800884a:	d06e      	beq.n	800892a <__ieee754_sqrt+0x142>
 800884c:	2100      	movs	r1, #0
 800884e:	02e6      	lsls	r6, r4, #11
 8008850:	d56f      	bpl.n	8008932 <__ieee754_sqrt+0x14a>
 8008852:	1e48      	subs	r0, r1, #1
 8008854:	1a12      	subs	r2, r2, r0
 8008856:	f1c1 0020 	rsb	r0, r1, #32
 800885a:	fa23 f000 	lsr.w	r0, r3, r0
 800885e:	4304      	orrs	r4, r0
 8008860:	408b      	lsls	r3, r1
 8008862:	f2a2 32ff 	subw	r2, r2, #1023	; 0x3ff
 8008866:	07d5      	lsls	r5, r2, #31
 8008868:	f04f 0500 	mov.w	r5, #0
 800886c:	f3c4 0413 	ubfx	r4, r4, #0, #20
 8008870:	f444 1480 	orr.w	r4, r4, #1048576	; 0x100000
 8008874:	bf42      	ittt	mi
 8008876:	0064      	lslmi	r4, r4, #1
 8008878:	eb04 74d3 	addmi.w	r4, r4, r3, lsr #31
 800887c:	005b      	lslmi	r3, r3, #1
 800887e:	eb04 71d3 	add.w	r1, r4, r3, lsr #31
 8008882:	1050      	asrs	r0, r2, #1
 8008884:	4421      	add	r1, r4
 8008886:	2216      	movs	r2, #22
 8008888:	462c      	mov	r4, r5
 800888a:	f44f 1600 	mov.w	r6, #2097152	; 0x200000
 800888e:	005b      	lsls	r3, r3, #1
 8008890:	19a7      	adds	r7, r4, r6
 8008892:	428f      	cmp	r7, r1
 8008894:	bfde      	ittt	le
 8008896:	1bc9      	suble	r1, r1, r7
 8008898:	19bc      	addle	r4, r7, r6
 800889a:	19ad      	addle	r5, r5, r6
 800889c:	0049      	lsls	r1, r1, #1
 800889e:	3a01      	subs	r2, #1
 80088a0:	eb01 71d3 	add.w	r1, r1, r3, lsr #31
 80088a4:	ea4f 0656 	mov.w	r6, r6, lsr #1
 80088a8:	ea4f 0343 	mov.w	r3, r3, lsl #1
 80088ac:	d1f0      	bne.n	8008890 <__ieee754_sqrt+0xa8>
 80088ae:	f04f 0e20 	mov.w	lr, #32
 80088b2:	4694      	mov	ip, r2
 80088b4:	f04f 4600 	mov.w	r6, #2147483648	; 0x80000000
 80088b8:	42a1      	cmp	r1, r4
 80088ba:	eb06 070c 	add.w	r7, r6, ip
 80088be:	dc02      	bgt.n	80088c6 <__ieee754_sqrt+0xde>
 80088c0:	d112      	bne.n	80088e8 <__ieee754_sqrt+0x100>
 80088c2:	429f      	cmp	r7, r3
 80088c4:	d810      	bhi.n	80088e8 <__ieee754_sqrt+0x100>
 80088c6:	2f00      	cmp	r7, #0
 80088c8:	eb07 0c06 	add.w	ip, r7, r6
 80088cc:	da34      	bge.n	8008938 <__ieee754_sqrt+0x150>
 80088ce:	f1bc 0f00 	cmp.w	ip, #0
 80088d2:	db31      	blt.n	8008938 <__ieee754_sqrt+0x150>
 80088d4:	f104 0801 	add.w	r8, r4, #1
 80088d8:	1b09      	subs	r1, r1, r4
 80088da:	4644      	mov	r4, r8
 80088dc:	429f      	cmp	r7, r3
 80088de:	bf88      	it	hi
 80088e0:	f101 31ff 	addhi.w	r1, r1, #4294967295
 80088e4:	1bdb      	subs	r3, r3, r7
 80088e6:	4432      	add	r2, r6
 80088e8:	eb01 77d3 	add.w	r7, r1, r3, lsr #31
 80088ec:	f1be 0e01 	subs.w	lr, lr, #1
 80088f0:	4439      	add	r1, r7
 80088f2:	ea4f 0343 	mov.w	r3, r3, lsl #1
 80088f6:	ea4f 0656 	mov.w	r6, r6, lsr #1
 80088fa:	d1dd      	bne.n	80088b8 <__ieee754_sqrt+0xd0>
 80088fc:	430b      	orrs	r3, r1
 80088fe:	d006      	beq.n	800890e <__ieee754_sqrt+0x126>
 8008900:	1c54      	adds	r4, r2, #1
 8008902:	bf0b      	itete	eq
 8008904:	4672      	moveq	r2, lr
 8008906:	3201      	addne	r2, #1
 8008908:	3501      	addeq	r5, #1
 800890a:	f022 0201 	bicne.w	r2, r2, #1
 800890e:	106b      	asrs	r3, r5, #1
 8008910:	0852      	lsrs	r2, r2, #1
 8008912:	07e9      	lsls	r1, r5, #31
 8008914:	f103 537f 	add.w	r3, r3, #1069547520	; 0x3fc00000
 8008918:	f503 1300 	add.w	r3, r3, #2097152	; 0x200000
 800891c:	bf48      	it	mi
 800891e:	f042 4200 	orrmi.w	r2, r2, #2147483648	; 0x80000000
 8008922:	eb03 5500 	add.w	r5, r3, r0, lsl #20
 8008926:	4616      	mov	r6, r2
 8008928:	e777      	b.n	800881a <__ieee754_sqrt+0x32>
 800892a:	0adc      	lsrs	r4, r3, #11
 800892c:	3a15      	subs	r2, #21
 800892e:	055b      	lsls	r3, r3, #21
 8008930:	e78a      	b.n	8008848 <__ieee754_sqrt+0x60>
 8008932:	0064      	lsls	r4, r4, #1
 8008934:	3101      	adds	r1, #1
 8008936:	e78a      	b.n	800884e <__ieee754_sqrt+0x66>
 8008938:	46a0      	mov	r8, r4
 800893a:	e7cd      	b.n	80088d8 <__ieee754_sqrt+0xf0>
 800893c:	7ff00000 	.word	0x7ff00000

08008940 <__ieee754_atan2f>:
 8008940:	b5f8      	push	{r3, r4, r5, r6, r7, lr}
 8008942:	f021 4600 	bic.w	r6, r1, #2147483648	; 0x80000000
 8008946:	f1b6 4fff 	cmp.w	r6, #2139095040	; 0x7f800000
 800894a:	4603      	mov	r3, r0
 800894c:	dc05      	bgt.n	800895a <__ieee754_atan2f+0x1a>
 800894e:	f020 4200 	bic.w	r2, r0, #2147483648	; 0x80000000
 8008952:	f1b2 4fff 	cmp.w	r2, #2139095040	; 0x7f800000
 8008956:	4607      	mov	r7, r0
 8008958:	dd04      	ble.n	8008964 <__ieee754_atan2f+0x24>
 800895a:	4618      	mov	r0, r3
 800895c:	f7f8 f90a 	bl	8000b74 <__addsf3>
 8008960:	4603      	mov	r3, r0
 8008962:	e010      	b.n	8008986 <__ieee754_atan2f+0x46>
 8008964:	f1b1 5f7e 	cmp.w	r1, #1065353216	; 0x3f800000
 8008968:	d103      	bne.n	8008972 <__ieee754_atan2f+0x32>
 800896a:	e8bd 40f8 	ldmia.w	sp!, {r3, r4, r5, r6, r7, lr}
 800896e:	f000 bdbb 	b.w	80094e8 <atanf>
 8008972:	178c      	asrs	r4, r1, #30
 8008974:	f004 0402 	and.w	r4, r4, #2
 8008978:	ea44 74d0 	orr.w	r4, r4, r0, lsr #31
 800897c:	b92a      	cbnz	r2, 800898a <__ieee754_atan2f+0x4a>
 800897e:	2c02      	cmp	r4, #2
 8008980:	d023      	beq.n	80089ca <__ieee754_atan2f+0x8a>
 8008982:	2c03      	cmp	r4, #3
 8008984:	d023      	beq.n	80089ce <__ieee754_atan2f+0x8e>
 8008986:	4618      	mov	r0, r3
 8008988:	bdf8      	pop	{r3, r4, r5, r6, r7, pc}
 800898a:	b91e      	cbnz	r6, 8008994 <__ieee754_atan2f+0x54>
 800898c:	2f00      	cmp	r7, #0
 800898e:	da53      	bge.n	8008a38 <__ieee754_atan2f+0xf8>
 8008990:	4b2a      	ldr	r3, [pc, #168]	; (8008a3c <__ieee754_atan2f+0xfc>)
 8008992:	e7f8      	b.n	8008986 <__ieee754_atan2f+0x46>
 8008994:	f1b6 4fff 	cmp.w	r6, #2139095040	; 0x7f800000
 8008998:	d11b      	bne.n	80089d2 <__ieee754_atan2f+0x92>
 800899a:	f1b2 4fff 	cmp.w	r2, #2139095040	; 0x7f800000
 800899e:	d10b      	bne.n	80089b8 <__ieee754_atan2f+0x78>
 80089a0:	2c02      	cmp	r4, #2
 80089a2:	d005      	beq.n	80089b0 <__ieee754_atan2f+0x70>
 80089a4:	2c03      	cmp	r4, #3
 80089a6:	d005      	beq.n	80089b4 <__ieee754_atan2f+0x74>
 80089a8:	2c01      	cmp	r4, #1
 80089aa:	d141      	bne.n	8008a30 <__ieee754_atan2f+0xf0>
 80089ac:	4b24      	ldr	r3, [pc, #144]	; (8008a40 <__ieee754_atan2f+0x100>)
 80089ae:	e7ea      	b.n	8008986 <__ieee754_atan2f+0x46>
 80089b0:	4b24      	ldr	r3, [pc, #144]	; (8008a44 <__ieee754_atan2f+0x104>)
 80089b2:	e7e8      	b.n	8008986 <__ieee754_atan2f+0x46>
 80089b4:	4b24      	ldr	r3, [pc, #144]	; (8008a48 <__ieee754_atan2f+0x108>)
 80089b6:	e7e6      	b.n	8008986 <__ieee754_atan2f+0x46>
 80089b8:	2c02      	cmp	r4, #2
 80089ba:	d006      	beq.n	80089ca <__ieee754_atan2f+0x8a>
 80089bc:	2c03      	cmp	r4, #3
 80089be:	d006      	beq.n	80089ce <__ieee754_atan2f+0x8e>
 80089c0:	2c01      	cmp	r4, #1
 80089c2:	d137      	bne.n	8008a34 <__ieee754_atan2f+0xf4>
 80089c4:	f04f 4300 	mov.w	r3, #2147483648	; 0x80000000
 80089c8:	e7dd      	b.n	8008986 <__ieee754_atan2f+0x46>
 80089ca:	4b20      	ldr	r3, [pc, #128]	; (8008a4c <__ieee754_atan2f+0x10c>)
 80089cc:	e7db      	b.n	8008986 <__ieee754_atan2f+0x46>
 80089ce:	4b20      	ldr	r3, [pc, #128]	; (8008a50 <__ieee754_atan2f+0x110>)
 80089d0:	e7d9      	b.n	8008986 <__ieee754_atan2f+0x46>
 80089d2:	f1b2 4fff 	cmp.w	r2, #2139095040	; 0x7f800000
 80089d6:	d0d9      	beq.n	800898c <__ieee754_atan2f+0x4c>
 80089d8:	1b92      	subs	r2, r2, r6
 80089da:	15d2      	asrs	r2, r2, #23
 80089dc:	2a3c      	cmp	r2, #60	; 0x3c
 80089de:	dc17      	bgt.n	8008a10 <__ieee754_atan2f+0xd0>
 80089e0:	2900      	cmp	r1, #0
 80089e2:	da01      	bge.n	80089e8 <__ieee754_atan2f+0xa8>
 80089e4:	323c      	adds	r2, #60	; 0x3c
 80089e6:	db15      	blt.n	8008a14 <__ieee754_atan2f+0xd4>
 80089e8:	4618      	mov	r0, r3
 80089ea:	f7f8 fa7f 	bl	8000eec <__aeabi_fdiv>
 80089ee:	f000 fe8b 	bl	8009708 <fabsf>
 80089f2:	f000 fd79 	bl	80094e8 <atanf>
 80089f6:	4603      	mov	r3, r0
 80089f8:	2c01      	cmp	r4, #1
 80089fa:	d00d      	beq.n	8008a18 <__ieee754_atan2f+0xd8>
 80089fc:	2c02      	cmp	r4, #2
 80089fe:	d00e      	beq.n	8008a1e <__ieee754_atan2f+0xde>
 8008a00:	2c00      	cmp	r4, #0
 8008a02:	d0c0      	beq.n	8008986 <__ieee754_atan2f+0x46>
 8008a04:	4913      	ldr	r1, [pc, #76]	; (8008a54 <__ieee754_atan2f+0x114>)
 8008a06:	4618      	mov	r0, r3
 8008a08:	f7f8 f8b4 	bl	8000b74 <__addsf3>
 8008a0c:	490f      	ldr	r1, [pc, #60]	; (8008a4c <__ieee754_atan2f+0x10c>)
 8008a0e:	e00c      	b.n	8008a2a <__ieee754_atan2f+0xea>
 8008a10:	4b11      	ldr	r3, [pc, #68]	; (8008a58 <__ieee754_atan2f+0x118>)
 8008a12:	e7f1      	b.n	80089f8 <__ieee754_atan2f+0xb8>
 8008a14:	2300      	movs	r3, #0
 8008a16:	e7ef      	b.n	80089f8 <__ieee754_atan2f+0xb8>
 8008a18:	f103 4300 	add.w	r3, r3, #2147483648	; 0x80000000
 8008a1c:	e7b3      	b.n	8008986 <__ieee754_atan2f+0x46>
 8008a1e:	490d      	ldr	r1, [pc, #52]	; (8008a54 <__ieee754_atan2f+0x114>)
 8008a20:	4618      	mov	r0, r3
 8008a22:	f7f8 f8a7 	bl	8000b74 <__addsf3>
 8008a26:	4601      	mov	r1, r0
 8008a28:	4808      	ldr	r0, [pc, #32]	; (8008a4c <__ieee754_atan2f+0x10c>)
 8008a2a:	f7f8 f8a1 	bl	8000b70 <__aeabi_fsub>
 8008a2e:	e797      	b.n	8008960 <__ieee754_atan2f+0x20>
 8008a30:	4b0a      	ldr	r3, [pc, #40]	; (8008a5c <__ieee754_atan2f+0x11c>)
 8008a32:	e7a8      	b.n	8008986 <__ieee754_atan2f+0x46>
 8008a34:	2300      	movs	r3, #0
 8008a36:	e7a6      	b.n	8008986 <__ieee754_atan2f+0x46>
 8008a38:	4b07      	ldr	r3, [pc, #28]	; (8008a58 <__ieee754_atan2f+0x118>)
 8008a3a:	e7a4      	b.n	8008986 <__ieee754_atan2f+0x46>
 8008a3c:	bfc90fdb 	.word	0xbfc90fdb
 8008a40:	bf490fdb 	.word	0xbf490fdb
 8008a44:	4016cbe4 	.word	0x4016cbe4
 8008a48:	c016cbe4 	.word	0xc016cbe4
 8008a4c:	40490fdb 	.word	0x40490fdb
 8008a50:	c0490fdb 	.word	0xc0490fdb
 8008a54:	33bbbd2e 	.word	0x33bbbd2e
 8008a58:	3fc90fdb 	.word	0x3fc90fdb
 8008a5c:	3f490fdb 	.word	0x3f490fdb

08008a60 <__ieee754_rem_pio2f>:
 8008a60:	e92d 4ff0 	stmdb	sp!, {r4, r5, r6, r7, r8, r9, sl, fp, lr}
 8008a64:	4a9d      	ldr	r2, [pc, #628]	; (8008cdc <__ieee754_rem_pio2f+0x27c>)
 8008a66:	f020 4500 	bic.w	r5, r0, #2147483648	; 0x80000000
 8008a6a:	4295      	cmp	r5, r2
 8008a6c:	b087      	sub	sp, #28
 8008a6e:	460c      	mov	r4, r1
 8008a70:	4607      	mov	r7, r0
 8008a72:	dc04      	bgt.n	8008a7e <__ieee754_rem_pio2f+0x1e>
 8008a74:	2300      	movs	r3, #0
 8008a76:	6020      	str	r0, [r4, #0]
 8008a78:	604b      	str	r3, [r1, #4]
 8008a7a:	2600      	movs	r6, #0
 8008a7c:	e01a      	b.n	8008ab4 <__ieee754_rem_pio2f+0x54>
 8008a7e:	4a98      	ldr	r2, [pc, #608]	; (8008ce0 <__ieee754_rem_pio2f+0x280>)
 8008a80:	4295      	cmp	r5, r2
 8008a82:	dc4b      	bgt.n	8008b1c <__ieee754_rem_pio2f+0xbc>
 8008a84:	2800      	cmp	r0, #0
 8008a86:	4997      	ldr	r1, [pc, #604]	; (8008ce4 <__ieee754_rem_pio2f+0x284>)
 8008a88:	f025 050f 	bic.w	r5, r5, #15
 8008a8c:	4e96      	ldr	r6, [pc, #600]	; (8008ce8 <__ieee754_rem_pio2f+0x288>)
 8008a8e:	dd23      	ble.n	8008ad8 <__ieee754_rem_pio2f+0x78>
 8008a90:	f7f8 f86e 	bl	8000b70 <__aeabi_fsub>
 8008a94:	42b5      	cmp	r5, r6
 8008a96:	4607      	mov	r7, r0
 8008a98:	d010      	beq.n	8008abc <__ieee754_rem_pio2f+0x5c>
 8008a9a:	4994      	ldr	r1, [pc, #592]	; (8008cec <__ieee754_rem_pio2f+0x28c>)
 8008a9c:	f7f8 f868 	bl	8000b70 <__aeabi_fsub>
 8008aa0:	4601      	mov	r1, r0
 8008aa2:	6020      	str	r0, [r4, #0]
 8008aa4:	4638      	mov	r0, r7
 8008aa6:	f7f8 f863 	bl	8000b70 <__aeabi_fsub>
 8008aaa:	4990      	ldr	r1, [pc, #576]	; (8008cec <__ieee754_rem_pio2f+0x28c>)
 8008aac:	f7f8 f860 	bl	8000b70 <__aeabi_fsub>
 8008ab0:	2601      	movs	r6, #1
 8008ab2:	6060      	str	r0, [r4, #4]
 8008ab4:	4630      	mov	r0, r6
 8008ab6:	b007      	add	sp, #28
 8008ab8:	e8bd 8ff0 	ldmia.w	sp!, {r4, r5, r6, r7, r8, r9, sl, fp, pc}
 8008abc:	498c      	ldr	r1, [pc, #560]	; (8008cf0 <__ieee754_rem_pio2f+0x290>)
 8008abe:	f7f8 f857 	bl	8000b70 <__aeabi_fsub>
 8008ac2:	498c      	ldr	r1, [pc, #560]	; (8008cf4 <__ieee754_rem_pio2f+0x294>)
 8008ac4:	4605      	mov	r5, r0
 8008ac6:	f7f8 f853 	bl	8000b70 <__aeabi_fsub>
 8008aca:	4601      	mov	r1, r0
 8008acc:	6020      	str	r0, [r4, #0]
 8008ace:	4628      	mov	r0, r5
 8008ad0:	f7f8 f84e 	bl	8000b70 <__aeabi_fsub>
 8008ad4:	4987      	ldr	r1, [pc, #540]	; (8008cf4 <__ieee754_rem_pio2f+0x294>)
 8008ad6:	e7e9      	b.n	8008aac <__ieee754_rem_pio2f+0x4c>
 8008ad8:	f7f8 f84c 	bl	8000b74 <__addsf3>
 8008adc:	42b5      	cmp	r5, r6
 8008ade:	4607      	mov	r7, r0
 8008ae0:	d00e      	beq.n	8008b00 <__ieee754_rem_pio2f+0xa0>
 8008ae2:	4982      	ldr	r1, [pc, #520]	; (8008cec <__ieee754_rem_pio2f+0x28c>)
 8008ae4:	f7f8 f846 	bl	8000b74 <__addsf3>
 8008ae8:	4601      	mov	r1, r0
 8008aea:	6020      	str	r0, [r4, #0]
 8008aec:	4638      	mov	r0, r7
 8008aee:	f7f8 f83f 	bl	8000b70 <__aeabi_fsub>
 8008af2:	497e      	ldr	r1, [pc, #504]	; (8008cec <__ieee754_rem_pio2f+0x28c>)
 8008af4:	f7f8 f83e 	bl	8000b74 <__addsf3>
 8008af8:	f04f 36ff 	mov.w	r6, #4294967295
 8008afc:	6060      	str	r0, [r4, #4]
 8008afe:	e7d9      	b.n	8008ab4 <__ieee754_rem_pio2f+0x54>
 8008b00:	497b      	ldr	r1, [pc, #492]	; (8008cf0 <__ieee754_rem_pio2f+0x290>)
 8008b02:	f7f8 f837 	bl	8000b74 <__addsf3>
 8008b06:	497b      	ldr	r1, [pc, #492]	; (8008cf4 <__ieee754_rem_pio2f+0x294>)
 8008b08:	4605      	mov	r5, r0
 8008b0a:	f7f8 f833 	bl	8000b74 <__addsf3>
 8008b0e:	4601      	mov	r1, r0
 8008b10:	6020      	str	r0, [r4, #0]
 8008b12:	4628      	mov	r0, r5
 8008b14:	f7f8 f82c 	bl	8000b70 <__aeabi_fsub>
 8008b18:	4976      	ldr	r1, [pc, #472]	; (8008cf4 <__ieee754_rem_pio2f+0x294>)
 8008b1a:	e7eb      	b.n	8008af4 <__ieee754_rem_pio2f+0x94>
 8008b1c:	4a76      	ldr	r2, [pc, #472]	; (8008cf8 <__ieee754_rem_pio2f+0x298>)
 8008b1e:	4295      	cmp	r5, r2
 8008b20:	f300 808c 	bgt.w	8008c3c <__ieee754_rem_pio2f+0x1dc>
 8008b24:	f000 fdf0 	bl	8009708 <fabsf>
 8008b28:	4974      	ldr	r1, [pc, #464]	; (8008cfc <__ieee754_rem_pio2f+0x29c>)
 8008b2a:	4680      	mov	r8, r0
 8008b2c:	f7f8 f92a 	bl	8000d84 <__aeabi_fmul>
 8008b30:	f04f 517c 	mov.w	r1, #1056964608	; 0x3f000000
 8008b34:	f7f8 f81e 	bl	8000b74 <__addsf3>
 8008b38:	f7f8 fb00 	bl	800113c <__aeabi_f2iz>
 8008b3c:	4606      	mov	r6, r0
 8008b3e:	f7f8 f8cd 	bl	8000cdc <__aeabi_i2f>
 8008b42:	4968      	ldr	r1, [pc, #416]	; (8008ce4 <__ieee754_rem_pio2f+0x284>)
 8008b44:	4682      	mov	sl, r0
 8008b46:	f7f8 f91d 	bl	8000d84 <__aeabi_fmul>
 8008b4a:	4601      	mov	r1, r0
 8008b4c:	4640      	mov	r0, r8
 8008b4e:	f7f8 f80f 	bl	8000b70 <__aeabi_fsub>
 8008b52:	4966      	ldr	r1, [pc, #408]	; (8008cec <__ieee754_rem_pio2f+0x28c>)
 8008b54:	4680      	mov	r8, r0
 8008b56:	4650      	mov	r0, sl
 8008b58:	f7f8 f914 	bl	8000d84 <__aeabi_fmul>
 8008b5c:	2e1f      	cmp	r6, #31
 8008b5e:	4681      	mov	r9, r0
 8008b60:	dc0c      	bgt.n	8008b7c <__ieee754_rem_pio2f+0x11c>
 8008b62:	4a67      	ldr	r2, [pc, #412]	; (8008d00 <__ieee754_rem_pio2f+0x2a0>)
 8008b64:	1e71      	subs	r1, r6, #1
 8008b66:	f852 2021 	ldr.w	r2, [r2, r1, lsl #2]
 8008b6a:	f025 03ff 	bic.w	r3, r5, #255	; 0xff
 8008b6e:	4293      	cmp	r3, r2
 8008b70:	d004      	beq.n	8008b7c <__ieee754_rem_pio2f+0x11c>
 8008b72:	4649      	mov	r1, r9
 8008b74:	4640      	mov	r0, r8
 8008b76:	f7f7 fffb 	bl	8000b70 <__aeabi_fsub>
 8008b7a:	e009      	b.n	8008b90 <__ieee754_rem_pio2f+0x130>
 8008b7c:	4649      	mov	r1, r9
 8008b7e:	4640      	mov	r0, r8
 8008b80:	f7f7 fff6 	bl	8000b70 <__aeabi_fsub>
 8008b84:	15ed      	asrs	r5, r5, #23
 8008b86:	f3c0 53c7 	ubfx	r3, r0, #23, #8
 8008b8a:	1aeb      	subs	r3, r5, r3
 8008b8c:	2b08      	cmp	r3, #8
 8008b8e:	dc01      	bgt.n	8008b94 <__ieee754_rem_pio2f+0x134>
 8008b90:	6020      	str	r0, [r4, #0]
 8008b92:	e024      	b.n	8008bde <__ieee754_rem_pio2f+0x17e>
 8008b94:	4956      	ldr	r1, [pc, #344]	; (8008cf0 <__ieee754_rem_pio2f+0x290>)
 8008b96:	4650      	mov	r0, sl
 8008b98:	f7f8 f8f4 	bl	8000d84 <__aeabi_fmul>
 8008b9c:	4681      	mov	r9, r0
 8008b9e:	4601      	mov	r1, r0
 8008ba0:	4640      	mov	r0, r8
 8008ba2:	f7f7 ffe5 	bl	8000b70 <__aeabi_fsub>
 8008ba6:	4601      	mov	r1, r0
 8008ba8:	4683      	mov	fp, r0
 8008baa:	4640      	mov	r0, r8
 8008bac:	f7f7 ffe0 	bl	8000b70 <__aeabi_fsub>
 8008bb0:	4649      	mov	r1, r9
 8008bb2:	f7f7 ffdd 	bl	8000b70 <__aeabi_fsub>
 8008bb6:	4680      	mov	r8, r0
 8008bb8:	494e      	ldr	r1, [pc, #312]	; (8008cf4 <__ieee754_rem_pio2f+0x294>)
 8008bba:	4650      	mov	r0, sl
 8008bbc:	f7f8 f8e2 	bl	8000d84 <__aeabi_fmul>
 8008bc0:	4641      	mov	r1, r8
 8008bc2:	f7f7 ffd5 	bl	8000b70 <__aeabi_fsub>
 8008bc6:	4601      	mov	r1, r0
 8008bc8:	4681      	mov	r9, r0
 8008bca:	4658      	mov	r0, fp
 8008bcc:	f7f7 ffd0 	bl	8000b70 <__aeabi_fsub>
 8008bd0:	f3c0 53c7 	ubfx	r3, r0, #23, #8
 8008bd4:	1aed      	subs	r5, r5, r3
 8008bd6:	2d19      	cmp	r5, #25
 8008bd8:	dc15      	bgt.n	8008c06 <__ieee754_rem_pio2f+0x1a6>
 8008bda:	46d8      	mov	r8, fp
 8008bdc:	6020      	str	r0, [r4, #0]
 8008bde:	6825      	ldr	r5, [r4, #0]
 8008be0:	4640      	mov	r0, r8
 8008be2:	4629      	mov	r1, r5
 8008be4:	f7f7 ffc4 	bl	8000b70 <__aeabi_fsub>
 8008be8:	4649      	mov	r1, r9
 8008bea:	f7f7 ffc1 	bl	8000b70 <__aeabi_fsub>
 8008bee:	2f00      	cmp	r7, #0
 8008bf0:	6060      	str	r0, [r4, #4]
 8008bf2:	f6bf af5f 	bge.w	8008ab4 <__ieee754_rem_pio2f+0x54>
 8008bf6:	f105 4500 	add.w	r5, r5, #2147483648	; 0x80000000
 8008bfa:	f100 4000 	add.w	r0, r0, #2147483648	; 0x80000000
 8008bfe:	6025      	str	r5, [r4, #0]
 8008c00:	6060      	str	r0, [r4, #4]
 8008c02:	4276      	negs	r6, r6
 8008c04:	e756      	b.n	8008ab4 <__ieee754_rem_pio2f+0x54>
 8008c06:	493f      	ldr	r1, [pc, #252]	; (8008d04 <__ieee754_rem_pio2f+0x2a4>)
 8008c08:	4650      	mov	r0, sl
 8008c0a:	f7f8 f8bb 	bl	8000d84 <__aeabi_fmul>
 8008c0e:	4605      	mov	r5, r0
 8008c10:	4601      	mov	r1, r0
 8008c12:	4658      	mov	r0, fp
 8008c14:	f7f7 ffac 	bl	8000b70 <__aeabi_fsub>
 8008c18:	4601      	mov	r1, r0
 8008c1a:	4680      	mov	r8, r0
 8008c1c:	4658      	mov	r0, fp
 8008c1e:	f7f7 ffa7 	bl	8000b70 <__aeabi_fsub>
 8008c22:	4629      	mov	r1, r5
 8008c24:	f7f7 ffa4 	bl	8000b70 <__aeabi_fsub>
 8008c28:	4605      	mov	r5, r0
 8008c2a:	4937      	ldr	r1, [pc, #220]	; (8008d08 <__ieee754_rem_pio2f+0x2a8>)
 8008c2c:	4650      	mov	r0, sl
 8008c2e:	f7f8 f8a9 	bl	8000d84 <__aeabi_fmul>
 8008c32:	4629      	mov	r1, r5
 8008c34:	f7f7 ff9c 	bl	8000b70 <__aeabi_fsub>
 8008c38:	4681      	mov	r9, r0
 8008c3a:	e79a      	b.n	8008b72 <__ieee754_rem_pio2f+0x112>
 8008c3c:	f1b5 4fff 	cmp.w	r5, #2139095040	; 0x7f800000
 8008c40:	db05      	blt.n	8008c4e <__ieee754_rem_pio2f+0x1ee>
 8008c42:	4601      	mov	r1, r0
 8008c44:	f7f7 ff94 	bl	8000b70 <__aeabi_fsub>
 8008c48:	6060      	str	r0, [r4, #4]
 8008c4a:	6020      	str	r0, [r4, #0]
 8008c4c:	e715      	b.n	8008a7a <__ieee754_rem_pio2f+0x1a>
 8008c4e:	15ee      	asrs	r6, r5, #23
 8008c50:	3e86      	subs	r6, #134	; 0x86
 8008c52:	eba5 55c6 	sub.w	r5, r5, r6, lsl #23
 8008c56:	4628      	mov	r0, r5
 8008c58:	f7f8 fa70 	bl	800113c <__aeabi_f2iz>
 8008c5c:	f7f8 f83e 	bl	8000cdc <__aeabi_i2f>
 8008c60:	4601      	mov	r1, r0
 8008c62:	9003      	str	r0, [sp, #12]
 8008c64:	4628      	mov	r0, r5
 8008c66:	f7f7 ff83 	bl	8000b70 <__aeabi_fsub>
 8008c6a:	f04f 4187 	mov.w	r1, #1132462080	; 0x43800000
 8008c6e:	f7f8 f889 	bl	8000d84 <__aeabi_fmul>
 8008c72:	4680      	mov	r8, r0
 8008c74:	f7f8 fa62 	bl	800113c <__aeabi_f2iz>
 8008c78:	f7f8 f830 	bl	8000cdc <__aeabi_i2f>
 8008c7c:	4601      	mov	r1, r0
 8008c7e:	9004      	str	r0, [sp, #16]
 8008c80:	4605      	mov	r5, r0
 8008c82:	4640      	mov	r0, r8
 8008c84:	f7f7 ff74 	bl	8000b70 <__aeabi_fsub>
 8008c88:	f04f 4187 	mov.w	r1, #1132462080	; 0x43800000
 8008c8c:	f7f8 f87a 	bl	8000d84 <__aeabi_fmul>
 8008c90:	2100      	movs	r1, #0
 8008c92:	9005      	str	r0, [sp, #20]
 8008c94:	f7f8 fa0a 	bl	80010ac <__aeabi_fcmpeq>
 8008c98:	b1e8      	cbz	r0, 8008cd6 <__ieee754_rem_pio2f+0x276>
 8008c9a:	2100      	movs	r1, #0
 8008c9c:	4628      	mov	r0, r5
 8008c9e:	f7f8 fa05 	bl	80010ac <__aeabi_fcmpeq>
 8008ca2:	2800      	cmp	r0, #0
 8008ca4:	bf14      	ite	ne
 8008ca6:	2301      	movne	r3, #1
 8008ca8:	2302      	moveq	r3, #2
 8008caa:	4a18      	ldr	r2, [pc, #96]	; (8008d0c <__ieee754_rem_pio2f+0x2ac>)
 8008cac:	4621      	mov	r1, r4
 8008cae:	9201      	str	r2, [sp, #4]
 8008cb0:	2202      	movs	r2, #2
 8008cb2:	a803      	add	r0, sp, #12
 8008cb4:	9200      	str	r2, [sp, #0]
 8008cb6:	4632      	mov	r2, r6
 8008cb8:	f000 f910 	bl	8008edc <__kernel_rem_pio2f>
 8008cbc:	2f00      	cmp	r7, #0
 8008cbe:	4606      	mov	r6, r0
 8008cc0:	f6bf aef8 	bge.w	8008ab4 <__ieee754_rem_pio2f+0x54>
 8008cc4:	6823      	ldr	r3, [r4, #0]
 8008cc6:	f103 4300 	add.w	r3, r3, #2147483648	; 0x80000000
 8008cca:	6023      	str	r3, [r4, #0]
 8008ccc:	6863      	ldr	r3, [r4, #4]
 8008cce:	f103 4300 	add.w	r3, r3, #2147483648	; 0x80000000
 8008cd2:	6063      	str	r3, [r4, #4]
 8008cd4:	e795      	b.n	8008c02 <__ieee754_rem_pio2f+0x1a2>
 8008cd6:	2303      	movs	r3, #3
 8008cd8:	e7e7      	b.n	8008caa <__ieee754_rem_pio2f+0x24a>
 8008cda:	bf00      	nop
 8008cdc:	3f490fd8 	.word	0x3f490fd8
 8008ce0:	4016cbe3 	.word	0x4016cbe3
 8008ce4:	3fc90f80 	.word	0x3fc90f80
 8008ce8:	3fc90fd0 	.word	0x3fc90fd0
 8008cec:	37354443 	.word	0x37354443
 8008cf0:	37354400 	.word	0x37354400
 8008cf4:	2e85a308 	.word	0x2e85a308
 8008cf8:	43490f80 	.word	0x43490f80
 8008cfc:	3f22f984 	.word	0x3f22f984
 8008d00:	08009ab4 	.word	0x08009ab4
 8008d04:	2e85a300 	.word	0x2e85a300
 8008d08:	248d3132 	.word	0x248d3132
 8008d0c:	08009b34 	.word	0x08009b34

08008d10 <__ieee754_sqrtf>:
 8008d10:	f020 4200 	bic.w	r2, r0, #2147483648	; 0x80000000
 8008d14:	f1b2 4fff 	cmp.w	r2, #2139095040	; 0x7f800000
 8008d18:	b570      	push	{r4, r5, r6, lr}
 8008d1a:	4603      	mov	r3, r0
 8008d1c:	4604      	mov	r4, r0
 8008d1e:	d309      	bcc.n	8008d34 <__ieee754_sqrtf+0x24>
 8008d20:	4601      	mov	r1, r0
 8008d22:	f7f8 f82f 	bl	8000d84 <__aeabi_fmul>
 8008d26:	4601      	mov	r1, r0
 8008d28:	4620      	mov	r0, r4
 8008d2a:	f7f7 ff23 	bl	8000b74 <__addsf3>
 8008d2e:	4604      	mov	r4, r0
 8008d30:	4620      	mov	r0, r4
 8008d32:	bd70      	pop	{r4, r5, r6, pc}
 8008d34:	2a00      	cmp	r2, #0
 8008d36:	d0fb      	beq.n	8008d30 <__ieee754_sqrtf+0x20>
 8008d38:	2800      	cmp	r0, #0
 8008d3a:	da06      	bge.n	8008d4a <__ieee754_sqrtf+0x3a>
 8008d3c:	4601      	mov	r1, r0
 8008d3e:	f7f7 ff17 	bl	8000b70 <__aeabi_fsub>
 8008d42:	4601      	mov	r1, r0
 8008d44:	f7f8 f8d2 	bl	8000eec <__aeabi_fdiv>
 8008d48:	e7f1      	b.n	8008d2e <__ieee754_sqrtf+0x1e>
 8008d4a:	f5b2 0f00 	cmp.w	r2, #8388608	; 0x800000
 8008d4e:	ea4f 54e0 	mov.w	r4, r0, asr #23
 8008d52:	d204      	bcs.n	8008d5e <__ieee754_sqrtf+0x4e>
 8008d54:	2200      	movs	r2, #0
 8008d56:	0219      	lsls	r1, r3, #8
 8008d58:	d529      	bpl.n	8008dae <__ieee754_sqrtf+0x9e>
 8008d5a:	3a01      	subs	r2, #1
 8008d5c:	1aa4      	subs	r4, r4, r2
 8008d5e:	3c7f      	subs	r4, #127	; 0x7f
 8008d60:	07e2      	lsls	r2, r4, #31
 8008d62:	f04f 0200 	mov.w	r2, #0
 8008d66:	ea4f 0164 	mov.w	r1, r4, asr #1
 8008d6a:	4616      	mov	r6, r2
 8008d6c:	f04f 0419 	mov.w	r4, #25
 8008d70:	f04f 7080 	mov.w	r0, #16777216	; 0x1000000
 8008d74:	f3c3 0316 	ubfx	r3, r3, #0, #23
 8008d78:	f443 0300 	orr.w	r3, r3, #8388608	; 0x800000
 8008d7c:	bf48      	it	mi
 8008d7e:	005b      	lslmi	r3, r3, #1
 8008d80:	005b      	lsls	r3, r3, #1
 8008d82:	1835      	adds	r5, r6, r0
 8008d84:	429d      	cmp	r5, r3
 8008d86:	bfde      	ittt	le
 8008d88:	182e      	addle	r6, r5, r0
 8008d8a:	1b5b      	suble	r3, r3, r5
 8008d8c:	1812      	addle	r2, r2, r0
 8008d8e:	3c01      	subs	r4, #1
 8008d90:	ea4f 0343 	mov.w	r3, r3, lsl #1
 8008d94:	ea4f 0050 	mov.w	r0, r0, lsr #1
 8008d98:	d1f3      	bne.n	8008d82 <__ieee754_sqrtf+0x72>
 8008d9a:	b113      	cbz	r3, 8008da2 <__ieee754_sqrtf+0x92>
 8008d9c:	3201      	adds	r2, #1
 8008d9e:	f022 0201 	bic.w	r2, r2, #1
 8008da2:	1054      	asrs	r4, r2, #1
 8008da4:	f104 547c 	add.w	r4, r4, #1056964608	; 0x3f000000
 8008da8:	eb04 54c1 	add.w	r4, r4, r1, lsl #23
 8008dac:	e7c0      	b.n	8008d30 <__ieee754_sqrtf+0x20>
 8008dae:	005b      	lsls	r3, r3, #1
 8008db0:	3201      	adds	r2, #1
 8008db2:	e7d0      	b.n	8008d56 <__ieee754_sqrtf+0x46>

08008db4 <__kernel_cosf>:
 8008db4:	e92d 43f8 	stmdb	sp!, {r3, r4, r5, r6, r7, r8, r9, lr}
 8008db8:	f020 4400 	bic.w	r4, r0, #2147483648	; 0x80000000
 8008dbc:	f1b4 5f48 	cmp.w	r4, #838860800	; 0x32000000
 8008dc0:	4606      	mov	r6, r0
 8008dc2:	460f      	mov	r7, r1
 8008dc4:	da03      	bge.n	8008dce <__kernel_cosf+0x1a>
 8008dc6:	f7f8 f9b9 	bl	800113c <__aeabi_f2iz>
 8008dca:	2800      	cmp	r0, #0
 8008dcc:	d070      	beq.n	8008eb0 <__kernel_cosf+0xfc>
 8008dce:	4631      	mov	r1, r6
 8008dd0:	4630      	mov	r0, r6
 8008dd2:	f7f7 ffd7 	bl	8000d84 <__aeabi_fmul>
 8008dd6:	4605      	mov	r5, r0
 8008dd8:	4937      	ldr	r1, [pc, #220]	; (8008eb8 <__kernel_cosf+0x104>)
 8008dda:	f7f7 ffd3 	bl	8000d84 <__aeabi_fmul>
 8008dde:	4937      	ldr	r1, [pc, #220]	; (8008ebc <__kernel_cosf+0x108>)
 8008de0:	f7f7 fec8 	bl	8000b74 <__addsf3>
 8008de4:	4629      	mov	r1, r5
 8008de6:	f7f7 ffcd 	bl	8000d84 <__aeabi_fmul>
 8008dea:	4935      	ldr	r1, [pc, #212]	; (8008ec0 <__kernel_cosf+0x10c>)
 8008dec:	f7f7 fec0 	bl	8000b70 <__aeabi_fsub>
 8008df0:	4629      	mov	r1, r5
 8008df2:	f7f7 ffc7 	bl	8000d84 <__aeabi_fmul>
 8008df6:	4933      	ldr	r1, [pc, #204]	; (8008ec4 <__kernel_cosf+0x110>)
 8008df8:	f7f7 febc 	bl	8000b74 <__addsf3>
 8008dfc:	4629      	mov	r1, r5
 8008dfe:	f7f7 ffc1 	bl	8000d84 <__aeabi_fmul>
 8008e02:	4931      	ldr	r1, [pc, #196]	; (8008ec8 <__kernel_cosf+0x114>)
 8008e04:	f7f7 feb4 	bl	8000b70 <__aeabi_fsub>
 8008e08:	4629      	mov	r1, r5
 8008e0a:	f7f7 ffbb 	bl	8000d84 <__aeabi_fmul>
 8008e0e:	492f      	ldr	r1, [pc, #188]	; (8008ecc <__kernel_cosf+0x118>)
 8008e10:	f7f7 feb0 	bl	8000b74 <__addsf3>
 8008e14:	4629      	mov	r1, r5
 8008e16:	f7f7 ffb5 	bl	8000d84 <__aeabi_fmul>
 8008e1a:	4b2d      	ldr	r3, [pc, #180]	; (8008ed0 <__kernel_cosf+0x11c>)
 8008e1c:	4680      	mov	r8, r0
 8008e1e:	429c      	cmp	r4, r3
 8008e20:	dc1d      	bgt.n	8008e5e <__kernel_cosf+0xaa>
 8008e22:	f04f 517c 	mov.w	r1, #1056964608	; 0x3f000000
 8008e26:	4628      	mov	r0, r5
 8008e28:	f7f7 ffac 	bl	8000d84 <__aeabi_fmul>
 8008e2c:	4641      	mov	r1, r8
 8008e2e:	4604      	mov	r4, r0
 8008e30:	4628      	mov	r0, r5
 8008e32:	f7f7 ffa7 	bl	8000d84 <__aeabi_fmul>
 8008e36:	4639      	mov	r1, r7
 8008e38:	4605      	mov	r5, r0
 8008e3a:	4630      	mov	r0, r6
 8008e3c:	f7f7 ffa2 	bl	8000d84 <__aeabi_fmul>
 8008e40:	4601      	mov	r1, r0
 8008e42:	4628      	mov	r0, r5
 8008e44:	f7f7 fe94 	bl	8000b70 <__aeabi_fsub>
 8008e48:	4601      	mov	r1, r0
 8008e4a:	4620      	mov	r0, r4
 8008e4c:	f7f7 fe90 	bl	8000b70 <__aeabi_fsub>
 8008e50:	4601      	mov	r1, r0
 8008e52:	f04f 507e 	mov.w	r0, #1065353216	; 0x3f800000
 8008e56:	f7f7 fe8b 	bl	8000b70 <__aeabi_fsub>
 8008e5a:	e8bd 83f8 	ldmia.w	sp!, {r3, r4, r5, r6, r7, r8, r9, pc}
 8008e5e:	4b1d      	ldr	r3, [pc, #116]	; (8008ed4 <__kernel_cosf+0x120>)
 8008e60:	f04f 507e 	mov.w	r0, #1065353216	; 0x3f800000
 8008e64:	429c      	cmp	r4, r3
 8008e66:	bfcc      	ite	gt
 8008e68:	4c1b      	ldrgt	r4, [pc, #108]	; (8008ed8 <__kernel_cosf+0x124>)
 8008e6a:	f104 447f 	addle.w	r4, r4, #4278190080	; 0xff000000
 8008e6e:	4621      	mov	r1, r4
 8008e70:	f7f7 fe7e 	bl	8000b70 <__aeabi_fsub>
 8008e74:	f04f 517c 	mov.w	r1, #1056964608	; 0x3f000000
 8008e78:	4681      	mov	r9, r0
 8008e7a:	4628      	mov	r0, r5
 8008e7c:	f7f7 ff82 	bl	8000d84 <__aeabi_fmul>
 8008e80:	4621      	mov	r1, r4
 8008e82:	f7f7 fe75 	bl	8000b70 <__aeabi_fsub>
 8008e86:	4641      	mov	r1, r8
 8008e88:	4604      	mov	r4, r0
 8008e8a:	4628      	mov	r0, r5
 8008e8c:	f7f7 ff7a 	bl	8000d84 <__aeabi_fmul>
 8008e90:	4639      	mov	r1, r7
 8008e92:	4605      	mov	r5, r0
 8008e94:	4630      	mov	r0, r6
 8008e96:	f7f7 ff75 	bl	8000d84 <__aeabi_fmul>
 8008e9a:	4601      	mov	r1, r0
 8008e9c:	4628      	mov	r0, r5
 8008e9e:	f7f7 fe67 	bl	8000b70 <__aeabi_fsub>
 8008ea2:	4601      	mov	r1, r0
 8008ea4:	4620      	mov	r0, r4
 8008ea6:	f7f7 fe63 	bl	8000b70 <__aeabi_fsub>
 8008eaa:	4601      	mov	r1, r0
 8008eac:	4648      	mov	r0, r9
 8008eae:	e7d2      	b.n	8008e56 <__kernel_cosf+0xa2>
 8008eb0:	f04f 507e 	mov.w	r0, #1065353216	; 0x3f800000
 8008eb4:	e8bd 83f8 	ldmia.w	sp!, {r3, r4, r5, r6, r7, r8, r9, pc}
 8008eb8:	ad47d74e 	.word	0xad47d74e
 8008ebc:	310f74f6 	.word	0x310f74f6
 8008ec0:	3493f27c 	.word	0x3493f27c
 8008ec4:	37d00d01 	.word	0x37d00d01
 8008ec8:	3ab60b61 	.word	0x3ab60b61
 8008ecc:	3d2aaaab 	.word	0x3d2aaaab
 8008ed0:	3e999999 	.word	0x3e999999
 8008ed4:	3f480000 	.word	0x3f480000
 8008ed8:	3e900000 	.word	0x3e900000

08008edc <__kernel_rem_pio2f>:
 8008edc:	e92d 4ff0 	stmdb	sp!, {r4, r5, r6, r7, r8, r9, sl, fp, lr}
 8008ee0:	b0d9      	sub	sp, #356	; 0x164
 8008ee2:	9304      	str	r3, [sp, #16]
 8008ee4:	9101      	str	r1, [sp, #4]
 8008ee6:	4bb4      	ldr	r3, [pc, #720]	; (80091b8 <__kernel_rem_pio2f+0x2dc>)
 8008ee8:	9962      	ldr	r1, [sp, #392]	; 0x188
 8008eea:	1ed4      	subs	r4, r2, #3
 8008eec:	f853 3021 	ldr.w	r3, [r3, r1, lsl #2]
 8008ef0:	2500      	movs	r5, #0
 8008ef2:	9302      	str	r3, [sp, #8]
 8008ef4:	9b04      	ldr	r3, [sp, #16]
 8008ef6:	f04f 0b00 	mov.w	fp, #0
 8008efa:	3b01      	subs	r3, #1
 8008efc:	9303      	str	r3, [sp, #12]
 8008efe:	2308      	movs	r3, #8
 8008f00:	fb94 f4f3 	sdiv	r4, r4, r3
 8008f04:	ea24 74e4 	bic.w	r4, r4, r4, asr #31
 8008f08:	1c66      	adds	r6, r4, #1
 8008f0a:	9b02      	ldr	r3, [sp, #8]
 8008f0c:	eba2 06c6 	sub.w	r6, r2, r6, lsl #3
 8008f10:	9a03      	ldr	r2, [sp, #12]
 8008f12:	9005      	str	r0, [sp, #20]
 8008f14:	eb03 0802 	add.w	r8, r3, r2
 8008f18:	9b63      	ldr	r3, [sp, #396]	; 0x18c
 8008f1a:	1aa7      	subs	r7, r4, r2
 8008f1c:	eb03 0987 	add.w	r9, r3, r7, lsl #2
 8008f20:	f10d 0a70 	add.w	sl, sp, #112	; 0x70
 8008f24:	4545      	cmp	r5, r8
 8008f26:	dd10      	ble.n	8008f4a <__kernel_rem_pio2f+0x6e>
 8008f28:	2500      	movs	r5, #0
 8008f2a:	f04f 0b00 	mov.w	fp, #0
 8008f2e:	f50d 7a88 	add.w	sl, sp, #272	; 0x110
 8008f32:	9b02      	ldr	r3, [sp, #8]
 8008f34:	429d      	cmp	r5, r3
 8008f36:	dc28      	bgt.n	8008f8a <__kernel_rem_pio2f+0xae>
 8008f38:	9b04      	ldr	r3, [sp, #16]
 8008f3a:	46d9      	mov	r9, fp
 8008f3c:	eb03 0805 	add.w	r8, r3, r5
 8008f40:	ab1c      	add	r3, sp, #112	; 0x70
 8008f42:	eb03 0888 	add.w	r8, r3, r8, lsl #2
 8008f46:	2700      	movs	r7, #0
 8008f48:	e018      	b.n	8008f7c <__kernel_rem_pio2f+0xa0>
 8008f4a:	42ef      	cmn	r7, r5
 8008f4c:	d407      	bmi.n	8008f5e <__kernel_rem_pio2f+0x82>
 8008f4e:	f859 0025 	ldr.w	r0, [r9, r5, lsl #2]
 8008f52:	f7f7 fec3 	bl	8000cdc <__aeabi_i2f>
 8008f56:	f84a 0025 	str.w	r0, [sl, r5, lsl #2]
 8008f5a:	3501      	adds	r5, #1
 8008f5c:	e7e2      	b.n	8008f24 <__kernel_rem_pio2f+0x48>
 8008f5e:	4658      	mov	r0, fp
 8008f60:	e7f9      	b.n	8008f56 <__kernel_rem_pio2f+0x7a>
 8008f62:	9b05      	ldr	r3, [sp, #20]
 8008f64:	f858 1d04 	ldr.w	r1, [r8, #-4]!
 8008f68:	f853 0027 	ldr.w	r0, [r3, r7, lsl #2]
 8008f6c:	f7f7 ff0a 	bl	8000d84 <__aeabi_fmul>
 8008f70:	4601      	mov	r1, r0
 8008f72:	4648      	mov	r0, r9
 8008f74:	f7f7 fdfe 	bl	8000b74 <__addsf3>
 8008f78:	4681      	mov	r9, r0
 8008f7a:	3701      	adds	r7, #1
 8008f7c:	9b03      	ldr	r3, [sp, #12]
 8008f7e:	429f      	cmp	r7, r3
 8008f80:	ddef      	ble.n	8008f62 <__kernel_rem_pio2f+0x86>
 8008f82:	f84a 9025 	str.w	r9, [sl, r5, lsl #2]
 8008f86:	3501      	adds	r5, #1
 8008f88:	e7d3      	b.n	8008f32 <__kernel_rem_pio2f+0x56>
 8008f8a:	9b02      	ldr	r3, [sp, #8]
 8008f8c:	aa08      	add	r2, sp, #32
 8008f8e:	eb02 0383 	add.w	r3, r2, r3, lsl #2
 8008f92:	9307      	str	r3, [sp, #28]
 8008f94:	9b63      	ldr	r3, [sp, #396]	; 0x18c
 8008f96:	9f02      	ldr	r7, [sp, #8]
 8008f98:	eb03 0384 	add.w	r3, r3, r4, lsl #2
 8008f9c:	9306      	str	r3, [sp, #24]
 8008f9e:	46ba      	mov	sl, r7
 8008fa0:	f04f 4887 	mov.w	r8, #1132462080	; 0x43800000
 8008fa4:	ab58      	add	r3, sp, #352	; 0x160
 8008fa6:	eb03 0387 	add.w	r3, r3, r7, lsl #2
 8008faa:	f853 4c50 	ldr.w	r4, [r3, #-80]
 8008fae:	ad07      	add	r5, sp, #28
 8008fb0:	f50d 7988 	add.w	r9, sp, #272	; 0x110
 8008fb4:	f1ba 0f00 	cmp.w	sl, #0
 8008fb8:	dc57      	bgt.n	800906a <__kernel_rem_pio2f+0x18e>
 8008fba:	4631      	mov	r1, r6
 8008fbc:	4620      	mov	r0, r4
 8008fbe:	f000 fbe7 	bl	8009790 <scalbnf>
 8008fc2:	f04f 5178 	mov.w	r1, #1040187392	; 0x3e000000
 8008fc6:	4604      	mov	r4, r0
 8008fc8:	f7f7 fedc 	bl	8000d84 <__aeabi_fmul>
 8008fcc:	f000 fba0 	bl	8009710 <floorf>
 8008fd0:	f04f 4182 	mov.w	r1, #1090519040	; 0x41000000
 8008fd4:	f7f7 fed6 	bl	8000d84 <__aeabi_fmul>
 8008fd8:	4601      	mov	r1, r0
 8008fda:	4620      	mov	r0, r4
 8008fdc:	f7f7 fdc8 	bl	8000b70 <__aeabi_fsub>
 8008fe0:	4604      	mov	r4, r0
 8008fe2:	f7f8 f8ab 	bl	800113c <__aeabi_f2iz>
 8008fe6:	4680      	mov	r8, r0
 8008fe8:	f7f7 fe78 	bl	8000cdc <__aeabi_i2f>
 8008fec:	4601      	mov	r1, r0
 8008fee:	4620      	mov	r0, r4
 8008ff0:	f7f7 fdbe 	bl	8000b70 <__aeabi_fsub>
 8008ff4:	2e00      	cmp	r6, #0
 8008ff6:	4604      	mov	r4, r0
 8008ff8:	dd55      	ble.n	80090a6 <__kernel_rem_pio2f+0x1ca>
 8008ffa:	1e7b      	subs	r3, r7, #1
 8008ffc:	aa08      	add	r2, sp, #32
 8008ffe:	f852 5023 	ldr.w	r5, [r2, r3, lsl #2]
 8009002:	f1c6 0208 	rsb	r2, r6, #8
 8009006:	fa45 f002 	asr.w	r0, r5, r2
 800900a:	4480      	add	r8, r0
 800900c:	4090      	lsls	r0, r2
 800900e:	1a2d      	subs	r5, r5, r0
 8009010:	aa08      	add	r2, sp, #32
 8009012:	f1c6 0007 	rsb	r0, r6, #7
 8009016:	f842 5023 	str.w	r5, [r2, r3, lsl #2]
 800901a:	4105      	asrs	r5, r0
 800901c:	2d00      	cmp	r5, #0
 800901e:	dd50      	ble.n	80090c2 <__kernel_rem_pio2f+0x1e6>
 8009020:	2200      	movs	r2, #0
 8009022:	4691      	mov	r9, r2
 8009024:	f108 0801 	add.w	r8, r8, #1
 8009028:	4297      	cmp	r7, r2
 800902a:	f300 8085 	bgt.w	8009138 <__kernel_rem_pio2f+0x25c>
 800902e:	2e00      	cmp	r6, #0
 8009030:	dd05      	ble.n	800903e <__kernel_rem_pio2f+0x162>
 8009032:	2e01      	cmp	r6, #1
 8009034:	f000 8097 	beq.w	8009166 <__kernel_rem_pio2f+0x28a>
 8009038:	2e02      	cmp	r6, #2
 800903a:	f000 809e 	beq.w	800917a <__kernel_rem_pio2f+0x29e>
 800903e:	2d02      	cmp	r5, #2
 8009040:	d13f      	bne.n	80090c2 <__kernel_rem_pio2f+0x1e6>
 8009042:	4621      	mov	r1, r4
 8009044:	f04f 507e 	mov.w	r0, #1065353216	; 0x3f800000
 8009048:	f7f7 fd92 	bl	8000b70 <__aeabi_fsub>
 800904c:	4604      	mov	r4, r0
 800904e:	f1b9 0f00 	cmp.w	r9, #0
 8009052:	d036      	beq.n	80090c2 <__kernel_rem_pio2f+0x1e6>
 8009054:	4631      	mov	r1, r6
 8009056:	f04f 507e 	mov.w	r0, #1065353216	; 0x3f800000
 800905a:	f000 fb99 	bl	8009790 <scalbnf>
 800905e:	4601      	mov	r1, r0
 8009060:	4620      	mov	r0, r4
 8009062:	f7f7 fd85 	bl	8000b70 <__aeabi_fsub>
 8009066:	4604      	mov	r4, r0
 8009068:	e02b      	b.n	80090c2 <__kernel_rem_pio2f+0x1e6>
 800906a:	f04f 516e 	mov.w	r1, #998244352	; 0x3b800000
 800906e:	4620      	mov	r0, r4
 8009070:	f7f7 fe88 	bl	8000d84 <__aeabi_fmul>
 8009074:	f7f8 f862 	bl	800113c <__aeabi_f2iz>
 8009078:	f7f7 fe30 	bl	8000cdc <__aeabi_i2f>
 800907c:	4641      	mov	r1, r8
 800907e:	4683      	mov	fp, r0
 8009080:	f7f7 fe80 	bl	8000d84 <__aeabi_fmul>
 8009084:	4601      	mov	r1, r0
 8009086:	4620      	mov	r0, r4
 8009088:	f7f7 fd72 	bl	8000b70 <__aeabi_fsub>
 800908c:	f7f8 f856 	bl	800113c <__aeabi_f2iz>
 8009090:	f10a 3aff 	add.w	sl, sl, #4294967295
 8009094:	f845 0f04 	str.w	r0, [r5, #4]!
 8009098:	f859 102a 	ldr.w	r1, [r9, sl, lsl #2]
 800909c:	4658      	mov	r0, fp
 800909e:	f7f7 fd69 	bl	8000b74 <__addsf3>
 80090a2:	4604      	mov	r4, r0
 80090a4:	e786      	b.n	8008fb4 <__kernel_rem_pio2f+0xd8>
 80090a6:	d105      	bne.n	80090b4 <__kernel_rem_pio2f+0x1d8>
 80090a8:	1e7b      	subs	r3, r7, #1
 80090aa:	aa08      	add	r2, sp, #32
 80090ac:	f852 5023 	ldr.w	r5, [r2, r3, lsl #2]
 80090b0:	122d      	asrs	r5, r5, #8
 80090b2:	e7b3      	b.n	800901c <__kernel_rem_pio2f+0x140>
 80090b4:	f04f 517c 	mov.w	r1, #1056964608	; 0x3f000000
 80090b8:	f7f8 f816 	bl	80010e8 <__aeabi_fcmpge>
 80090bc:	2800      	cmp	r0, #0
 80090be:	d139      	bne.n	8009134 <__kernel_rem_pio2f+0x258>
 80090c0:	4605      	mov	r5, r0
 80090c2:	2100      	movs	r1, #0
 80090c4:	4620      	mov	r0, r4
 80090c6:	f7f7 fff1 	bl	80010ac <__aeabi_fcmpeq>
 80090ca:	2800      	cmp	r0, #0
 80090cc:	f000 8098 	beq.w	8009200 <__kernel_rem_pio2f+0x324>
 80090d0:	1e7c      	subs	r4, r7, #1
 80090d2:	4623      	mov	r3, r4
 80090d4:	2200      	movs	r2, #0
 80090d6:	9902      	ldr	r1, [sp, #8]
 80090d8:	428b      	cmp	r3, r1
 80090da:	da55      	bge.n	8009188 <__kernel_rem_pio2f+0x2ac>
 80090dc:	2a00      	cmp	r2, #0
 80090de:	d16e      	bne.n	80091be <__kernel_rem_pio2f+0x2e2>
 80090e0:	2301      	movs	r3, #1
 80090e2:	f06f 0103 	mvn.w	r1, #3
 80090e6:	fb01 f203 	mul.w	r2, r1, r3
 80090ea:	9807      	ldr	r0, [sp, #28]
 80090ec:	5882      	ldr	r2, [r0, r2]
 80090ee:	2a00      	cmp	r2, #0
 80090f0:	d050      	beq.n	8009194 <__kernel_rem_pio2f+0x2b8>
 80090f2:	f06f 0803 	mvn.w	r8, #3
 80090f6:	9a04      	ldr	r2, [sp, #16]
 80090f8:	1c7d      	adds	r5, r7, #1
 80090fa:	19d4      	adds	r4, r2, r7
 80090fc:	aa58      	add	r2, sp, #352	; 0x160
 80090fe:	eb02 0484 	add.w	r4, r2, r4, lsl #2
 8009102:	3cf4      	subs	r4, #244	; 0xf4
 8009104:	441f      	add	r7, r3
 8009106:	f50d 7988 	add.w	r9, sp, #272	; 0x110
 800910a:	42bd      	cmp	r5, r7
 800910c:	f73f af47 	bgt.w	8008f9e <__kernel_rem_pio2f+0xc2>
 8009110:	9b06      	ldr	r3, [sp, #24]
 8009112:	f04f 0a00 	mov.w	sl, #0
 8009116:	f853 0025 	ldr.w	r0, [r3, r5, lsl #2]
 800911a:	f7f7 fddf 	bl	8000cdc <__aeabi_i2f>
 800911e:	f04f 0b00 	mov.w	fp, #0
 8009122:	f844 0f04 	str.w	r0, [r4, #4]!
 8009126:	9b03      	ldr	r3, [sp, #12]
 8009128:	459a      	cmp	sl, r3
 800912a:	dd35      	ble.n	8009198 <__kernel_rem_pio2f+0x2bc>
 800912c:	f849 b025 	str.w	fp, [r9, r5, lsl #2]
 8009130:	3501      	adds	r5, #1
 8009132:	e7ea      	b.n	800910a <__kernel_rem_pio2f+0x22e>
 8009134:	2502      	movs	r5, #2
 8009136:	e773      	b.n	8009020 <__kernel_rem_pio2f+0x144>
 8009138:	ab08      	add	r3, sp, #32
 800913a:	f853 3022 	ldr.w	r3, [r3, r2, lsl #2]
 800913e:	f1b9 0f00 	cmp.w	r9, #0
 8009142:	d109      	bne.n	8009158 <__kernel_rem_pio2f+0x27c>
 8009144:	b12b      	cbz	r3, 8009152 <__kernel_rem_pio2f+0x276>
 8009146:	f5c3 7380 	rsb	r3, r3, #256	; 0x100
 800914a:	a908      	add	r1, sp, #32
 800914c:	f841 3022 	str.w	r3, [r1, r2, lsl #2]
 8009150:	2301      	movs	r3, #1
 8009152:	3201      	adds	r2, #1
 8009154:	4699      	mov	r9, r3
 8009156:	e767      	b.n	8009028 <__kernel_rem_pio2f+0x14c>
 8009158:	f1c3 03ff 	rsb	r3, r3, #255	; 0xff
 800915c:	a908      	add	r1, sp, #32
 800915e:	f841 3022 	str.w	r3, [r1, r2, lsl #2]
 8009162:	464b      	mov	r3, r9
 8009164:	e7f5      	b.n	8009152 <__kernel_rem_pio2f+0x276>
 8009166:	1e7a      	subs	r2, r7, #1
 8009168:	ab08      	add	r3, sp, #32
 800916a:	f853 3022 	ldr.w	r3, [r3, r2, lsl #2]
 800916e:	f003 037f 	and.w	r3, r3, #127	; 0x7f
 8009172:	a908      	add	r1, sp, #32
 8009174:	f841 3022 	str.w	r3, [r1, r2, lsl #2]
 8009178:	e761      	b.n	800903e <__kernel_rem_pio2f+0x162>
 800917a:	1e7a      	subs	r2, r7, #1
 800917c:	ab08      	add	r3, sp, #32
 800917e:	f853 3022 	ldr.w	r3, [r3, r2, lsl #2]
 8009182:	f003 033f 	and.w	r3, r3, #63	; 0x3f
 8009186:	e7f4      	b.n	8009172 <__kernel_rem_pio2f+0x296>
 8009188:	a908      	add	r1, sp, #32
 800918a:	f851 1023 	ldr.w	r1, [r1, r3, lsl #2]
 800918e:	3b01      	subs	r3, #1
 8009190:	430a      	orrs	r2, r1
 8009192:	e7a0      	b.n	80090d6 <__kernel_rem_pio2f+0x1fa>
 8009194:	3301      	adds	r3, #1
 8009196:	e7a6      	b.n	80090e6 <__kernel_rem_pio2f+0x20a>
 8009198:	fb08 f30a 	mul.w	r3, r8, sl
 800919c:	9a05      	ldr	r2, [sp, #20]
 800919e:	58e0      	ldr	r0, [r4, r3]
 80091a0:	f852 102a 	ldr.w	r1, [r2, sl, lsl #2]
 80091a4:	f7f7 fdee 	bl	8000d84 <__aeabi_fmul>
 80091a8:	4601      	mov	r1, r0
 80091aa:	4658      	mov	r0, fp
 80091ac:	f7f7 fce2 	bl	8000b74 <__addsf3>
 80091b0:	f10a 0a01 	add.w	sl, sl, #1
 80091b4:	4683      	mov	fp, r0
 80091b6:	e7b6      	b.n	8009126 <__kernel_rem_pio2f+0x24a>
 80091b8:	08009e78 	.word	0x08009e78
 80091bc:	3c01      	subs	r4, #1
 80091be:	ab08      	add	r3, sp, #32
 80091c0:	f853 3024 	ldr.w	r3, [r3, r4, lsl #2]
 80091c4:	3e08      	subs	r6, #8
 80091c6:	2b00      	cmp	r3, #0
 80091c8:	d0f8      	beq.n	80091bc <__kernel_rem_pio2f+0x2e0>
 80091ca:	4631      	mov	r1, r6
 80091cc:	f04f 507e 	mov.w	r0, #1065353216	; 0x3f800000
 80091d0:	f000 fade 	bl	8009790 <scalbnf>
 80091d4:	46a1      	mov	r9, r4
 80091d6:	4682      	mov	sl, r0
 80091d8:	f04f 576e 	mov.w	r7, #998244352	; 0x3b800000
 80091dc:	ae44      	add	r6, sp, #272	; 0x110
 80091de:	f1b9 0f00 	cmp.w	r9, #0
 80091e2:	da3f      	bge.n	8009264 <__kernel_rem_pio2f+0x388>
 80091e4:	2700      	movs	r7, #0
 80091e6:	f04f 0b00 	mov.w	fp, #0
 80091ea:	4b82      	ldr	r3, [pc, #520]	; (80093f4 <__kernel_rem_pio2f+0x518>)
 80091ec:	aa30      	add	r2, sp, #192	; 0xc0
 80091ee:	ebb4 0a07 	subs.w	sl, r4, r7
 80091f2:	d462      	bmi.n	80092ba <__kernel_rem_pio2f+0x3de>
 80091f4:	a944      	add	r1, sp, #272	; 0x110
 80091f6:	eb01 0a8a 	add.w	sl, r1, sl, lsl #2
 80091fa:	46d9      	mov	r9, fp
 80091fc:	2600      	movs	r6, #0
 80091fe:	e053      	b.n	80092a8 <__kernel_rem_pio2f+0x3cc>
 8009200:	4271      	negs	r1, r6
 8009202:	4620      	mov	r0, r4
 8009204:	f000 fac4 	bl	8009790 <scalbnf>
 8009208:	f04f 4187 	mov.w	r1, #1132462080	; 0x43800000
 800920c:	4604      	mov	r4, r0
 800920e:	f7f7 ff6b 	bl	80010e8 <__aeabi_fcmpge>
 8009212:	b1f8      	cbz	r0, 8009254 <__kernel_rem_pio2f+0x378>
 8009214:	f04f 516e 	mov.w	r1, #998244352	; 0x3b800000
 8009218:	4620      	mov	r0, r4
 800921a:	f7f7 fdb3 	bl	8000d84 <__aeabi_fmul>
 800921e:	f7f7 ff8d 	bl	800113c <__aeabi_f2iz>
 8009222:	f7f7 fd5b 	bl	8000cdc <__aeabi_i2f>
 8009226:	f04f 4187 	mov.w	r1, #1132462080	; 0x43800000
 800922a:	4681      	mov	r9, r0
 800922c:	f7f7 fdaa 	bl	8000d84 <__aeabi_fmul>
 8009230:	4601      	mov	r1, r0
 8009232:	4620      	mov	r0, r4
 8009234:	f7f7 fc9c 	bl	8000b70 <__aeabi_fsub>
 8009238:	f7f7 ff80 	bl	800113c <__aeabi_f2iz>
 800923c:	ab08      	add	r3, sp, #32
 800923e:	f843 0027 	str.w	r0, [r3, r7, lsl #2]
 8009242:	4648      	mov	r0, r9
 8009244:	f7f7 ff7a 	bl	800113c <__aeabi_f2iz>
 8009248:	1c7c      	adds	r4, r7, #1
 800924a:	ab08      	add	r3, sp, #32
 800924c:	3608      	adds	r6, #8
 800924e:	f843 0024 	str.w	r0, [r3, r4, lsl #2]
 8009252:	e7ba      	b.n	80091ca <__kernel_rem_pio2f+0x2ee>
 8009254:	4620      	mov	r0, r4
 8009256:	f7f7 ff71 	bl	800113c <__aeabi_f2iz>
 800925a:	ab08      	add	r3, sp, #32
 800925c:	f843 0027 	str.w	r0, [r3, r7, lsl #2]
 8009260:	463c      	mov	r4, r7
 8009262:	e7b2      	b.n	80091ca <__kernel_rem_pio2f+0x2ee>
 8009264:	ab08      	add	r3, sp, #32
 8009266:	f853 0029 	ldr.w	r0, [r3, r9, lsl #2]
 800926a:	f7f7 fd37 	bl	8000cdc <__aeabi_i2f>
 800926e:	4651      	mov	r1, sl
 8009270:	f7f7 fd88 	bl	8000d84 <__aeabi_fmul>
 8009274:	4639      	mov	r1, r7
 8009276:	f846 0029 	str.w	r0, [r6, r9, lsl #2]
 800927a:	4650      	mov	r0, sl
 800927c:	f7f7 fd82 	bl	8000d84 <__aeabi_fmul>
 8009280:	f109 39ff 	add.w	r9, r9, #4294967295
 8009284:	4682      	mov	sl, r0
 8009286:	e7aa      	b.n	80091de <__kernel_rem_pio2f+0x302>
 8009288:	f853 0026 	ldr.w	r0, [r3, r6, lsl #2]
 800928c:	f85a 1026 	ldr.w	r1, [sl, r6, lsl #2]
 8009290:	9204      	str	r2, [sp, #16]
 8009292:	9303      	str	r3, [sp, #12]
 8009294:	f7f7 fd76 	bl	8000d84 <__aeabi_fmul>
 8009298:	4601      	mov	r1, r0
 800929a:	4648      	mov	r0, r9
 800929c:	f7f7 fc6a 	bl	8000b74 <__addsf3>
 80092a0:	4681      	mov	r9, r0
 80092a2:	9a04      	ldr	r2, [sp, #16]
 80092a4:	9b03      	ldr	r3, [sp, #12]
 80092a6:	3601      	adds	r6, #1
 80092a8:	9902      	ldr	r1, [sp, #8]
 80092aa:	428e      	cmp	r6, r1
 80092ac:	dc01      	bgt.n	80092b2 <__kernel_rem_pio2f+0x3d6>
 80092ae:	42be      	cmp	r6, r7
 80092b0:	ddea      	ble.n	8009288 <__kernel_rem_pio2f+0x3ac>
 80092b2:	f842 9027 	str.w	r9, [r2, r7, lsl #2]
 80092b6:	3701      	adds	r7, #1
 80092b8:	e799      	b.n	80091ee <__kernel_rem_pio2f+0x312>
 80092ba:	9b62      	ldr	r3, [sp, #392]	; 0x188
 80092bc:	2b03      	cmp	r3, #3
 80092be:	d826      	bhi.n	800930e <__kernel_rem_pio2f+0x432>
 80092c0:	e8df f003 	tbb	[pc, r3]
 80092c4:	2a02021c 	.word	0x2a02021c
 80092c8:	4626      	mov	r6, r4
 80092ca:	2000      	movs	r0, #0
 80092cc:	af30      	add	r7, sp, #192	; 0xc0
 80092ce:	2e00      	cmp	r6, #0
 80092d0:	da40      	bge.n	8009354 <__kernel_rem_pio2f+0x478>
 80092d2:	2d00      	cmp	r5, #0
 80092d4:	d044      	beq.n	8009360 <__kernel_rem_pio2f+0x484>
 80092d6:	f100 4300 	add.w	r3, r0, #2147483648	; 0x80000000
 80092da:	9a01      	ldr	r2, [sp, #4]
 80092dc:	af58      	add	r7, sp, #352	; 0x160
 80092de:	4601      	mov	r1, r0
 80092e0:	6013      	str	r3, [r2, #0]
 80092e2:	f857 0da0 	ldr.w	r0, [r7, #-160]!
 80092e6:	f7f7 fc43 	bl	8000b70 <__aeabi_fsub>
 80092ea:	2601      	movs	r6, #1
 80092ec:	42b4      	cmp	r4, r6
 80092ee:	da39      	bge.n	8009364 <__kernel_rem_pio2f+0x488>
 80092f0:	b10d      	cbz	r5, 80092f6 <__kernel_rem_pio2f+0x41a>
 80092f2:	f100 4000 	add.w	r0, r0, #2147483648	; 0x80000000
 80092f6:	9b01      	ldr	r3, [sp, #4]
 80092f8:	6058      	str	r0, [r3, #4]
 80092fa:	e008      	b.n	800930e <__kernel_rem_pio2f+0x432>
 80092fc:	2000      	movs	r0, #0
 80092fe:	ae30      	add	r6, sp, #192	; 0xc0
 8009300:	2c00      	cmp	r4, #0
 8009302:	da21      	bge.n	8009348 <__kernel_rem_pio2f+0x46c>
 8009304:	b10d      	cbz	r5, 800930a <__kernel_rem_pio2f+0x42e>
 8009306:	f100 4000 	add.w	r0, r0, #2147483648	; 0x80000000
 800930a:	9b01      	ldr	r3, [sp, #4]
 800930c:	6018      	str	r0, [r3, #0]
 800930e:	f008 0007 	and.w	r0, r8, #7
 8009312:	b059      	add	sp, #356	; 0x164
 8009314:	e8bd 8ff0 	ldmia.w	sp!, {r4, r5, r6, r7, r8, r9, sl, fp, pc}
 8009318:	f10d 0ac0 	add.w	sl, sp, #192	; 0xc0
 800931c:	eb0a 0684 	add.w	r6, sl, r4, lsl #2
 8009320:	4637      	mov	r7, r6
 8009322:	46a1      	mov	r9, r4
 8009324:	f1b9 0f00 	cmp.w	r9, #0
 8009328:	dc22      	bgt.n	8009370 <__kernel_rem_pio2f+0x494>
 800932a:	4627      	mov	r7, r4
 800932c:	2f01      	cmp	r7, #1
 800932e:	dc38      	bgt.n	80093a2 <__kernel_rem_pio2f+0x4c6>
 8009330:	2000      	movs	r0, #0
 8009332:	2c01      	cmp	r4, #1
 8009334:	dc4c      	bgt.n	80093d0 <__kernel_rem_pio2f+0x4f4>
 8009336:	2d00      	cmp	r5, #0
 8009338:	d150      	bne.n	80093dc <__kernel_rem_pio2f+0x500>
 800933a:	9b30      	ldr	r3, [sp, #192]	; 0xc0
 800933c:	9a01      	ldr	r2, [sp, #4]
 800933e:	6013      	str	r3, [r2, #0]
 8009340:	9b31      	ldr	r3, [sp, #196]	; 0xc4
 8009342:	6053      	str	r3, [r2, #4]
 8009344:	6090      	str	r0, [r2, #8]
 8009346:	e7e2      	b.n	800930e <__kernel_rem_pio2f+0x432>
 8009348:	f856 1024 	ldr.w	r1, [r6, r4, lsl #2]
 800934c:	f7f7 fc12 	bl	8000b74 <__addsf3>
 8009350:	3c01      	subs	r4, #1
 8009352:	e7d5      	b.n	8009300 <__kernel_rem_pio2f+0x424>
 8009354:	f857 1026 	ldr.w	r1, [r7, r6, lsl #2]
 8009358:	f7f7 fc0c 	bl	8000b74 <__addsf3>
 800935c:	3e01      	subs	r6, #1
 800935e:	e7b6      	b.n	80092ce <__kernel_rem_pio2f+0x3f2>
 8009360:	4603      	mov	r3, r0
 8009362:	e7ba      	b.n	80092da <__kernel_rem_pio2f+0x3fe>
 8009364:	f857 1026 	ldr.w	r1, [r7, r6, lsl #2]
 8009368:	f7f7 fc04 	bl	8000b74 <__addsf3>
 800936c:	3601      	adds	r6, #1
 800936e:	e7bd      	b.n	80092ec <__kernel_rem_pio2f+0x410>
 8009370:	683b      	ldr	r3, [r7, #0]
 8009372:	f857 2c04 	ldr.w	r2, [r7, #-4]
 8009376:	4619      	mov	r1, r3
 8009378:	4610      	mov	r0, r2
 800937a:	9303      	str	r3, [sp, #12]
 800937c:	9202      	str	r2, [sp, #8]
 800937e:	f7f7 fbf9 	bl	8000b74 <__addsf3>
 8009382:	9a02      	ldr	r2, [sp, #8]
 8009384:	4601      	mov	r1, r0
 8009386:	4683      	mov	fp, r0
 8009388:	4610      	mov	r0, r2
 800938a:	f7f7 fbf1 	bl	8000b70 <__aeabi_fsub>
 800938e:	9b03      	ldr	r3, [sp, #12]
 8009390:	f109 39ff 	add.w	r9, r9, #4294967295
 8009394:	4619      	mov	r1, r3
 8009396:	f7f7 fbed 	bl	8000b74 <__addsf3>
 800939a:	6038      	str	r0, [r7, #0]
 800939c:	f847 bd04 	str.w	fp, [r7, #-4]!
 80093a0:	e7c0      	b.n	8009324 <__kernel_rem_pio2f+0x448>
 80093a2:	f856 3c04 	ldr.w	r3, [r6, #-4]
 80093a6:	f8d6 b000 	ldr.w	fp, [r6]
 80093aa:	4618      	mov	r0, r3
 80093ac:	4659      	mov	r1, fp
 80093ae:	9302      	str	r3, [sp, #8]
 80093b0:	f7f7 fbe0 	bl	8000b74 <__addsf3>
 80093b4:	9b02      	ldr	r3, [sp, #8]
 80093b6:	4601      	mov	r1, r0
 80093b8:	4681      	mov	r9, r0
 80093ba:	4618      	mov	r0, r3
 80093bc:	f7f7 fbd8 	bl	8000b70 <__aeabi_fsub>
 80093c0:	4659      	mov	r1, fp
 80093c2:	f7f7 fbd7 	bl	8000b74 <__addsf3>
 80093c6:	3f01      	subs	r7, #1
 80093c8:	6030      	str	r0, [r6, #0]
 80093ca:	f846 9d04 	str.w	r9, [r6, #-4]!
 80093ce:	e7ad      	b.n	800932c <__kernel_rem_pio2f+0x450>
 80093d0:	f85a 1024 	ldr.w	r1, [sl, r4, lsl #2]
 80093d4:	f7f7 fbce 	bl	8000b74 <__addsf3>
 80093d8:	3c01      	subs	r4, #1
 80093da:	e7aa      	b.n	8009332 <__kernel_rem_pio2f+0x456>
 80093dc:	9b30      	ldr	r3, [sp, #192]	; 0xc0
 80093de:	9a01      	ldr	r2, [sp, #4]
 80093e0:	f103 4300 	add.w	r3, r3, #2147483648	; 0x80000000
 80093e4:	6013      	str	r3, [r2, #0]
 80093e6:	9b31      	ldr	r3, [sp, #196]	; 0xc4
 80093e8:	f100 4000 	add.w	r0, r0, #2147483648	; 0x80000000
 80093ec:	f103 4300 	add.w	r3, r3, #2147483648	; 0x80000000
 80093f0:	6053      	str	r3, [r2, #4]
 80093f2:	e7a7      	b.n	8009344 <__kernel_rem_pio2f+0x468>
 80093f4:	08009e4c 	.word	0x08009e4c

080093f8 <__kernel_sinf>:
 80093f8:	e92d 43f8 	stmdb	sp!, {r3, r4, r5, r6, r7, r8, r9, lr}
 80093fc:	f020 4300 	bic.w	r3, r0, #2147483648	; 0x80000000
 8009400:	f1b3 5f48 	cmp.w	r3, #838860800	; 0x32000000
 8009404:	4604      	mov	r4, r0
 8009406:	460f      	mov	r7, r1
 8009408:	4691      	mov	r9, r2
 800940a:	da03      	bge.n	8009414 <__kernel_sinf+0x1c>
 800940c:	f7f7 fe96 	bl	800113c <__aeabi_f2iz>
 8009410:	2800      	cmp	r0, #0
 8009412:	d035      	beq.n	8009480 <__kernel_sinf+0x88>
 8009414:	4621      	mov	r1, r4
 8009416:	4620      	mov	r0, r4
 8009418:	f7f7 fcb4 	bl	8000d84 <__aeabi_fmul>
 800941c:	4605      	mov	r5, r0
 800941e:	4601      	mov	r1, r0
 8009420:	4620      	mov	r0, r4
 8009422:	f7f7 fcaf 	bl	8000d84 <__aeabi_fmul>
 8009426:	4929      	ldr	r1, [pc, #164]	; (80094cc <__kernel_sinf+0xd4>)
 8009428:	4606      	mov	r6, r0
 800942a:	4628      	mov	r0, r5
 800942c:	f7f7 fcaa 	bl	8000d84 <__aeabi_fmul>
 8009430:	4927      	ldr	r1, [pc, #156]	; (80094d0 <__kernel_sinf+0xd8>)
 8009432:	f7f7 fb9d 	bl	8000b70 <__aeabi_fsub>
 8009436:	4629      	mov	r1, r5
 8009438:	f7f7 fca4 	bl	8000d84 <__aeabi_fmul>
 800943c:	4925      	ldr	r1, [pc, #148]	; (80094d4 <__kernel_sinf+0xdc>)
 800943e:	f7f7 fb99 	bl	8000b74 <__addsf3>
 8009442:	4629      	mov	r1, r5
 8009444:	f7f7 fc9e 	bl	8000d84 <__aeabi_fmul>
 8009448:	4923      	ldr	r1, [pc, #140]	; (80094d8 <__kernel_sinf+0xe0>)
 800944a:	f7f7 fb91 	bl	8000b70 <__aeabi_fsub>
 800944e:	4629      	mov	r1, r5
 8009450:	f7f7 fc98 	bl	8000d84 <__aeabi_fmul>
 8009454:	4921      	ldr	r1, [pc, #132]	; (80094dc <__kernel_sinf+0xe4>)
 8009456:	f7f7 fb8d 	bl	8000b74 <__addsf3>
 800945a:	4680      	mov	r8, r0
 800945c:	f1b9 0f00 	cmp.w	r9, #0
 8009460:	d111      	bne.n	8009486 <__kernel_sinf+0x8e>
 8009462:	4601      	mov	r1, r0
 8009464:	4628      	mov	r0, r5
 8009466:	f7f7 fc8d 	bl	8000d84 <__aeabi_fmul>
 800946a:	491d      	ldr	r1, [pc, #116]	; (80094e0 <__kernel_sinf+0xe8>)
 800946c:	f7f7 fb80 	bl	8000b70 <__aeabi_fsub>
 8009470:	4631      	mov	r1, r6
 8009472:	f7f7 fc87 	bl	8000d84 <__aeabi_fmul>
 8009476:	4601      	mov	r1, r0
 8009478:	4620      	mov	r0, r4
 800947a:	f7f7 fb7b 	bl	8000b74 <__addsf3>
 800947e:	4604      	mov	r4, r0
 8009480:	4620      	mov	r0, r4
 8009482:	e8bd 83f8 	ldmia.w	sp!, {r3, r4, r5, r6, r7, r8, r9, pc}
 8009486:	f04f 517c 	mov.w	r1, #1056964608	; 0x3f000000
 800948a:	4638      	mov	r0, r7
 800948c:	f7f7 fc7a 	bl	8000d84 <__aeabi_fmul>
 8009490:	4641      	mov	r1, r8
 8009492:	4681      	mov	r9, r0
 8009494:	4630      	mov	r0, r6
 8009496:	f7f7 fc75 	bl	8000d84 <__aeabi_fmul>
 800949a:	4601      	mov	r1, r0
 800949c:	4648      	mov	r0, r9
 800949e:	f7f7 fb67 	bl	8000b70 <__aeabi_fsub>
 80094a2:	4629      	mov	r1, r5
 80094a4:	f7f7 fc6e 	bl	8000d84 <__aeabi_fmul>
 80094a8:	4639      	mov	r1, r7
 80094aa:	f7f7 fb61 	bl	8000b70 <__aeabi_fsub>
 80094ae:	490c      	ldr	r1, [pc, #48]	; (80094e0 <__kernel_sinf+0xe8>)
 80094b0:	4605      	mov	r5, r0
 80094b2:	4630      	mov	r0, r6
 80094b4:	f7f7 fc66 	bl	8000d84 <__aeabi_fmul>
 80094b8:	4601      	mov	r1, r0
 80094ba:	4628      	mov	r0, r5
 80094bc:	f7f7 fb5a 	bl	8000b74 <__addsf3>
 80094c0:	4601      	mov	r1, r0
 80094c2:	4620      	mov	r0, r4
 80094c4:	f7f7 fb54 	bl	8000b70 <__aeabi_fsub>
 80094c8:	e7d9      	b.n	800947e <__kernel_sinf+0x86>
 80094ca:	bf00      	nop
 80094cc:	2f2ec9d3 	.word	0x2f2ec9d3
 80094d0:	32d72f34 	.word	0x32d72f34
 80094d4:	3638ef1b 	.word	0x3638ef1b
 80094d8:	39500d01 	.word	0x39500d01
 80094dc:	3c088889 	.word	0x3c088889
 80094e0:	3e2aaaab 	.word	0x3e2aaaab

080094e4 <matherr>:
 80094e4:	2000      	movs	r0, #0
 80094e6:	4770      	bx	lr

080094e8 <atanf>:
 80094e8:	e92d 41f0 	stmdb	sp!, {r4, r5, r6, r7, r8, lr}
 80094ec:	f020 4500 	bic.w	r5, r0, #2147483648	; 0x80000000
 80094f0:	f1b5 4fa1 	cmp.w	r5, #1350565888	; 0x50800000
 80094f4:	4604      	mov	r4, r0
 80094f6:	4607      	mov	r7, r0
 80094f8:	db0e      	blt.n	8009518 <atanf+0x30>
 80094fa:	f1b5 4fff 	cmp.w	r5, #2139095040	; 0x7f800000
 80094fe:	dd04      	ble.n	800950a <atanf+0x22>
 8009500:	4601      	mov	r1, r0
 8009502:	f7f7 fb37 	bl	8000b74 <__addsf3>
 8009506:	4604      	mov	r4, r0
 8009508:	e003      	b.n	8009512 <atanf+0x2a>
 800950a:	2800      	cmp	r0, #0
 800950c:	f300 80d2 	bgt.w	80096b4 <atanf+0x1cc>
 8009510:	4c69      	ldr	r4, [pc, #420]	; (80096b8 <atanf+0x1d0>)
 8009512:	4620      	mov	r0, r4
 8009514:	e8bd 81f0 	ldmia.w	sp!, {r4, r5, r6, r7, r8, pc}
 8009518:	4b68      	ldr	r3, [pc, #416]	; (80096bc <atanf+0x1d4>)
 800951a:	429d      	cmp	r5, r3
 800951c:	dc0e      	bgt.n	800953c <atanf+0x54>
 800951e:	f1b5 5f44 	cmp.w	r5, #822083584	; 0x31000000
 8009522:	da08      	bge.n	8009536 <atanf+0x4e>
 8009524:	4966      	ldr	r1, [pc, #408]	; (80096c0 <atanf+0x1d8>)
 8009526:	f7f7 fb25 	bl	8000b74 <__addsf3>
 800952a:	f04f 517e 	mov.w	r1, #1065353216	; 0x3f800000
 800952e:	f7f7 fde5 	bl	80010fc <__aeabi_fcmpgt>
 8009532:	2800      	cmp	r0, #0
 8009534:	d1ed      	bne.n	8009512 <atanf+0x2a>
 8009536:	f04f 36ff 	mov.w	r6, #4294967295
 800953a:	e01c      	b.n	8009576 <atanf+0x8e>
 800953c:	f000 f8e4 	bl	8009708 <fabsf>
 8009540:	4b60      	ldr	r3, [pc, #384]	; (80096c4 <atanf+0x1dc>)
 8009542:	4604      	mov	r4, r0
 8009544:	429d      	cmp	r5, r3
 8009546:	dc7c      	bgt.n	8009642 <atanf+0x15a>
 8009548:	f5a3 03d0 	sub.w	r3, r3, #6815744	; 0x680000
 800954c:	429d      	cmp	r5, r3
 800954e:	dc67      	bgt.n	8009620 <atanf+0x138>
 8009550:	4601      	mov	r1, r0
 8009552:	f7f7 fb0f 	bl	8000b74 <__addsf3>
 8009556:	f04f 517e 	mov.w	r1, #1065353216	; 0x3f800000
 800955a:	f7f7 fb09 	bl	8000b70 <__aeabi_fsub>
 800955e:	f04f 4180 	mov.w	r1, #1073741824	; 0x40000000
 8009562:	4605      	mov	r5, r0
 8009564:	4620      	mov	r0, r4
 8009566:	f7f7 fb05 	bl	8000b74 <__addsf3>
 800956a:	4601      	mov	r1, r0
 800956c:	4628      	mov	r0, r5
 800956e:	f7f7 fcbd 	bl	8000eec <__aeabi_fdiv>
 8009572:	2600      	movs	r6, #0
 8009574:	4604      	mov	r4, r0
 8009576:	4621      	mov	r1, r4
 8009578:	4620      	mov	r0, r4
 800957a:	f7f7 fc03 	bl	8000d84 <__aeabi_fmul>
 800957e:	4601      	mov	r1, r0
 8009580:	4680      	mov	r8, r0
 8009582:	f7f7 fbff 	bl	8000d84 <__aeabi_fmul>
 8009586:	4605      	mov	r5, r0
 8009588:	494f      	ldr	r1, [pc, #316]	; (80096c8 <atanf+0x1e0>)
 800958a:	f7f7 fbfb 	bl	8000d84 <__aeabi_fmul>
 800958e:	494f      	ldr	r1, [pc, #316]	; (80096cc <atanf+0x1e4>)
 8009590:	f7f7 faf0 	bl	8000b74 <__addsf3>
 8009594:	4629      	mov	r1, r5
 8009596:	f7f7 fbf5 	bl	8000d84 <__aeabi_fmul>
 800959a:	494d      	ldr	r1, [pc, #308]	; (80096d0 <atanf+0x1e8>)
 800959c:	f7f7 faea 	bl	8000b74 <__addsf3>
 80095a0:	4629      	mov	r1, r5
 80095a2:	f7f7 fbef 	bl	8000d84 <__aeabi_fmul>
 80095a6:	494b      	ldr	r1, [pc, #300]	; (80096d4 <atanf+0x1ec>)
 80095a8:	f7f7 fae4 	bl	8000b74 <__addsf3>
 80095ac:	4629      	mov	r1, r5
 80095ae:	f7f7 fbe9 	bl	8000d84 <__aeabi_fmul>
 80095b2:	4949      	ldr	r1, [pc, #292]	; (80096d8 <atanf+0x1f0>)
 80095b4:	f7f7 fade 	bl	8000b74 <__addsf3>
 80095b8:	4629      	mov	r1, r5
 80095ba:	f7f7 fbe3 	bl	8000d84 <__aeabi_fmul>
 80095be:	4947      	ldr	r1, [pc, #284]	; (80096dc <atanf+0x1f4>)
 80095c0:	f7f7 fad8 	bl	8000b74 <__addsf3>
 80095c4:	4641      	mov	r1, r8
 80095c6:	f7f7 fbdd 	bl	8000d84 <__aeabi_fmul>
 80095ca:	4945      	ldr	r1, [pc, #276]	; (80096e0 <atanf+0x1f8>)
 80095cc:	4680      	mov	r8, r0
 80095ce:	4628      	mov	r0, r5
 80095d0:	f7f7 fbd8 	bl	8000d84 <__aeabi_fmul>
 80095d4:	4943      	ldr	r1, [pc, #268]	; (80096e4 <atanf+0x1fc>)
 80095d6:	f7f7 facb 	bl	8000b70 <__aeabi_fsub>
 80095da:	4629      	mov	r1, r5
 80095dc:	f7f7 fbd2 	bl	8000d84 <__aeabi_fmul>
 80095e0:	4941      	ldr	r1, [pc, #260]	; (80096e8 <atanf+0x200>)
 80095e2:	f7f7 fac5 	bl	8000b70 <__aeabi_fsub>
 80095e6:	4629      	mov	r1, r5
 80095e8:	f7f7 fbcc 	bl	8000d84 <__aeabi_fmul>
 80095ec:	493f      	ldr	r1, [pc, #252]	; (80096ec <atanf+0x204>)
 80095ee:	f7f7 fabf 	bl	8000b70 <__aeabi_fsub>
 80095f2:	4629      	mov	r1, r5
 80095f4:	f7f7 fbc6 	bl	8000d84 <__aeabi_fmul>
 80095f8:	493d      	ldr	r1, [pc, #244]	; (80096f0 <atanf+0x208>)
 80095fa:	f7f7 fab9 	bl	8000b70 <__aeabi_fsub>
 80095fe:	4629      	mov	r1, r5
 8009600:	f7f7 fbc0 	bl	8000d84 <__aeabi_fmul>
 8009604:	1c73      	adds	r3, r6, #1
 8009606:	4601      	mov	r1, r0
 8009608:	4640      	mov	r0, r8
 800960a:	d139      	bne.n	8009680 <atanf+0x198>
 800960c:	f7f7 fab2 	bl	8000b74 <__addsf3>
 8009610:	4621      	mov	r1, r4
 8009612:	f7f7 fbb7 	bl	8000d84 <__aeabi_fmul>
 8009616:	4601      	mov	r1, r0
 8009618:	4620      	mov	r0, r4
 800961a:	f7f7 faa9 	bl	8000b70 <__aeabi_fsub>
 800961e:	e772      	b.n	8009506 <atanf+0x1e>
 8009620:	f04f 517e 	mov.w	r1, #1065353216	; 0x3f800000
 8009624:	f7f7 faa4 	bl	8000b70 <__aeabi_fsub>
 8009628:	f04f 517e 	mov.w	r1, #1065353216	; 0x3f800000
 800962c:	4605      	mov	r5, r0
 800962e:	4620      	mov	r0, r4
 8009630:	f7f7 faa0 	bl	8000b74 <__addsf3>
 8009634:	4601      	mov	r1, r0
 8009636:	4628      	mov	r0, r5
 8009638:	f7f7 fc58 	bl	8000eec <__aeabi_fdiv>
 800963c:	2601      	movs	r6, #1
 800963e:	4604      	mov	r4, r0
 8009640:	e799      	b.n	8009576 <atanf+0x8e>
 8009642:	4b2c      	ldr	r3, [pc, #176]	; (80096f4 <atanf+0x20c>)
 8009644:	429d      	cmp	r5, r3
 8009646:	dc14      	bgt.n	8009672 <atanf+0x18a>
 8009648:	f04f 517f 	mov.w	r1, #1069547520	; 0x3fc00000
 800964c:	f7f7 fa90 	bl	8000b70 <__aeabi_fsub>
 8009650:	f04f 517f 	mov.w	r1, #1069547520	; 0x3fc00000
 8009654:	4605      	mov	r5, r0
 8009656:	4620      	mov	r0, r4
 8009658:	f7f7 fb94 	bl	8000d84 <__aeabi_fmul>
 800965c:	f04f 517e 	mov.w	r1, #1065353216	; 0x3f800000
 8009660:	f7f7 fa88 	bl	8000b74 <__addsf3>
 8009664:	4601      	mov	r1, r0
 8009666:	4628      	mov	r0, r5
 8009668:	f7f7 fc40 	bl	8000eec <__aeabi_fdiv>
 800966c:	2602      	movs	r6, #2
 800966e:	4604      	mov	r4, r0
 8009670:	e781      	b.n	8009576 <atanf+0x8e>
 8009672:	4601      	mov	r1, r0
 8009674:	4820      	ldr	r0, [pc, #128]	; (80096f8 <atanf+0x210>)
 8009676:	f7f7 fc39 	bl	8000eec <__aeabi_fdiv>
 800967a:	2603      	movs	r6, #3
 800967c:	4604      	mov	r4, r0
 800967e:	e77a      	b.n	8009576 <atanf+0x8e>
 8009680:	f7f7 fa78 	bl	8000b74 <__addsf3>
 8009684:	4621      	mov	r1, r4
 8009686:	f7f7 fb7d 	bl	8000d84 <__aeabi_fmul>
 800968a:	4b1c      	ldr	r3, [pc, #112]	; (80096fc <atanf+0x214>)
 800968c:	f853 1026 	ldr.w	r1, [r3, r6, lsl #2]
 8009690:	f7f7 fa6e 	bl	8000b70 <__aeabi_fsub>
 8009694:	4621      	mov	r1, r4
 8009696:	f7f7 fa6b 	bl	8000b70 <__aeabi_fsub>
 800969a:	4b19      	ldr	r3, [pc, #100]	; (8009700 <atanf+0x218>)
 800969c:	4601      	mov	r1, r0
 800969e:	f853 0026 	ldr.w	r0, [r3, r6, lsl #2]
 80096a2:	f7f7 fa65 	bl	8000b70 <__aeabi_fsub>
 80096a6:	2f00      	cmp	r7, #0
 80096a8:	4604      	mov	r4, r0
 80096aa:	f6bf af32 	bge.w	8009512 <atanf+0x2a>
 80096ae:	f100 4400 	add.w	r4, r0, #2147483648	; 0x80000000
 80096b2:	e72e      	b.n	8009512 <atanf+0x2a>
 80096b4:	4c13      	ldr	r4, [pc, #76]	; (8009704 <atanf+0x21c>)
 80096b6:	e72c      	b.n	8009512 <atanf+0x2a>
 80096b8:	bfc90fdb 	.word	0xbfc90fdb
 80096bc:	3edfffff 	.word	0x3edfffff
 80096c0:	7149f2ca 	.word	0x7149f2ca
 80096c4:	3f97ffff 	.word	0x3f97ffff
 80096c8:	3c8569d7 	.word	0x3c8569d7
 80096cc:	3d4bda59 	.word	0x3d4bda59
 80096d0:	3d886b35 	.word	0x3d886b35
 80096d4:	3dba2e6e 	.word	0x3dba2e6e
 80096d8:	3e124925 	.word	0x3e124925
 80096dc:	3eaaaaab 	.word	0x3eaaaaab
 80096e0:	bd15a221 	.word	0xbd15a221
 80096e4:	3d6ef16b 	.word	0x3d6ef16b
 80096e8:	3d9d8795 	.word	0x3d9d8795
 80096ec:	3de38e38 	.word	0x3de38e38
 80096f0:	3e4ccccd 	.word	0x3e4ccccd
 80096f4:	401bffff 	.word	0x401bffff
 80096f8:	bf800000 	.word	0xbf800000
 80096fc:	08009e94 	.word	0x08009e94
 8009700:	08009e84 	.word	0x08009e84
 8009704:	3fc90fdb 	.word	0x3fc90fdb

08009708 <fabsf>:
 8009708:	f020 4000 	bic.w	r0, r0, #2147483648	; 0x80000000
 800970c:	4770      	bx	lr
	...

08009710 <floorf>:
 8009710:	b570      	push	{r4, r5, r6, lr}
 8009712:	f020 4600 	bic.w	r6, r0, #2147483648	; 0x80000000
 8009716:	0df5      	lsrs	r5, r6, #23
 8009718:	3d7f      	subs	r5, #127	; 0x7f
 800971a:	2d16      	cmp	r5, #22
 800971c:	4601      	mov	r1, r0
 800971e:	4604      	mov	r4, r0
 8009720:	dc26      	bgt.n	8009770 <floorf+0x60>
 8009722:	2d00      	cmp	r5, #0
 8009724:	da0e      	bge.n	8009744 <floorf+0x34>
 8009726:	4917      	ldr	r1, [pc, #92]	; (8009784 <floorf+0x74>)
 8009728:	f7f7 fa24 	bl	8000b74 <__addsf3>
 800972c:	2100      	movs	r1, #0
 800972e:	f7f7 fce5 	bl	80010fc <__aeabi_fcmpgt>
 8009732:	b128      	cbz	r0, 8009740 <floorf+0x30>
 8009734:	2c00      	cmp	r4, #0
 8009736:	da23      	bge.n	8009780 <floorf+0x70>
 8009738:	4b13      	ldr	r3, [pc, #76]	; (8009788 <floorf+0x78>)
 800973a:	2e00      	cmp	r6, #0
 800973c:	bf18      	it	ne
 800973e:	461c      	movne	r4, r3
 8009740:	4621      	mov	r1, r4
 8009742:	e01b      	b.n	800977c <floorf+0x6c>
 8009744:	4e11      	ldr	r6, [pc, #68]	; (800978c <floorf+0x7c>)
 8009746:	412e      	asrs	r6, r5
 8009748:	4230      	tst	r0, r6
 800974a:	d017      	beq.n	800977c <floorf+0x6c>
 800974c:	490d      	ldr	r1, [pc, #52]	; (8009784 <floorf+0x74>)
 800974e:	f7f7 fa11 	bl	8000b74 <__addsf3>
 8009752:	2100      	movs	r1, #0
 8009754:	f7f7 fcd2 	bl	80010fc <__aeabi_fcmpgt>
 8009758:	2800      	cmp	r0, #0
 800975a:	d0f1      	beq.n	8009740 <floorf+0x30>
 800975c:	2c00      	cmp	r4, #0
 800975e:	bfbe      	ittt	lt
 8009760:	f44f 0300 	movlt.w	r3, #8388608	; 0x800000
 8009764:	fa43 f505 	asrlt.w	r5, r3, r5
 8009768:	1964      	addlt	r4, r4, r5
 800976a:	ea24 0406 	bic.w	r4, r4, r6
 800976e:	e7e7      	b.n	8009740 <floorf+0x30>
 8009770:	f1b6 4fff 	cmp.w	r6, #2139095040	; 0x7f800000
 8009774:	d302      	bcc.n	800977c <floorf+0x6c>
 8009776:	f7f7 f9fd 	bl	8000b74 <__addsf3>
 800977a:	4601      	mov	r1, r0
 800977c:	4608      	mov	r0, r1
 800977e:	bd70      	pop	{r4, r5, r6, pc}
 8009780:	2400      	movs	r4, #0
 8009782:	e7dd      	b.n	8009740 <floorf+0x30>
 8009784:	7149f2ca 	.word	0x7149f2ca
 8009788:	bf800000 	.word	0xbf800000
 800978c:	007fffff 	.word	0x007fffff

08009790 <scalbnf>:
 8009790:	f030 4300 	bics.w	r3, r0, #2147483648	; 0x80000000
 8009794:	b510      	push	{r4, lr}
 8009796:	4602      	mov	r2, r0
 8009798:	460c      	mov	r4, r1
 800979a:	d028      	beq.n	80097ee <scalbnf+0x5e>
 800979c:	f1b3 4fff 	cmp.w	r3, #2139095040	; 0x7f800000
 80097a0:	d304      	bcc.n	80097ac <scalbnf+0x1c>
 80097a2:	4601      	mov	r1, r0
 80097a4:	f7f7 f9e6 	bl	8000b74 <__addsf3>
 80097a8:	4602      	mov	r2, r0
 80097aa:	e020      	b.n	80097ee <scalbnf+0x5e>
 80097ac:	f5b3 0f00 	cmp.w	r3, #8388608	; 0x800000
 80097b0:	d215      	bcs.n	80097de <scalbnf+0x4e>
 80097b2:	f04f 4198 	mov.w	r1, #1275068416	; 0x4c000000
 80097b6:	f7f7 fae5 	bl	8000d84 <__aeabi_fmul>
 80097ba:	4b18      	ldr	r3, [pc, #96]	; (800981c <scalbnf+0x8c>)
 80097bc:	4602      	mov	r2, r0
 80097be:	429c      	cmp	r4, r3
 80097c0:	db22      	blt.n	8009808 <scalbnf+0x78>
 80097c2:	f3c0 53c7 	ubfx	r3, r0, #23, #8
 80097c6:	3b19      	subs	r3, #25
 80097c8:	4423      	add	r3, r4
 80097ca:	2bfe      	cmp	r3, #254	; 0xfe
 80097cc:	dd09      	ble.n	80097e2 <scalbnf+0x52>
 80097ce:	4611      	mov	r1, r2
 80097d0:	4813      	ldr	r0, [pc, #76]	; (8009820 <scalbnf+0x90>)
 80097d2:	f000 f829 	bl	8009828 <copysignf>
 80097d6:	4912      	ldr	r1, [pc, #72]	; (8009820 <scalbnf+0x90>)
 80097d8:	f7f7 fad4 	bl	8000d84 <__aeabi_fmul>
 80097dc:	e7e4      	b.n	80097a8 <scalbnf+0x18>
 80097de:	0ddb      	lsrs	r3, r3, #23
 80097e0:	e7f2      	b.n	80097c8 <scalbnf+0x38>
 80097e2:	2b00      	cmp	r3, #0
 80097e4:	dd05      	ble.n	80097f2 <scalbnf+0x62>
 80097e6:	f020 40ff 	bic.w	r0, r0, #2139095040	; 0x7f800000
 80097ea:	ea40 52c3 	orr.w	r2, r0, r3, lsl #23
 80097ee:	4610      	mov	r0, r2
 80097f0:	bd10      	pop	{r4, pc}
 80097f2:	f113 0f16 	cmn.w	r3, #22
 80097f6:	da09      	bge.n	800980c <scalbnf+0x7c>
 80097f8:	f24c 3350 	movw	r3, #50000	; 0xc350
 80097fc:	429c      	cmp	r4, r3
 80097fe:	4611      	mov	r1, r2
 8009800:	dce6      	bgt.n	80097d0 <scalbnf+0x40>
 8009802:	4808      	ldr	r0, [pc, #32]	; (8009824 <scalbnf+0x94>)
 8009804:	f000 f810 	bl	8009828 <copysignf>
 8009808:	4906      	ldr	r1, [pc, #24]	; (8009824 <scalbnf+0x94>)
 800980a:	e7e5      	b.n	80097d8 <scalbnf+0x48>
 800980c:	3319      	adds	r3, #25
 800980e:	f020 40ff 	bic.w	r0, r0, #2139095040	; 0x7f800000
 8009812:	f04f 514c 	mov.w	r1, #855638016	; 0x33000000
 8009816:	ea40 50c3 	orr.w	r0, r0, r3, lsl #23
 800981a:	e7dd      	b.n	80097d8 <scalbnf+0x48>
 800981c:	ffff3cb0 	.word	0xffff3cb0
 8009820:	7149f2ca 	.word	0x7149f2ca
 8009824:	0da24260 	.word	0x0da24260

08009828 <copysignf>:
 8009828:	f001 4100 	and.w	r1, r1, #2147483648	; 0x80000000
 800982c:	f020 4000 	bic.w	r0, r0, #2147483648	; 0x80000000
 8009830:	4308      	orrs	r0, r1
 8009832:	4770      	bx	lr

08009834 <_init>:
 8009834:	b5f8      	push	{r3, r4, r5, r6, r7, lr}
 8009836:	bf00      	nop
 8009838:	bcf8      	pop	{r3, r4, r5, r6, r7}
 800983a:	bc08      	pop	{r3}
 800983c:	469e      	mov	lr, r3
 800983e:	4770      	bx	lr

08009840 <_fini>:
 8009840:	b5f8      	push	{r3, r4, r5, r6, r7, lr}
 8009842:	bf00      	nop
 8009844:	bcf8      	pop	{r3, r4, r5, r6, r7}
 8009846:	bc08      	pop	{r3}
 8009848:	469e      	mov	lr, r3
 800984a:	4770      	bx	lr
